
stm32.elf:     file format elf32-littlearm

Sections:
Idx Name          Size      VMA       LMA       File off  Algn
  0 .isr_vector   00000188  08000000  08000000  00010000  2**0
                  CONTENTS, ALLOC, LOAD, READONLY, DATA
  1 .text         00009940  08000190  08000190  00010190  2**4
                  CONTENTS, ALLOC, LOAD, READONLY, CODE
  2 .rodata       00001fb0  08009ad0  08009ad0  00019ad0  2**2
                  CONTENTS, ALLOC, LOAD, READONLY, DATA
  3 .ARM.extab    00000000  0800ba80  0800ba80  00020084  2**0
                  CONTENTS
  4 .ARM          00000008  0800ba80  0800ba80  0001ba80  2**2
                  CONTENTS, ALLOC, LOAD, READONLY, DATA
  5 .preinit_array 00000000  0800ba88  0800ba88  00020084  2**0
                  CONTENTS, ALLOC, LOAD, DATA
  6 .init_array   00000004  0800ba88  0800ba88  0001ba88  2**2
                  CONTENTS, ALLOC, LOAD, DATA
  7 .fini_array   00000004  0800ba8c  0800ba8c  0001ba8c  2**2
                  CONTENTS, ALLOC, LOAD, DATA
  8 .data         00000084  20000000  0800ba90  00020000  2**2
                  CONTENTS, ALLOC, LOAD, DATA
  9 .ccmram       00000000  10000000  10000000  00020084  2**0
                  CONTENTS
 10 .bss          000084c0  20000084  20000084  00020084  2**2
                  ALLOC
 11 ._user_heap_stack 00000604  20008544  20008544  00020084  2**0
                  ALLOC
 12 .ARM.attributes 00000030  00000000  00000000  00020084  2**0
                  CONTENTS, READONLY
 13 .comment      00000043  00000000  00000000  000200b4  2**0
                  CONTENTS, READONLY
 14 .debug_frame  00000aac  00000000  00000000  000200f8  2**2
                  CONTENTS, READONLY, DEBUGGING, OCTETS

Disassembly of section .text:

08000190 <__do_global_dtors_aux>:
 8000190:	b510      	push	{r4, lr}
 8000192:	4c05      	ldr	r4, [pc, #20]	; (80001a8 <__do_global_dtors_aux+0x18>)
 8000194:	7823      	ldrb	r3, [r4, #0]
 8000196:	b933      	cbnz	r3, 80001a6 <__do_global_dtors_aux+0x16>
 8000198:	4b04      	ldr	r3, [pc, #16]	; (80001ac <__do_global_dtors_aux+0x1c>)
 800019a:	b113      	cbz	r3, 80001a2 <__do_global_dtors_aux+0x12>
 800019c:	4804      	ldr	r0, [pc, #16]	; (80001b0 <__do_global_dtors_aux+0x20>)
 800019e:	f3af 8000 	nop.w
 80001a2:	2301      	movs	r3, #1
 80001a4:	7023      	strb	r3, [r4, #0]
 80001a6:	bd10      	pop	{r4, pc}
 80001a8:	20000084 	.word	0x20000084
 80001ac:	00000000 	.word	0x00000000
 80001b0:	08009ab8 	.word	0x08009ab8

080001b4 <frame_dummy>:
 80001b4:	b508      	push	{r3, lr}
 80001b6:	4b03      	ldr	r3, [pc, #12]	; (80001c4 <frame_dummy+0x10>)
 80001b8:	b11b      	cbz	r3, 80001c2 <frame_dummy+0xe>
 80001ba:	4903      	ldr	r1, [pc, #12]	; (80001c8 <frame_dummy+0x14>)
 80001bc:	4803      	ldr	r0, [pc, #12]	; (80001cc <frame_dummy+0x18>)
 80001be:	f3af 8000 	nop.w
 80001c2:	bd08      	pop	{r3, pc}
 80001c4:	00000000 	.word	0x00000000
 80001c8:	20000088 	.word	0x20000088
 80001cc:	08009ab8 	.word	0x08009ab8

080001d0 <strlen>:
 80001d0:	4603      	mov	r3, r0
 80001d2:	f813 2b01 	ldrb.w	r2, [r3], #1
 80001d6:	2a00      	cmp	r2, #0
 80001d8:	d1fb      	bne.n	80001d2 <strlen+0x2>
 80001da:	1a18      	subs	r0, r3, r0
 80001dc:	3801      	subs	r0, #1
 80001de:	4770      	bx	lr

080001e0 <memchr>:
 80001e0:	f001 01ff 	and.w	r1, r1, #255	; 0xff
 80001e4:	2a10      	cmp	r2, #16
 80001e6:	db2b      	blt.n	8000240 <memchr+0x60>
 80001e8:	f010 0f07 	tst.w	r0, #7
 80001ec:	d008      	beq.n	8000200 <memchr+0x20>
 80001ee:	f810 3b01 	ldrb.w	r3, [r0], #1
 80001f2:	3a01      	subs	r2, #1
 80001f4:	428b      	cmp	r3, r1
 80001f6:	d02d      	beq.n	8000254 <memchr+0x74>
 80001f8:	f010 0f07 	tst.w	r0, #7
 80001fc:	b342      	cbz	r2, 8000250 <memchr+0x70>
 80001fe:	d1f6      	bne.n	80001ee <memchr+0xe>
 8000200:	b4f0      	push	{r4, r5, r6, r7}
 8000202:	ea41 2101 	orr.w	r1, r1, r1, lsl #8
 8000206:	ea41 4101 	orr.w	r1, r1, r1, lsl #16
 800020a:	f022 0407 	bic.w	r4, r2, #7
 800020e:	f07f 0700 	mvns.w	r7, #0
 8000212:	2300      	movs	r3, #0
 8000214:	e8f0 5602 	ldrd	r5, r6, [r0], #8
 8000218:	3c08      	subs	r4, #8
 800021a:	ea85 0501 	eor.w	r5, r5, r1
 800021e:	ea86 0601 	eor.w	r6, r6, r1
 8000222:	fa85 f547 	uadd8	r5, r5, r7
 8000226:	faa3 f587 	sel	r5, r3, r7
 800022a:	fa86 f647 	uadd8	r6, r6, r7
 800022e:	faa5 f687 	sel	r6, r5, r7
 8000232:	b98e      	cbnz	r6, 8000258 <memchr+0x78>
 8000234:	d1ee      	bne.n	8000214 <memchr+0x34>
 8000236:	bcf0      	pop	{r4, r5, r6, r7}
 8000238:	f001 01ff 	and.w	r1, r1, #255	; 0xff
 800023c:	f002 0207 	and.w	r2, r2, #7
 8000240:	b132      	cbz	r2, 8000250 <memchr+0x70>
 8000242:	f810 3b01 	ldrb.w	r3, [r0], #1
 8000246:	3a01      	subs	r2, #1
 8000248:	ea83 0301 	eor.w	r3, r3, r1
 800024c:	b113      	cbz	r3, 8000254 <memchr+0x74>
 800024e:	d1f8      	bne.n	8000242 <memchr+0x62>
 8000250:	2000      	movs	r0, #0
 8000252:	4770      	bx	lr
 8000254:	3801      	subs	r0, #1
 8000256:	4770      	bx	lr
 8000258:	2d00      	cmp	r5, #0
 800025a:	bf06      	itte	eq
 800025c:	4635      	moveq	r5, r6
 800025e:	3803      	subeq	r0, #3
 8000260:	3807      	subne	r0, #7
 8000262:	f015 0f01 	tst.w	r5, #1
 8000266:	d107      	bne.n	8000278 <memchr+0x98>
 8000268:	3001      	adds	r0, #1
 800026a:	f415 7f80 	tst.w	r5, #256	; 0x100
 800026e:	bf02      	ittt	eq
 8000270:	3001      	addeq	r0, #1
 8000272:	f415 3fc0 	tsteq.w	r5, #98304	; 0x18000
 8000276:	3001      	addeq	r0, #1
 8000278:	bcf0      	pop	{r4, r5, r6, r7}
 800027a:	3801      	subs	r0, #1
 800027c:	4770      	bx	lr
 800027e:	bf00      	nop

08000280 <__aeabi_uldivmod>:
 8000280:	b953      	cbnz	r3, 8000298 <__aeabi_uldivmod+0x18>
 8000282:	b94a      	cbnz	r2, 8000298 <__aeabi_uldivmod+0x18>
 8000284:	2900      	cmp	r1, #0
 8000286:	bf08      	it	eq
 8000288:	2800      	cmpeq	r0, #0
 800028a:	bf1c      	itt	ne
 800028c:	f04f 31ff 	movne.w	r1, #4294967295
 8000290:	f04f 30ff 	movne.w	r0, #4294967295
 8000294:	f000 b970 	b.w	8000578 <__aeabi_idiv0>
 8000298:	f1ad 0c08 	sub.w	ip, sp, #8
 800029c:	e96d ce04 	strd	ip, lr, [sp, #-16]!
 80002a0:	f000 f806 	bl	80002b0 <__udivmoddi4>
 80002a4:	f8dd e004 	ldr.w	lr, [sp, #4]
 80002a8:	e9dd 2302 	ldrd	r2, r3, [sp, #8]
 80002ac:	b004      	add	sp, #16
 80002ae:	4770      	bx	lr

080002b0 <__udivmoddi4>:
 80002b0:	e92d 47f0 	stmdb	sp!, {r4, r5, r6, r7, r8, r9, sl, lr}
 80002b4:	9e08      	ldr	r6, [sp, #32]
 80002b6:	460d      	mov	r5, r1
 80002b8:	4604      	mov	r4, r0
 80002ba:	460f      	mov	r7, r1
 80002bc:	2b00      	cmp	r3, #0
 80002be:	d14a      	bne.n	8000356 <__udivmoddi4+0xa6>
 80002c0:	428a      	cmp	r2, r1
 80002c2:	4694      	mov	ip, r2
 80002c4:	d965      	bls.n	8000392 <__udivmoddi4+0xe2>
 80002c6:	fab2 f382 	clz	r3, r2
 80002ca:	b143      	cbz	r3, 80002de <__udivmoddi4+0x2e>
 80002cc:	fa02 fc03 	lsl.w	ip, r2, r3
 80002d0:	f1c3 0220 	rsb	r2, r3, #32
 80002d4:	409f      	lsls	r7, r3
 80002d6:	fa20 f202 	lsr.w	r2, r0, r2
 80002da:	4317      	orrs	r7, r2
 80002dc:	409c      	lsls	r4, r3
 80002de:	ea4f 4e1c 	mov.w	lr, ip, lsr #16
 80002e2:	fa1f f58c 	uxth.w	r5, ip
 80002e6:	fbb7 f1fe 	udiv	r1, r7, lr
 80002ea:	0c22      	lsrs	r2, r4, #16
 80002ec:	fb0e 7711 	mls	r7, lr, r1, r7
 80002f0:	ea42 4207 	orr.w	r2, r2, r7, lsl #16
 80002f4:	fb01 f005 	mul.w	r0, r1, r5
 80002f8:	4290      	cmp	r0, r2
 80002fa:	d90a      	bls.n	8000312 <__udivmoddi4+0x62>
 80002fc:	eb1c 0202 	adds.w	r2, ip, r2
 8000300:	f101 37ff 	add.w	r7, r1, #4294967295
 8000304:	f080 811c 	bcs.w	8000540 <__udivmoddi4+0x290>
 8000308:	4290      	cmp	r0, r2
 800030a:	f240 8119 	bls.w	8000540 <__udivmoddi4+0x290>
 800030e:	3902      	subs	r1, #2
 8000310:	4462      	add	r2, ip
 8000312:	1a12      	subs	r2, r2, r0
 8000314:	b2a4      	uxth	r4, r4
 8000316:	fbb2 f0fe 	udiv	r0, r2, lr
 800031a:	fb0e 2210 	mls	r2, lr, r0, r2
 800031e:	ea44 4402 	orr.w	r4, r4, r2, lsl #16
 8000322:	fb00 f505 	mul.w	r5, r0, r5
 8000326:	42a5      	cmp	r5, r4
 8000328:	d90a      	bls.n	8000340 <__udivmoddi4+0x90>
 800032a:	eb1c 0404 	adds.w	r4, ip, r4
 800032e:	f100 32ff 	add.w	r2, r0, #4294967295
 8000332:	f080 8107 	bcs.w	8000544 <__udivmoddi4+0x294>
 8000336:	42a5      	cmp	r5, r4
 8000338:	f240 8104 	bls.w	8000544 <__udivmoddi4+0x294>
 800033c:	4464      	add	r4, ip
 800033e:	3802      	subs	r0, #2
 8000340:	ea40 4001 	orr.w	r0, r0, r1, lsl #16
 8000344:	1b64      	subs	r4, r4, r5
 8000346:	2100      	movs	r1, #0
 8000348:	b11e      	cbz	r6, 8000352 <__udivmoddi4+0xa2>
 800034a:	40dc      	lsrs	r4, r3
 800034c:	2300      	movs	r3, #0
 800034e:	e9c6 4300 	strd	r4, r3, [r6]
 8000352:	e8bd 87f0 	ldmia.w	sp!, {r4, r5, r6, r7, r8, r9, sl, pc}
 8000356:	428b      	cmp	r3, r1
 8000358:	d908      	bls.n	800036c <__udivmoddi4+0xbc>
 800035a:	2e00      	cmp	r6, #0
 800035c:	f000 80ed 	beq.w	800053a <__udivmoddi4+0x28a>
 8000360:	2100      	movs	r1, #0
 8000362:	e9c6 0500 	strd	r0, r5, [r6]
 8000366:	4608      	mov	r0, r1
 8000368:	e8bd 87f0 	ldmia.w	sp!, {r4, r5, r6, r7, r8, r9, sl, pc}
 800036c:	fab3 f183 	clz	r1, r3
 8000370:	2900      	cmp	r1, #0
 8000372:	d149      	bne.n	8000408 <__udivmoddi4+0x158>
 8000374:	42ab      	cmp	r3, r5
 8000376:	d302      	bcc.n	800037e <__udivmoddi4+0xce>
 8000378:	4282      	cmp	r2, r0
 800037a:	f200 80f8 	bhi.w	800056e <__udivmoddi4+0x2be>
 800037e:	1a84      	subs	r4, r0, r2
 8000380:	eb65 0203 	sbc.w	r2, r5, r3
 8000384:	2001      	movs	r0, #1
 8000386:	4617      	mov	r7, r2
 8000388:	2e00      	cmp	r6, #0
 800038a:	d0e2      	beq.n	8000352 <__udivmoddi4+0xa2>
 800038c:	e9c6 4700 	strd	r4, r7, [r6]
 8000390:	e7df      	b.n	8000352 <__udivmoddi4+0xa2>
 8000392:	b902      	cbnz	r2, 8000396 <__udivmoddi4+0xe6>
 8000394:	deff      	udf	#255	; 0xff
 8000396:	fab2 f382 	clz	r3, r2
 800039a:	2b00      	cmp	r3, #0
 800039c:	f040 8090 	bne.w	80004c0 <__udivmoddi4+0x210>
 80003a0:	1a8a      	subs	r2, r1, r2
 80003a2:	ea4f 471c 	mov.w	r7, ip, lsr #16
 80003a6:	fa1f fe8c 	uxth.w	lr, ip
 80003aa:	2101      	movs	r1, #1
 80003ac:	fbb2 f5f7 	udiv	r5, r2, r7
 80003b0:	fb07 2015 	mls	r0, r7, r5, r2
 80003b4:	0c22      	lsrs	r2, r4, #16
 80003b6:	ea42 4200 	orr.w	r2, r2, r0, lsl #16
 80003ba:	fb0e f005 	mul.w	r0, lr, r5
 80003be:	4290      	cmp	r0, r2
 80003c0:	d908      	bls.n	80003d4 <__udivmoddi4+0x124>
 80003c2:	eb1c 0202 	adds.w	r2, ip, r2
 80003c6:	f105 38ff 	add.w	r8, r5, #4294967295
 80003ca:	d202      	bcs.n	80003d2 <__udivmoddi4+0x122>
 80003cc:	4290      	cmp	r0, r2
 80003ce:	f200 80cb 	bhi.w	8000568 <__udivmoddi4+0x2b8>
 80003d2:	4645      	mov	r5, r8
 80003d4:	1a12      	subs	r2, r2, r0
 80003d6:	b2a4      	uxth	r4, r4
 80003d8:	fbb2 f0f7 	udiv	r0, r2, r7
 80003dc:	fb07 2210 	mls	r2, r7, r0, r2
 80003e0:	ea44 4402 	orr.w	r4, r4, r2, lsl #16
 80003e4:	fb0e fe00 	mul.w	lr, lr, r0
 80003e8:	45a6      	cmp	lr, r4
 80003ea:	d908      	bls.n	80003fe <__udivmoddi4+0x14e>
 80003ec:	eb1c 0404 	adds.w	r4, ip, r4
 80003f0:	f100 32ff 	add.w	r2, r0, #4294967295
 80003f4:	d202      	bcs.n	80003fc <__udivmoddi4+0x14c>
 80003f6:	45a6      	cmp	lr, r4
 80003f8:	f200 80bb 	bhi.w	8000572 <__udivmoddi4+0x2c2>
 80003fc:	4610      	mov	r0, r2
 80003fe:	eba4 040e 	sub.w	r4, r4, lr
 8000402:	ea40 4005 	orr.w	r0, r0, r5, lsl #16
 8000406:	e79f      	b.n	8000348 <__udivmoddi4+0x98>
 8000408:	f1c1 0720 	rsb	r7, r1, #32
 800040c:	408b      	lsls	r3, r1
 800040e:	fa22 fc07 	lsr.w	ip, r2, r7
 8000412:	ea4c 0c03 	orr.w	ip, ip, r3
 8000416:	fa05 f401 	lsl.w	r4, r5, r1
 800041a:	fa20 f307 	lsr.w	r3, r0, r7
 800041e:	40fd      	lsrs	r5, r7
 8000420:	ea4f 491c 	mov.w	r9, ip, lsr #16
 8000424:	4323      	orrs	r3, r4
 8000426:	fbb5 f8f9 	udiv	r8, r5, r9
 800042a:	fa1f fe8c 	uxth.w	lr, ip
 800042e:	fb09 5518 	mls	r5, r9, r8, r5
 8000432:	0c1c      	lsrs	r4, r3, #16
 8000434:	ea44 4405 	orr.w	r4, r4, r5, lsl #16
 8000438:	fb08 f50e 	mul.w	r5, r8, lr
 800043c:	42a5      	cmp	r5, r4
 800043e:	fa02 f201 	lsl.w	r2, r2, r1
 8000442:	fa00 f001 	lsl.w	r0, r0, r1
 8000446:	d90b      	bls.n	8000460 <__udivmoddi4+0x1b0>
 8000448:	eb1c 0404 	adds.w	r4, ip, r4
 800044c:	f108 3aff 	add.w	sl, r8, #4294967295
 8000450:	f080 8088 	bcs.w	8000564 <__udivmoddi4+0x2b4>
 8000454:	42a5      	cmp	r5, r4
 8000456:	f240 8085 	bls.w	8000564 <__udivmoddi4+0x2b4>
 800045a:	f1a8 0802 	sub.w	r8, r8, #2
 800045e:	4464      	add	r4, ip
 8000460:	1b64      	subs	r4, r4, r5
 8000462:	b29d      	uxth	r5, r3
 8000464:	fbb4 f3f9 	udiv	r3, r4, r9
 8000468:	fb09 4413 	mls	r4, r9, r3, r4
 800046c:	ea45 4404 	orr.w	r4, r5, r4, lsl #16
 8000470:	fb03 fe0e 	mul.w	lr, r3, lr
 8000474:	45a6      	cmp	lr, r4
 8000476:	d908      	bls.n	800048a <__udivmoddi4+0x1da>
 8000478:	eb1c 0404 	adds.w	r4, ip, r4
 800047c:	f103 35ff 	add.w	r5, r3, #4294967295
 8000480:	d26c      	bcs.n	800055c <__udivmoddi4+0x2ac>
 8000482:	45a6      	cmp	lr, r4
 8000484:	d96a      	bls.n	800055c <__udivmoddi4+0x2ac>
 8000486:	3b02      	subs	r3, #2
 8000488:	4464      	add	r4, ip
 800048a:	ea43 4308 	orr.w	r3, r3, r8, lsl #16
 800048e:	fba3 9502 	umull	r9, r5, r3, r2
 8000492:	eba4 040e 	sub.w	r4, r4, lr
 8000496:	42ac      	cmp	r4, r5
 8000498:	46c8      	mov	r8, r9
 800049a:	46ae      	mov	lr, r5
 800049c:	d356      	bcc.n	800054c <__udivmoddi4+0x29c>
 800049e:	d053      	beq.n	8000548 <__udivmoddi4+0x298>
 80004a0:	b156      	cbz	r6, 80004b8 <__udivmoddi4+0x208>
 80004a2:	ebb0 0208 	subs.w	r2, r0, r8
 80004a6:	eb64 040e 	sbc.w	r4, r4, lr
 80004aa:	fa04 f707 	lsl.w	r7, r4, r7
 80004ae:	40ca      	lsrs	r2, r1
 80004b0:	40cc      	lsrs	r4, r1
 80004b2:	4317      	orrs	r7, r2
 80004b4:	e9c6 7400 	strd	r7, r4, [r6]
 80004b8:	4618      	mov	r0, r3
 80004ba:	2100      	movs	r1, #0
 80004bc:	e8bd 87f0 	ldmia.w	sp!, {r4, r5, r6, r7, r8, r9, sl, pc}
 80004c0:	f1c3 0120 	rsb	r1, r3, #32
 80004c4:	fa02 fc03 	lsl.w	ip, r2, r3
 80004c8:	fa20 f201 	lsr.w	r2, r0, r1
 80004cc:	fa25 f101 	lsr.w	r1, r5, r1
 80004d0:	409d      	lsls	r5, r3
 80004d2:	432a      	orrs	r2, r5
 80004d4:	ea4f 471c 	mov.w	r7, ip, lsr #16
 80004d8:	fa1f fe8c 	uxth.w	lr, ip
 80004dc:	fbb1 f0f7 	udiv	r0, r1, r7
 80004e0:	fb07 1510 	mls	r5, r7, r0, r1
 80004e4:	0c11      	lsrs	r1, r2, #16
 80004e6:	ea41 4105 	orr.w	r1, r1, r5, lsl #16
 80004ea:	fb00 f50e 	mul.w	r5, r0, lr
 80004ee:	428d      	cmp	r5, r1
 80004f0:	fa04 f403 	lsl.w	r4, r4, r3
 80004f4:	d908      	bls.n	8000508 <__udivmoddi4+0x258>
 80004f6:	eb1c 0101 	adds.w	r1, ip, r1
 80004fa:	f100 38ff 	add.w	r8, r0, #4294967295
 80004fe:	d22f      	bcs.n	8000560 <__udivmoddi4+0x2b0>
 8000500:	428d      	cmp	r5, r1
 8000502:	d92d      	bls.n	8000560 <__udivmoddi4+0x2b0>
 8000504:	3802      	subs	r0, #2
 8000506:	4461      	add	r1, ip
 8000508:	1b49      	subs	r1, r1, r5
 800050a:	b292      	uxth	r2, r2
 800050c:	fbb1 f5f7 	udiv	r5, r1, r7
 8000510:	fb07 1115 	mls	r1, r7, r5, r1
 8000514:	ea42 4201 	orr.w	r2, r2, r1, lsl #16
 8000518:	fb05 f10e 	mul.w	r1, r5, lr
 800051c:	4291      	cmp	r1, r2
 800051e:	d908      	bls.n	8000532 <__udivmoddi4+0x282>
 8000520:	eb1c 0202 	adds.w	r2, ip, r2
 8000524:	f105 38ff 	add.w	r8, r5, #4294967295
 8000528:	d216      	bcs.n	8000558 <__udivmoddi4+0x2a8>
 800052a:	4291      	cmp	r1, r2
 800052c:	d914      	bls.n	8000558 <__udivmoddi4+0x2a8>
 800052e:	3d02      	subs	r5, #2
 8000530:	4462      	add	r2, ip
 8000532:	1a52      	subs	r2, r2, r1
 8000534:	ea45 4100 	orr.w	r1, r5, r0, lsl #16
 8000538:	e738      	b.n	80003ac <__udivmoddi4+0xfc>
 800053a:	4631      	mov	r1, r6
 800053c:	4630      	mov	r0, r6
 800053e:	e708      	b.n	8000352 <__udivmoddi4+0xa2>
 8000540:	4639      	mov	r1, r7
 8000542:	e6e6      	b.n	8000312 <__udivmoddi4+0x62>
 8000544:	4610      	mov	r0, r2
 8000546:	e6fb      	b.n	8000340 <__udivmoddi4+0x90>
 8000548:	4548      	cmp	r0, r9
 800054a:	d2a9      	bcs.n	80004a0 <__udivmoddi4+0x1f0>
 800054c:	ebb9 0802 	subs.w	r8, r9, r2
 8000550:	eb65 0e0c 	sbc.w	lr, r5, ip
 8000554:	3b01      	subs	r3, #1
 8000556:	e7a3      	b.n	80004a0 <__udivmoddi4+0x1f0>
 8000558:	4645      	mov	r5, r8
 800055a:	e7ea      	b.n	8000532 <__udivmoddi4+0x282>
 800055c:	462b      	mov	r3, r5
 800055e:	e794      	b.n	800048a <__udivmoddi4+0x1da>
 8000560:	4640      	mov	r0, r8
 8000562:	e7d1      	b.n	8000508 <__udivmoddi4+0x258>
 8000564:	46d0      	mov	r8, sl
 8000566:	e77b      	b.n	8000460 <__udivmoddi4+0x1b0>
 8000568:	3d02      	subs	r5, #2
 800056a:	4462      	add	r2, ip
 800056c:	e732      	b.n	80003d4 <__udivmoddi4+0x124>
 800056e:	4608      	mov	r0, r1
 8000570:	e70a      	b.n	8000388 <__udivmoddi4+0xd8>
 8000572:	4464      	add	r4, ip
 8000574:	3802      	subs	r0, #2
 8000576:	e742      	b.n	80003fe <__udivmoddi4+0x14e>

08000578 <__aeabi_idiv0>:
 8000578:	4770      	bx	lr
 800057a:	bf00      	nop

0800057c <nok>:
 800057c:	b507      	push	{r0, r1, r2, lr}
 800057e:	2300      	movs	r3, #0
 8000580:	a801      	add	r0, sp, #4
 8000582:	f88d 3004 	strb.w	r3, [sp, #4]
 8000586:	f8ad 3006 	strh.w	r3, [sp, #6]
 800058a:	f000 f8fe 	bl	800078a <serialize_message>
 800058e:	b003      	add	sp, #12
 8000590:	f85d fb04 	ldr.w	pc, [sp], #4

08000594 <hello>:
 8000594:	b507      	push	{r0, r1, r2, lr}
 8000596:	2301      	movs	r3, #1
 8000598:	f88d 3004 	strb.w	r3, [sp, #4]
 800059c:	8843      	ldrh	r3, [r0, #2]
 800059e:	a801      	add	r0, sp, #4
 80005a0:	3301      	adds	r3, #1
 80005a2:	f8ad 3006 	strh.w	r3, [sp, #6]
 80005a6:	f000 f8f0 	bl	800078a <serialize_message>
 80005aa:	b003      	add	sp, #12
 80005ac:	f85d fb04 	ldr.w	pc, [sp], #4

080005b0 <initialize_function_map>:
 80005b0:	4b02      	ldr	r3, [pc, #8]	; (80005bc <initialize_function_map+0xc>)
 80005b2:	4a03      	ldr	r2, [pc, #12]	; (80005c0 <initialize_function_map+0x10>)
 80005b4:	601a      	str	r2, [r3, #0]
 80005b6:	4a03      	ldr	r2, [pc, #12]	; (80005c4 <initialize_function_map+0x14>)
 80005b8:	605a      	str	r2, [r3, #4]
 80005ba:	4770      	bx	lr
 80005bc:	200000a0 	.word	0x200000a0
 80005c0:	0800057d 	.word	0x0800057d
 80005c4:	08000595 	.word	0x08000595

080005c8 <handle_request>:
 80005c8:	b570      	push	{r4, r5, r6, lr}
 80005ca:	4c07      	ldr	r4, [pc, #28]	; (80005e8 <handle_request+0x20>)
 80005cc:	460d      	mov	r5, r1
 80005ce:	4621      	mov	r1, r4
 80005d0:	f000 f8d8 	bl	8000784 <deserialize_message>
 80005d4:	7822      	ldrb	r2, [r4, #0]
 80005d6:	4b05      	ldr	r3, [pc, #20]	; (80005ec <handle_request+0x24>)
 80005d8:	4629      	mov	r1, r5
 80005da:	4620      	mov	r0, r4
 80005dc:	f853 3022 	ldr.w	r3, [r3, r2, lsl #2]
 80005e0:	e8bd 4070 	ldmia.w	sp!, {r4, r5, r6, lr}
 80005e4:	4718      	bx	r3
 80005e6:	bf00      	nop
 80005e8:	200000a8 	.word	0x200000a8
 80005ec:	200000a0 	.word	0x200000a0

080005f0 <SystemClock_Config>:
 80005f0:	b510      	push	{r4, lr}
 80005f2:	b094      	sub	sp, #80	; 0x50
 80005f4:	2214      	movs	r2, #20
 80005f6:	2100      	movs	r1, #0
 80005f8:	a809      	add	r0, sp, #36	; 0x24
 80005fa:	f008 fbb0 	bl	8008d5e <memset>
 80005fe:	2214      	movs	r2, #20
 8000600:	2100      	movs	r1, #0
 8000602:	a803      	add	r0, sp, #12
 8000604:	f008 fbab 	bl	8008d5e <memset>
 8000608:	2300      	movs	r3, #0
 800060a:	4a1f      	ldr	r2, [pc, #124]	; (8000688 <SystemClock_Config+0x98>)
 800060c:	9301      	str	r3, [sp, #4]
 800060e:	6c11      	ldr	r1, [r2, #64]	; 0x40
 8000610:	f041 5180 	orr.w	r1, r1, #268435456	; 0x10000000
 8000614:	6411      	str	r1, [r2, #64]	; 0x40
 8000616:	6c12      	ldr	r2, [r2, #64]	; 0x40
 8000618:	f002 5280 	and.w	r2, r2, #268435456	; 0x10000000
 800061c:	9201      	str	r2, [sp, #4]
 800061e:	9a01      	ldr	r2, [sp, #4]
 8000620:	4a1a      	ldr	r2, [pc, #104]	; (800068c <SystemClock_Config+0x9c>)
 8000622:	9302      	str	r3, [sp, #8]
 8000624:	6811      	ldr	r1, [r2, #0]
 8000626:	f441 4180 	orr.w	r1, r1, #16384	; 0x4000
 800062a:	6011      	str	r1, [r2, #0]
 800062c:	6812      	ldr	r2, [r2, #0]
 800062e:	2402      	movs	r4, #2
 8000630:	f402 4280 	and.w	r2, r2, #16384	; 0x4000
 8000634:	2008      	movs	r0, #8
 8000636:	e9cd 430e 	strd	r4, r3, [sp, #56]	; 0x38
 800063a:	9202      	str	r2, [sp, #8]
 800063c:	23a8      	movs	r3, #168	; 0xa8
 800063e:	e9cd 0310 	strd	r0, r3, [sp, #64]	; 0x40
 8000642:	9a02      	ldr	r2, [sp, #8]
 8000644:	9408      	str	r4, [sp, #32]
 8000646:	2101      	movs	r1, #1
 8000648:	2210      	movs	r2, #16
 800064a:	2304      	movs	r3, #4
 800064c:	a808      	add	r0, sp, #32
 800064e:	e9cd 120b 	strd	r1, r2, [sp, #44]	; 0x2c
 8000652:	9412      	str	r4, [sp, #72]	; 0x48
 8000654:	9313      	str	r3, [sp, #76]	; 0x4c
 8000656:	f001 f9a5 	bl	80019a4 <HAL_RCC_OscConfig>
 800065a:	b108      	cbz	r0, 8000660 <SystemClock_Config+0x70>
 800065c:	b672      	cpsid	i
 800065e:	e7fe      	b.n	800065e <SystemClock_Config+0x6e>
 8000660:	230f      	movs	r3, #15
 8000662:	e9cd 3403 	strd	r3, r4, [sp, #12]
 8000666:	9005      	str	r0, [sp, #20]
 8000668:	f44f 52a0 	mov.w	r2, #5120	; 0x1400
 800066c:	f44f 5380 	mov.w	r3, #4096	; 0x1000
 8000670:	2105      	movs	r1, #5
 8000672:	a803      	add	r0, sp, #12
 8000674:	e9cd 2306 	strd	r2, r3, [sp, #24]
 8000678:	f001 fb6e 	bl	8001d58 <HAL_RCC_ClockConfig>
 800067c:	b108      	cbz	r0, 8000682 <SystemClock_Config+0x92>
 800067e:	b672      	cpsid	i
 8000680:	e7fe      	b.n	8000680 <SystemClock_Config+0x90>
 8000682:	b014      	add	sp, #80	; 0x50
 8000684:	bd10      	pop	{r4, pc}
 8000686:	bf00      	nop
 8000688:	40023800 	.word	0x40023800
 800068c:	40007000 	.word	0x40007000

08000690 <main>:
 8000690:	b51f      	push	{r0, r1, r2, r3, r4, lr}
 8000692:	f7ff ff8d 	bl	80005b0 <initialize_function_map>
 8000696:	f000 facd 	bl	8000c34 <HAL_Init>
 800069a:	f7ff ffa9 	bl	80005f0 <SystemClock_Config>
 800069e:	4b25      	ldr	r3, [pc, #148]	; (8000734 <main+0xa4>)
 80006a0:	4c25      	ldr	r4, [pc, #148]	; (8000738 <main+0xa8>)
 80006a2:	2200      	movs	r2, #0
 80006a4:	9201      	str	r2, [sp, #4]
 80006a6:	6b19      	ldr	r1, [r3, #48]	; 0x30
 80006a8:	f041 0104 	orr.w	r1, r1, #4
 80006ac:	6319      	str	r1, [r3, #48]	; 0x30
 80006ae:	6b19      	ldr	r1, [r3, #48]	; 0x30
 80006b0:	f001 0104 	and.w	r1, r1, #4
 80006b4:	9101      	str	r1, [sp, #4]
 80006b6:	9901      	ldr	r1, [sp, #4]
 80006b8:	9202      	str	r2, [sp, #8]
 80006ba:	6b19      	ldr	r1, [r3, #48]	; 0x30
 80006bc:	f041 0101 	orr.w	r1, r1, #1
 80006c0:	6319      	str	r1, [r3, #48]	; 0x30
 80006c2:	6b19      	ldr	r1, [r3, #48]	; 0x30
 80006c4:	f001 0101 	and.w	r1, r1, #1
 80006c8:	9102      	str	r1, [sp, #8]
 80006ca:	9902      	ldr	r1, [sp, #8]
 80006cc:	9203      	str	r2, [sp, #12]
 80006ce:	6b19      	ldr	r1, [r3, #48]	; 0x30
 80006d0:	f041 0102 	orr.w	r1, r1, #2
 80006d4:	6319      	str	r1, [r3, #48]	; 0x30
 80006d6:	6b1b      	ldr	r3, [r3, #48]	; 0x30
 80006d8:	4918      	ldr	r1, [pc, #96]	; (800073c <main+0xac>)
 80006da:	6122      	str	r2, [r4, #16]
 80006dc:	f003 0302 	and.w	r3, r3, #2
 80006e0:	9303      	str	r3, [sp, #12]
 80006e2:	9b03      	ldr	r3, [sp, #12]
 80006e4:	61e2      	str	r2, [r4, #28]
 80006e6:	f44f 33e1 	mov.w	r3, #115200	; 0x1c200
 80006ea:	e9c4 1300 	strd	r1, r3, [r4]
 80006ee:	4620      	mov	r0, r4
 80006f0:	230c      	movs	r3, #12
 80006f2:	e9c4 2202 	strd	r2, r2, [r4, #8]
 80006f6:	e9c4 3205 	strd	r3, r2, [r4, #20]
 80006fa:	f001 fc79 	bl	8001ff0 <HAL_UART_Init>
 80006fe:	4602      	mov	r2, r0
 8000700:	b108      	cbz	r0, 8000706 <main+0x76>
 8000702:	b672      	cpsid	i
 8000704:	e7fe      	b.n	8000704 <main+0x74>
 8000706:	4601      	mov	r1, r0
 8000708:	2034      	movs	r0, #52	; 0x34
 800070a:	f000 fae5 	bl	8000cd8 <HAL_NVIC_SetPriority>
 800070e:	2034      	movs	r0, #52	; 0x34
 8000710:	f000 fb14 	bl	8000d3c <HAL_NVIC_EnableIRQ>
 8000714:	f001 fe98 	bl	8002448 <MX_LWIP_Init>
 8000718:	4909      	ldr	r1, [pc, #36]	; (8000740 <main+0xb0>)
 800071a:	2204      	movs	r2, #4
 800071c:	4620      	mov	r0, r4
 800071e:	f001 fe7a 	bl	8002416 <HAL_UART_Receive_IT>
 8000722:	f000 f95d 	bl	80009e0 <tcp_server_init>
 8000726:	f001 fee3 	bl	80024f0 <MX_LWIP_Process>
 800072a:	2001      	movs	r0, #1
 800072c:	f000 faae 	bl	8000c8c <HAL_Delay>
 8000730:	e7f9      	b.n	8000726 <main+0x96>
 8000732:	bf00      	nop
 8000734:	40023800 	.word	0x40023800
 8000738:	200000ac 	.word	0x200000ac
 800073c:	40004c00 	.word	0x40004c00
 8000740:	200000f0 	.word	0x200000f0

08000744 <HAL_UART_RxCpltCallback>:
 8000744:	b508      	push	{r3, lr}
 8000746:	6802      	ldr	r2, [r0, #0]
 8000748:	4b09      	ldr	r3, [pc, #36]	; (8000770 <HAL_UART_RxCpltCallback+0x2c>)
 800074a:	429a      	cmp	r2, r3
 800074c:	d10f      	bne.n	800076e <HAL_UART_RxCpltCallback+0x2a>
 800074e:	4909      	ldr	r1, [pc, #36]	; (8000774 <HAL_UART_RxCpltCallback+0x30>)
 8000750:	4809      	ldr	r0, [pc, #36]	; (8000778 <HAL_UART_RxCpltCallback+0x34>)
 8000752:	f7ff ff39 	bl	80005c8 <handle_request>
 8000756:	4907      	ldr	r1, [pc, #28]	; (8000774 <HAL_UART_RxCpltCallback+0x30>)
 8000758:	4808      	ldr	r0, [pc, #32]	; (800077c <HAL_UART_RxCpltCallback+0x38>)
 800075a:	2204      	movs	r2, #4
 800075c:	f001 fc76 	bl	800204c <HAL_UART_Transmit_IT>
 8000760:	e8bd 4008 	ldmia.w	sp!, {r3, lr}
 8000764:	4904      	ldr	r1, [pc, #16]	; (8000778 <HAL_UART_RxCpltCallback+0x34>)
 8000766:	4805      	ldr	r0, [pc, #20]	; (800077c <HAL_UART_RxCpltCallback+0x38>)
 8000768:	2204      	movs	r2, #4
 800076a:	f001 be54 	b.w	8002416 <HAL_UART_Receive_IT>
 800076e:	bd08      	pop	{r3, pc}
 8000770:	40004c00 	.word	0x40004c00
 8000774:	200000f4 	.word	0x200000f4
 8000778:	200000f0 	.word	0x200000f0
 800077c:	200000ac 	.word	0x200000ac

08000780 <Error_Handler>:
 8000780:	b672      	cpsid	i
 8000782:	e7fe      	b.n	8000782 <Error_Handler+0x2>

08000784 <deserialize_message>:
 8000784:	6803      	ldr	r3, [r0, #0]
 8000786:	600b      	str	r3, [r1, #0]
 8000788:	4770      	bx	lr

0800078a <serialize_message>:
 800078a:	6803      	ldr	r3, [r0, #0]
 800078c:	600b      	str	r3, [r1, #0]
 800078e:	4770      	bx	lr

08000790 <HAL_MspInit>:
 8000790:	b082      	sub	sp, #8
 8000792:	4b0c      	ldr	r3, [pc, #48]	; (80007c4 <HAL_MspInit+0x34>)
 8000794:	2100      	movs	r1, #0
 8000796:	9100      	str	r1, [sp, #0]
 8000798:	6c5a      	ldr	r2, [r3, #68]	; 0x44
 800079a:	f442 4280 	orr.w	r2, r2, #16384	; 0x4000
 800079e:	645a      	str	r2, [r3, #68]	; 0x44
 80007a0:	6c5a      	ldr	r2, [r3, #68]	; 0x44
 80007a2:	f402 4280 	and.w	r2, r2, #16384	; 0x4000
 80007a6:	9200      	str	r2, [sp, #0]
 80007a8:	9a00      	ldr	r2, [sp, #0]
 80007aa:	9101      	str	r1, [sp, #4]
 80007ac:	6c1a      	ldr	r2, [r3, #64]	; 0x40
 80007ae:	f042 5280 	orr.w	r2, r2, #268435456	; 0x10000000
 80007b2:	641a      	str	r2, [r3, #64]	; 0x40
 80007b4:	6c1b      	ldr	r3, [r3, #64]	; 0x40
 80007b6:	f003 5380 	and.w	r3, r3, #268435456	; 0x10000000
 80007ba:	9301      	str	r3, [sp, #4]
 80007bc:	9b01      	ldr	r3, [sp, #4]
 80007be:	b002      	add	sp, #8
 80007c0:	4770      	bx	lr
 80007c2:	bf00      	nop
 80007c4:	40023800 	.word	0x40023800

080007c8 <HAL_UART_MspInit>:
 80007c8:	b510      	push	{r4, lr}
 80007ca:	4604      	mov	r4, r0
 80007cc:	b088      	sub	sp, #32
 80007ce:	2214      	movs	r2, #20
 80007d0:	2100      	movs	r1, #0
 80007d2:	a803      	add	r0, sp, #12
 80007d4:	f008 fac3 	bl	8008d5e <memset>
 80007d8:	6822      	ldr	r2, [r4, #0]
 80007da:	4b18      	ldr	r3, [pc, #96]	; (800083c <HAL_UART_MspInit+0x74>)
 80007dc:	429a      	cmp	r2, r3
 80007de:	d12b      	bne.n	8000838 <HAL_UART_MspInit+0x70>
 80007e0:	f503 33f6 	add.w	r3, r3, #125952	; 0x1ec00
 80007e4:	2400      	movs	r4, #0
 80007e6:	9401      	str	r4, [sp, #4]
 80007e8:	6c1a      	ldr	r2, [r3, #64]	; 0x40
 80007ea:	4815      	ldr	r0, [pc, #84]	; (8000840 <HAL_UART_MspInit+0x78>)
 80007ec:	f442 2200 	orr.w	r2, r2, #524288	; 0x80000
 80007f0:	641a      	str	r2, [r3, #64]	; 0x40
 80007f2:	6c1a      	ldr	r2, [r3, #64]	; 0x40
 80007f4:	f402 2200 	and.w	r2, r2, #524288	; 0x80000
 80007f8:	9201      	str	r2, [sp, #4]
 80007fa:	9a01      	ldr	r2, [sp, #4]
 80007fc:	9402      	str	r4, [sp, #8]
 80007fe:	6b1a      	ldr	r2, [r3, #48]	; 0x30
 8000800:	f042 0204 	orr.w	r2, r2, #4
 8000804:	631a      	str	r2, [r3, #48]	; 0x30
 8000806:	6b1b      	ldr	r3, [r3, #48]	; 0x30
 8000808:	f003 0304 	and.w	r3, r3, #4
 800080c:	9302      	str	r3, [sp, #8]
 800080e:	f44f 6240 	mov.w	r2, #3072	; 0xc00
 8000812:	9b02      	ldr	r3, [sp, #8]
 8000814:	2302      	movs	r3, #2
 8000816:	e9cd 2303 	strd	r2, r3, [sp, #12]
 800081a:	2103      	movs	r1, #3
 800081c:	2308      	movs	r3, #8
 800081e:	e9cd 1306 	strd	r1, r3, [sp, #24]
 8000822:	a903      	add	r1, sp, #12
 8000824:	f000 ffe4 	bl	80017f0 <HAL_GPIO_Init>
 8000828:	2034      	movs	r0, #52	; 0x34
 800082a:	4622      	mov	r2, r4
 800082c:	4621      	mov	r1, r4
 800082e:	f000 fa53 	bl	8000cd8 <HAL_NVIC_SetPriority>
 8000832:	2034      	movs	r0, #52	; 0x34
 8000834:	f000 fa82 	bl	8000d3c <HAL_NVIC_EnableIRQ>
 8000838:	b008      	add	sp, #32
 800083a:	bd10      	pop	{r4, pc}
 800083c:	40004c00 	.word	0x40004c00
 8000840:	40020800 	.word	0x40020800

08000844 <NMI_Handler>:
 8000844:	e7fe      	b.n	8000844 <NMI_Handler>

08000846 <HardFault_Handler>:
 8000846:	e7fe      	b.n	8000846 <HardFault_Handler>

08000848 <MemManage_Handler>:
 8000848:	e7fe      	b.n	8000848 <MemManage_Handler>

0800084a <BusFault_Handler>:
 800084a:	e7fe      	b.n	800084a <BusFault_Handler>

0800084c <UsageFault_Handler>:
 800084c:	e7fe      	b.n	800084c <UsageFault_Handler>

0800084e <SVC_Handler>:
 800084e:	4770      	bx	lr

08000850 <DebugMon_Handler>:
 8000850:	4770      	bx	lr

08000852 <PendSV_Handler>:
 8000852:	4770      	bx	lr

08000854 <SysTick_Handler>:
 8000854:	f000 ba08 	b.w	8000c68 <HAL_IncTick>

08000858 <UART4_IRQHandler>:
 8000858:	4801      	ldr	r0, [pc, #4]	; (8000860 <UART4_IRQHandler+0x8>)
 800085a:	f001 bc7b 	b.w	8002154 <HAL_UART_IRQHandler>
 800085e:	bf00      	nop
 8000860:	200000ac 	.word	0x200000ac

08000864 <_getpid>:
 8000864:	2001      	movs	r0, #1
 8000866:	4770      	bx	lr

08000868 <_kill>:
 8000868:	4b02      	ldr	r3, [pc, #8]	; (8000874 <_kill+0xc>)
 800086a:	2216      	movs	r2, #22
 800086c:	601a      	str	r2, [r3, #0]
 800086e:	f04f 30ff 	mov.w	r0, #4294967295
 8000872:	4770      	bx	lr
 8000874:	20008534 	.word	0x20008534

08000878 <_exit>:
 8000878:	4b01      	ldr	r3, [pc, #4]	; (8000880 <_exit+0x8>)
 800087a:	2216      	movs	r2, #22
 800087c:	601a      	str	r2, [r3, #0]
 800087e:	e7fe      	b.n	800087e <_exit+0x6>
 8000880:	20008534 	.word	0x20008534

08000884 <_read>:
 8000884:	b570      	push	{r4, r5, r6, lr}
 8000886:	460d      	mov	r5, r1
 8000888:	4614      	mov	r4, r2
 800088a:	460e      	mov	r6, r1
 800088c:	1b73      	subs	r3, r6, r5
 800088e:	429c      	cmp	r4, r3
 8000890:	dc01      	bgt.n	8000896 <_read+0x12>
 8000892:	4620      	mov	r0, r4
 8000894:	bd70      	pop	{r4, r5, r6, pc}
 8000896:	f3af 8000 	nop.w
 800089a:	f806 0b01 	strb.w	r0, [r6], #1
 800089e:	e7f5      	b.n	800088c <_read+0x8>

080008a0 <_write>:
 80008a0:	b570      	push	{r4, r5, r6, lr}
 80008a2:	460d      	mov	r5, r1
 80008a4:	4614      	mov	r4, r2
 80008a6:	460e      	mov	r6, r1
 80008a8:	1b73      	subs	r3, r6, r5
 80008aa:	429c      	cmp	r4, r3
 80008ac:	dc01      	bgt.n	80008b2 <_write+0x12>
 80008ae:	4620      	mov	r0, r4
 80008b0:	bd70      	pop	{r4, r5, r6, pc}
 80008b2:	f816 0b01 	ldrb.w	r0, [r6], #1
 80008b6:	f3af 8000 	nop.w
 80008ba:	e7f5      	b.n	80008a8 <_write+0x8>

080008bc <_close>:
 80008bc:	f04f 30ff 	mov.w	r0, #4294967295
 80008c0:	4770      	bx	lr

080008c2 <_fstat>:
 80008c2:	f44f 5300 	mov.w	r3, #8192	; 0x2000
 80008c6:	604b      	str	r3, [r1, #4]
 80008c8:	2000      	movs	r0, #0
 80008ca:	4770      	bx	lr

080008cc <_isatty>:
 80008cc:	2001      	movs	r0, #1
 80008ce:	4770      	bx	lr

080008d0 <_lseek>:
 80008d0:	2000      	movs	r0, #0
 80008d2:	4770      	bx	lr

080008d4 <_sbrk>:
 80008d4:	4a0a      	ldr	r2, [pc, #40]	; (8000900 <_sbrk+0x2c>)
 80008d6:	6811      	ldr	r1, [r2, #0]
 80008d8:	b510      	push	{r4, lr}
 80008da:	4603      	mov	r3, r0
 80008dc:	b909      	cbnz	r1, 80008e2 <_sbrk+0xe>
 80008de:	4909      	ldr	r1, [pc, #36]	; (8000904 <_sbrk+0x30>)
 80008e0:	6011      	str	r1, [r2, #0]
 80008e2:	6810      	ldr	r0, [r2, #0]
 80008e4:	4c08      	ldr	r4, [pc, #32]	; (8000908 <_sbrk+0x34>)
 80008e6:	4909      	ldr	r1, [pc, #36]	; (800090c <_sbrk+0x38>)
 80008e8:	4403      	add	r3, r0
 80008ea:	1b09      	subs	r1, r1, r4
 80008ec:	428b      	cmp	r3, r1
 80008ee:	bf89      	itett	hi
 80008f0:	4b07      	ldrhi	r3, [pc, #28]	; (8000910 <_sbrk+0x3c>)
 80008f2:	6013      	strls	r3, [r2, #0]
 80008f4:	220c      	movhi	r2, #12
 80008f6:	601a      	strhi	r2, [r3, #0]
 80008f8:	bf88      	it	hi
 80008fa:	f04f 30ff 	movhi.w	r0, #4294967295
 80008fe:	bd10      	pop	{r4, pc}
 8000900:	200000f8 	.word	0x200000f8
 8000904:	20008548 	.word	0x20008548
 8000908:	00000400 	.word	0x00000400
 800090c:	20020000 	.word	0x20020000
 8000910:	20008534 	.word	0x20008534

08000914 <SystemInit>:
 8000914:	4a03      	ldr	r2, [pc, #12]	; (8000924 <SystemInit+0x10>)
 8000916:	f8d2 3088 	ldr.w	r3, [r2, #136]	; 0x88
 800091a:	f443 0370 	orr.w	r3, r3, #15728640	; 0xf00000
 800091e:	f8c2 3088 	str.w	r3, [r2, #136]	; 0x88
 8000922:	4770      	bx	lr
 8000924:	e000ed00 	.word	0xe000ed00

08000928 <tcp_server_error>:
 8000928:	4770      	bx	lr
	...

0800092c <tcp_server_accept>:
 800092c:	b507      	push	{r0, r1, r2, lr}
 800092e:	4608      	mov	r0, r1
 8000930:	2140      	movs	r1, #64	; 0x40
 8000932:	9001      	str	r0, [sp, #4]
 8000934:	f003 f97a 	bl	8003c2c <tcp_setprio>
 8000938:	9801      	ldr	r0, [sp, #4]
 800093a:	4905      	ldr	r1, [pc, #20]	; (8000950 <tcp_server_accept+0x24>)
 800093c:	f003 f9aa 	bl	8003c94 <tcp_recv>
 8000940:	9801      	ldr	r0, [sp, #4]
 8000942:	4904      	ldr	r1, [pc, #16]	; (8000954 <tcp_server_accept+0x28>)
 8000944:	f003 f9be 	bl	8003cc4 <tcp_err>
 8000948:	2000      	movs	r0, #0
 800094a:	b003      	add	sp, #12
 800094c:	f85d fb04 	ldr.w	pc, [sp], #4
 8000950:	08000959 	.word	0x08000959
 8000954:	08000929 	.word	0x08000929

08000958 <tcp_server_recv>:
 8000958:	b5f0      	push	{r4, r5, r6, r7, lr}
 800095a:	460d      	mov	r5, r1
 800095c:	b087      	sub	sp, #28
 800095e:	4614      	mov	r4, r2
 8000960:	b94a      	cbnz	r2, 8000976 <tcp_server_recv+0x1e>
 8000962:	4608      	mov	r0, r1
 8000964:	f003 fcf2 	bl	800434c <tcp_close>
 8000968:	4621      	mov	r1, r4
 800096a:	4628      	mov	r0, r5
 800096c:	f003 f992 	bl	8003c94 <tcp_recv>
 8000970:	2000      	movs	r0, #0
 8000972:	b007      	add	sp, #28
 8000974:	bdf0      	pop	{r4, r5, r6, r7, pc}
 8000976:	8913      	ldrh	r3, [r2, #8]
 8000978:	2b04      	cmp	r3, #4
 800097a:	d826      	bhi.n	80009ca <tcp_server_recv+0x72>
 800097c:	6850      	ldr	r0, [r2, #4]
 800097e:	4915      	ldr	r1, [pc, #84]	; (80009d4 <tcp_server_recv+0x7c>)
 8000980:	f7ff fe22 	bl	80005c8 <handle_request>
 8000984:	4913      	ldr	r1, [pc, #76]	; (80009d4 <tcp_server_recv+0x7c>)
 8000986:	2301      	movs	r3, #1
 8000988:	2204      	movs	r2, #4
 800098a:	4628      	mov	r0, r5
 800098c:	f005 fc50 	bl	8006230 <tcp_write>
 8000990:	b1b8      	cbz	r0, 80009c2 <tcp_server_recv+0x6a>
 8000992:	4b11      	ldr	r3, [pc, #68]	; (80009d8 <tcp_server_recv+0x80>)
 8000994:	aa01      	add	r2, sp, #4
 8000996:	f103 0c10 	add.w	ip, r3, #16
 800099a:	4617      	mov	r7, r2
 800099c:	6818      	ldr	r0, [r3, #0]
 800099e:	6859      	ldr	r1, [r3, #4]
 80009a0:	4616      	mov	r6, r2
 80009a2:	c603      	stmia	r6!, {r0, r1}
 80009a4:	3308      	adds	r3, #8
 80009a6:	4563      	cmp	r3, ip
 80009a8:	4632      	mov	r2, r6
 80009aa:	d1f7      	bne.n	800099c <tcp_server_recv+0x44>
 80009ac:	781b      	ldrb	r3, [r3, #0]
 80009ae:	7033      	strb	r3, [r6, #0]
 80009b0:	4638      	mov	r0, r7
 80009b2:	f7ff fc0d 	bl	80001d0 <strlen>
 80009b6:	2301      	movs	r3, #1
 80009b8:	b282      	uxth	r2, r0
 80009ba:	4639      	mov	r1, r7
 80009bc:	4628      	mov	r0, r5
 80009be:	f005 fc37 	bl	8006230 <tcp_write>
 80009c2:	4620      	mov	r0, r4
 80009c4:	f002 fcf6 	bl	80033b4 <pbuf_free>
 80009c8:	e7d2      	b.n	8000970 <tcp_server_recv+0x18>
 80009ca:	4904      	ldr	r1, [pc, #16]	; (80009dc <tcp_server_recv+0x84>)
 80009cc:	2301      	movs	r3, #1
 80009ce:	2216      	movs	r2, #22
 80009d0:	e7f4      	b.n	80009bc <tcp_server_recv+0x64>
 80009d2:	bf00      	nop
 80009d4:	200000f4 	.word	0x200000f4
 80009d8:	08009aff 	.word	0x08009aff
 80009dc:	08009ae8 	.word	0x08009ae8

080009e0 <tcp_server_init>:
 80009e0:	b510      	push	{r4, lr}
 80009e2:	f003 fbfd 	bl	80041e0 <tcp_new>
 80009e6:	4c0a      	ldr	r4, [pc, #40]	; (8000a10 <tcp_server_init+0x30>)
 80009e8:	6020      	str	r0, [r4, #0]
 80009ea:	b178      	cbz	r0, 8000a0c <tcp_server_init+0x2c>
 80009ec:	4909      	ldr	r1, [pc, #36]	; (8000a14 <tcp_server_init+0x34>)
 80009ee:	f243 0239 	movw	r2, #12345	; 0x3039
 80009f2:	f002 ffd1 	bl	8003998 <tcp_bind>
 80009f6:	b948      	cbnz	r0, 8000a0c <tcp_server_init+0x2c>
 80009f8:	6820      	ldr	r0, [r4, #0]
 80009fa:	21ff      	movs	r1, #255	; 0xff
 80009fc:	f003 f888 	bl	8003b10 <tcp_listen_with_backlog>
 8000a00:	4905      	ldr	r1, [pc, #20]	; (8000a18 <tcp_server_init+0x38>)
 8000a02:	6020      	str	r0, [r4, #0]
 8000a04:	e8bd 4010 	ldmia.w	sp!, {r4, lr}
 8000a08:	f003 b974 	b.w	8003cf4 <tcp_accept>
 8000a0c:	bd10      	pop	{r4, pc}
 8000a0e:	bf00      	nop
 8000a10:	200000fc 	.word	0x200000fc
 8000a14:	0800b768 	.word	0x0800b768
 8000a18:	0800092d 	.word	0x0800092d

08000a1c <Reset_Handler>:
 8000a1c:	f8df d034 	ldr.w	sp, [pc, #52]	; 8000a54 <LoopFillZerobss+0x12>
 8000a20:	480d      	ldr	r0, [pc, #52]	; (8000a58 <LoopFillZerobss+0x16>)
 8000a22:	490e      	ldr	r1, [pc, #56]	; (8000a5c <LoopFillZerobss+0x1a>)
 8000a24:	4a0e      	ldr	r2, [pc, #56]	; (8000a60 <LoopFillZerobss+0x1e>)
 8000a26:	2300      	movs	r3, #0
 8000a28:	e002      	b.n	8000a30 <LoopCopyDataInit>

08000a2a <CopyDataInit>:
 8000a2a:	58d4      	ldr	r4, [r2, r3]
 8000a2c:	50c4      	str	r4, [r0, r3]
 8000a2e:	3304      	adds	r3, #4

08000a30 <LoopCopyDataInit>:
 8000a30:	18c4      	adds	r4, r0, r3
 8000a32:	428c      	cmp	r4, r1
 8000a34:	d3f9      	bcc.n	8000a2a <CopyDataInit>
 8000a36:	4a0b      	ldr	r2, [pc, #44]	; (8000a64 <LoopFillZerobss+0x22>)
 8000a38:	4c0b      	ldr	r4, [pc, #44]	; (8000a68 <LoopFillZerobss+0x26>)
 8000a3a:	2300      	movs	r3, #0
 8000a3c:	e001      	b.n	8000a42 <LoopFillZerobss>

08000a3e <FillZerobss>:
 8000a3e:	6013      	str	r3, [r2, #0]
 8000a40:	3204      	adds	r2, #4

08000a42 <LoopFillZerobss>:
 8000a42:	42a2      	cmp	r2, r4
 8000a44:	d3fb      	bcc.n	8000a3e <FillZerobss>
 8000a46:	f7ff ff65 	bl	8000914 <SystemInit>
 8000a4a:	f008 f9d7 	bl	8008dfc <__libc_init_array>
 8000a4e:	f7ff fe1f 	bl	8000690 <main>
 8000a52:	4770      	bx	lr
 8000a54:	20020000 	.word	0x20020000
 8000a58:	20000000 	.word	0x20000000
 8000a5c:	20000084 	.word	0x20000084
 8000a60:	0800ba90 	.word	0x0800ba90
 8000a64:	20000084 	.word	0x20000084
 8000a68:	20008544 	.word	0x20008544

08000a6c <ADC_IRQHandler>:
 8000a6c:	e7fe      	b.n	8000a6c <ADC_IRQHandler>

08000a6e <LAN8742_RegisterBusIO>:
 8000a6e:	b530      	push	{r4, r5, lr}
 8000a70:	b170      	cbz	r0, 8000a90 <LAN8742_RegisterBusIO+0x22>
 8000a72:	68cc      	ldr	r4, [r1, #12]
 8000a74:	b164      	cbz	r4, 8000a90 <LAN8742_RegisterBusIO+0x22>
 8000a76:	688a      	ldr	r2, [r1, #8]
 8000a78:	b152      	cbz	r2, 8000a90 <LAN8742_RegisterBusIO+0x22>
 8000a7a:	690b      	ldr	r3, [r1, #16]
 8000a7c:	b143      	cbz	r3, 8000a90 <LAN8742_RegisterBusIO+0x22>
 8000a7e:	680d      	ldr	r5, [r1, #0]
 8000a80:	6849      	ldr	r1, [r1, #4]
 8000a82:	6085      	str	r5, [r0, #8]
 8000a84:	e9c0 2404 	strd	r2, r4, [r0, #16]
 8000a88:	60c1      	str	r1, [r0, #12]
 8000a8a:	6183      	str	r3, [r0, #24]
 8000a8c:	2000      	movs	r0, #0
 8000a8e:	bd30      	pop	{r4, r5, pc}
 8000a90:	f04f 30ff 	mov.w	r0, #4294967295
 8000a94:	e7fb      	b.n	8000a8e <LAN8742_RegisterBusIO+0x20>

08000a96 <LAN8742_Init>:
 8000a96:	b573      	push	{r0, r1, r4, r5, r6, lr}
 8000a98:	6846      	ldr	r6, [r0, #4]
 8000a9a:	2300      	movs	r3, #0
 8000a9c:	4604      	mov	r4, r0
 8000a9e:	9301      	str	r3, [sp, #4]
 8000aa0:	b166      	cbz	r6, 8000abc <LAN8742_Init+0x26>
 8000aa2:	69a3      	ldr	r3, [r4, #24]
 8000aa4:	4798      	blx	r3
 8000aa6:	4605      	mov	r5, r0
 8000aa8:	69a3      	ldr	r3, [r4, #24]
 8000aaa:	4798      	blx	r3
 8000aac:	1b43      	subs	r3, r0, r5
 8000aae:	f5b3 6ffa 	cmp.w	r3, #2000	; 0x7d0
 8000ab2:	d9f9      	bls.n	8000aa8 <LAN8742_Init+0x12>
 8000ab4:	2301      	movs	r3, #1
 8000ab6:	6063      	str	r3, [r4, #4]
 8000ab8:	2500      	movs	r5, #0
 8000aba:	e027      	b.n	8000b0c <LAN8742_Init+0x76>
 8000abc:	6883      	ldr	r3, [r0, #8]
 8000abe:	b103      	cbz	r3, 8000ac2 <LAN8742_Init+0x2c>
 8000ac0:	4798      	blx	r3
 8000ac2:	2320      	movs	r3, #32
 8000ac4:	6023      	str	r3, [r4, #0]
 8000ac6:	2500      	movs	r5, #0
 8000ac8:	6963      	ldr	r3, [r4, #20]
 8000aca:	aa01      	add	r2, sp, #4
 8000acc:	2112      	movs	r1, #18
 8000ace:	4630      	mov	r0, r6
 8000ad0:	4798      	blx	r3
 8000ad2:	2800      	cmp	r0, #0
 8000ad4:	db1d      	blt.n	8000b12 <LAN8742_Init+0x7c>
 8000ad6:	9b01      	ldr	r3, [sp, #4]
 8000ad8:	f003 031f 	and.w	r3, r3, #31
 8000adc:	42b3      	cmp	r3, r6
 8000ade:	d11a      	bne.n	8000b16 <LAN8742_Init+0x80>
 8000ae0:	6026      	str	r6, [r4, #0]
 8000ae2:	2500      	movs	r5, #0
 8000ae4:	6820      	ldr	r0, [r4, #0]
 8000ae6:	281f      	cmp	r0, #31
 8000ae8:	d82d      	bhi.n	8000b46 <LAN8742_Init+0xb0>
 8000aea:	b97d      	cbnz	r5, 8000b0c <LAN8742_Init+0x76>
 8000aec:	6923      	ldr	r3, [r4, #16]
 8000aee:	f44f 4200 	mov.w	r2, #32768	; 0x8000
 8000af2:	4629      	mov	r1, r5
 8000af4:	4798      	blx	r3
 8000af6:	2800      	cmp	r0, #0
 8000af8:	db28      	blt.n	8000b4c <LAN8742_Init+0xb6>
 8000afa:	6963      	ldr	r3, [r4, #20]
 8000afc:	6820      	ldr	r0, [r4, #0]
 8000afe:	aa01      	add	r2, sp, #4
 8000b00:	4629      	mov	r1, r5
 8000b02:	4798      	blx	r3
 8000b04:	2800      	cmp	r0, #0
 8000b06:	da0a      	bge.n	8000b1e <LAN8742_Init+0x88>
 8000b08:	f06f 0504 	mvn.w	r5, #4
 8000b0c:	4628      	mov	r0, r5
 8000b0e:	b002      	add	sp, #8
 8000b10:	bd70      	pop	{r4, r5, r6, pc}
 8000b12:	f06f 0504 	mvn.w	r5, #4
 8000b16:	3601      	adds	r6, #1
 8000b18:	2e20      	cmp	r6, #32
 8000b1a:	d1d5      	bne.n	8000ac8 <LAN8742_Init+0x32>
 8000b1c:	e7e2      	b.n	8000ae4 <LAN8742_Init+0x4e>
 8000b1e:	69a3      	ldr	r3, [r4, #24]
 8000b20:	4798      	blx	r3
 8000b22:	4605      	mov	r5, r0
 8000b24:	9b01      	ldr	r3, [sp, #4]
 8000b26:	69a2      	ldr	r2, [r4, #24]
 8000b28:	041b      	lsls	r3, r3, #16
 8000b2a:	d5ba      	bpl.n	8000aa2 <LAN8742_Init+0xc>
 8000b2c:	4790      	blx	r2
 8000b2e:	1b40      	subs	r0, r0, r5
 8000b30:	f5b0 7ffa 	cmp.w	r0, #500	; 0x1f4
 8000b34:	d80d      	bhi.n	8000b52 <LAN8742_Init+0xbc>
 8000b36:	6963      	ldr	r3, [r4, #20]
 8000b38:	6820      	ldr	r0, [r4, #0]
 8000b3a:	aa01      	add	r2, sp, #4
 8000b3c:	2100      	movs	r1, #0
 8000b3e:	4798      	blx	r3
 8000b40:	2800      	cmp	r0, #0
 8000b42:	daef      	bge.n	8000b24 <LAN8742_Init+0x8e>
 8000b44:	e7e0      	b.n	8000b08 <LAN8742_Init+0x72>
 8000b46:	f06f 0502 	mvn.w	r5, #2
 8000b4a:	e7df      	b.n	8000b0c <LAN8742_Init+0x76>
 8000b4c:	f06f 0503 	mvn.w	r5, #3
 8000b50:	e7dc      	b.n	8000b0c <LAN8742_Init+0x76>
 8000b52:	f06f 0501 	mvn.w	r5, #1
 8000b56:	e7d9      	b.n	8000b0c <LAN8742_Init+0x76>

08000b58 <LAN8742_GetLinkState>:
 8000b58:	b537      	push	{r0, r1, r2, r4, r5, lr}
 8000b5a:	2500      	movs	r5, #0
 8000b5c:	6943      	ldr	r3, [r0, #20]
 8000b5e:	9501      	str	r5, [sp, #4]
 8000b60:	4604      	mov	r4, r0
 8000b62:	aa01      	add	r2, sp, #4
 8000b64:	6800      	ldr	r0, [r0, #0]
 8000b66:	2101      	movs	r1, #1
 8000b68:	4798      	blx	r3
 8000b6a:	42a8      	cmp	r0, r5
 8000b6c:	da03      	bge.n	8000b76 <LAN8742_GetLinkState+0x1e>
 8000b6e:	f06f 0004 	mvn.w	r0, #4
 8000b72:	b003      	add	sp, #12
 8000b74:	bd30      	pop	{r4, r5, pc}
 8000b76:	6963      	ldr	r3, [r4, #20]
 8000b78:	6820      	ldr	r0, [r4, #0]
 8000b7a:	aa01      	add	r2, sp, #4
 8000b7c:	2101      	movs	r1, #1
 8000b7e:	4798      	blx	r3
 8000b80:	2800      	cmp	r0, #0
 8000b82:	dbf4      	blt.n	8000b6e <LAN8742_GetLinkState+0x16>
 8000b84:	9b01      	ldr	r3, [sp, #4]
 8000b86:	075b      	lsls	r3, r3, #29
 8000b88:	d52c      	bpl.n	8000be4 <LAN8742_GetLinkState+0x8c>
 8000b8a:	6963      	ldr	r3, [r4, #20]
 8000b8c:	6820      	ldr	r0, [r4, #0]
 8000b8e:	aa01      	add	r2, sp, #4
 8000b90:	4629      	mov	r1, r5
 8000b92:	4798      	blx	r3
 8000b94:	2800      	cmp	r0, #0
 8000b96:	dbea      	blt.n	8000b6e <LAN8742_GetLinkState+0x16>
 8000b98:	9b01      	ldr	r3, [sp, #4]
 8000b9a:	04dd      	lsls	r5, r3, #19
 8000b9c:	d40e      	bmi.n	8000bbc <LAN8742_GetLinkState+0x64>
 8000b9e:	f403 5204 	and.w	r2, r3, #8448	; 0x2100
 8000ba2:	f5b2 5f04 	cmp.w	r2, #8448	; 0x2100
 8000ba6:	d101      	bne.n	8000bac <LAN8742_GetLinkState+0x54>
 8000ba8:	2002      	movs	r0, #2
 8000baa:	e7e2      	b.n	8000b72 <LAN8742_GetLinkState+0x1a>
 8000bac:	0498      	lsls	r0, r3, #18
 8000bae:	d501      	bpl.n	8000bb4 <LAN8742_GetLinkState+0x5c>
 8000bb0:	2003      	movs	r0, #3
 8000bb2:	e7de      	b.n	8000b72 <LAN8742_GetLinkState+0x1a>
 8000bb4:	05d9      	lsls	r1, r3, #23
 8000bb6:	d513      	bpl.n	8000be0 <LAN8742_GetLinkState+0x88>
 8000bb8:	2004      	movs	r0, #4
 8000bba:	e7da      	b.n	8000b72 <LAN8742_GetLinkState+0x1a>
 8000bbc:	6963      	ldr	r3, [r4, #20]
 8000bbe:	6820      	ldr	r0, [r4, #0]
 8000bc0:	aa01      	add	r2, sp, #4
 8000bc2:	211f      	movs	r1, #31
 8000bc4:	4798      	blx	r3
 8000bc6:	2800      	cmp	r0, #0
 8000bc8:	dbd1      	blt.n	8000b6e <LAN8742_GetLinkState+0x16>
 8000bca:	9b01      	ldr	r3, [sp, #4]
 8000bcc:	04da      	lsls	r2, r3, #19
 8000bce:	d50b      	bpl.n	8000be8 <LAN8742_GetLinkState+0x90>
 8000bd0:	f003 031c 	and.w	r3, r3, #28
 8000bd4:	2b18      	cmp	r3, #24
 8000bd6:	d0e7      	beq.n	8000ba8 <LAN8742_GetLinkState+0x50>
 8000bd8:	2b08      	cmp	r3, #8
 8000bda:	d0e9      	beq.n	8000bb0 <LAN8742_GetLinkState+0x58>
 8000bdc:	2b14      	cmp	r3, #20
 8000bde:	d0eb      	beq.n	8000bb8 <LAN8742_GetLinkState+0x60>
 8000be0:	2005      	movs	r0, #5
 8000be2:	e7c6      	b.n	8000b72 <LAN8742_GetLinkState+0x1a>
 8000be4:	2001      	movs	r0, #1
 8000be6:	e7c4      	b.n	8000b72 <LAN8742_GetLinkState+0x1a>
 8000be8:	2006      	movs	r0, #6
 8000bea:	e7c2      	b.n	8000b72 <LAN8742_GetLinkState+0x1a>

08000bec <HAL_InitTick>:
 8000bec:	b538      	push	{r3, r4, r5, lr}
 8000bee:	4b0e      	ldr	r3, [pc, #56]	; (8000c28 <HAL_InitTick+0x3c>)
 8000bf0:	781a      	ldrb	r2, [r3, #0]
 8000bf2:	f44f 737a 	mov.w	r3, #1000	; 0x3e8
 8000bf6:	fbb3 f3f2 	udiv	r3, r3, r2
 8000bfa:	4a0c      	ldr	r2, [pc, #48]	; (8000c2c <HAL_InitTick+0x40>)
 8000bfc:	4605      	mov	r5, r0
 8000bfe:	6810      	ldr	r0, [r2, #0]
 8000c00:	fbb0 f0f3 	udiv	r0, r0, r3
 8000c04:	f000 f8a8 	bl	8000d58 <HAL_SYSTICK_Config>
 8000c08:	4604      	mov	r4, r0
 8000c0a:	b958      	cbnz	r0, 8000c24 <HAL_InitTick+0x38>
 8000c0c:	2d0f      	cmp	r5, #15
 8000c0e:	d809      	bhi.n	8000c24 <HAL_InitTick+0x38>
 8000c10:	4602      	mov	r2, r0
 8000c12:	4629      	mov	r1, r5
 8000c14:	f04f 30ff 	mov.w	r0, #4294967295
 8000c18:	f000 f85e 	bl	8000cd8 <HAL_NVIC_SetPriority>
 8000c1c:	4b04      	ldr	r3, [pc, #16]	; (8000c30 <HAL_InitTick+0x44>)
 8000c1e:	4620      	mov	r0, r4
 8000c20:	601d      	str	r5, [r3, #0]
 8000c22:	bd38      	pop	{r3, r4, r5, pc}
 8000c24:	2001      	movs	r0, #1
 8000c26:	e7fc      	b.n	8000c22 <HAL_InitTick+0x36>
 8000c28:	20000004 	.word	0x20000004
 8000c2c:	20000000 	.word	0x20000000
 8000c30:	20000008 	.word	0x20000008

08000c34 <HAL_Init>:
 8000c34:	b508      	push	{r3, lr}
 8000c36:	4b0b      	ldr	r3, [pc, #44]	; (8000c64 <HAL_Init+0x30>)
 8000c38:	681a      	ldr	r2, [r3, #0]
 8000c3a:	f442 7200 	orr.w	r2, r2, #512	; 0x200
 8000c3e:	601a      	str	r2, [r3, #0]
 8000c40:	681a      	ldr	r2, [r3, #0]
 8000c42:	f442 6280 	orr.w	r2, r2, #1024	; 0x400
 8000c46:	601a      	str	r2, [r3, #0]
 8000c48:	681a      	ldr	r2, [r3, #0]
 8000c4a:	f442 7280 	orr.w	r2, r2, #256	; 0x100
 8000c4e:	601a      	str	r2, [r3, #0]
 8000c50:	2003      	movs	r0, #3
 8000c52:	f000 f82f 	bl	8000cb4 <HAL_NVIC_SetPriorityGrouping>
 8000c56:	200f      	movs	r0, #15
 8000c58:	f7ff ffc8 	bl	8000bec <HAL_InitTick>
 8000c5c:	f7ff fd98 	bl	8000790 <HAL_MspInit>
 8000c60:	2000      	movs	r0, #0
 8000c62:	bd08      	pop	{r3, pc}
 8000c64:	40023c00 	.word	0x40023c00

08000c68 <HAL_IncTick>:
 8000c68:	4a03      	ldr	r2, [pc, #12]	; (8000c78 <HAL_IncTick+0x10>)
 8000c6a:	4b04      	ldr	r3, [pc, #16]	; (8000c7c <HAL_IncTick+0x14>)
 8000c6c:	6811      	ldr	r1, [r2, #0]
 8000c6e:	781b      	ldrb	r3, [r3, #0]
 8000c70:	440b      	add	r3, r1
 8000c72:	6013      	str	r3, [r2, #0]
 8000c74:	4770      	bx	lr
 8000c76:	bf00      	nop
 8000c78:	20000100 	.word	0x20000100
 8000c7c:	20000004 	.word	0x20000004

08000c80 <HAL_GetTick>:
 8000c80:	4b01      	ldr	r3, [pc, #4]	; (8000c88 <HAL_GetTick+0x8>)
 8000c82:	6818      	ldr	r0, [r3, #0]
 8000c84:	4770      	bx	lr
 8000c86:	bf00      	nop
 8000c88:	20000100 	.word	0x20000100

08000c8c <HAL_Delay>:
 8000c8c:	b538      	push	{r3, r4, r5, lr}
 8000c8e:	4604      	mov	r4, r0
 8000c90:	f7ff fff6 	bl	8000c80 <HAL_GetTick>
 8000c94:	1c63      	adds	r3, r4, #1
 8000c96:	bf1c      	itt	ne
 8000c98:	4b05      	ldrne	r3, [pc, #20]	; (8000cb0 <HAL_Delay+0x24>)
 8000c9a:	781b      	ldrbne	r3, [r3, #0]
 8000c9c:	4605      	mov	r5, r0
 8000c9e:	bf18      	it	ne
 8000ca0:	18e4      	addne	r4, r4, r3
 8000ca2:	f7ff ffed 	bl	8000c80 <HAL_GetTick>
 8000ca6:	1b43      	subs	r3, r0, r5
 8000ca8:	42a3      	cmp	r3, r4
 8000caa:	d3fa      	bcc.n	8000ca2 <HAL_Delay+0x16>
 8000cac:	bd38      	pop	{r3, r4, r5, pc}
 8000cae:	bf00      	nop
 8000cb0:	20000004 	.word	0x20000004

08000cb4 <HAL_NVIC_SetPriorityGrouping>:
 8000cb4:	4907      	ldr	r1, [pc, #28]	; (8000cd4 <HAL_NVIC_SetPriorityGrouping+0x20>)
 8000cb6:	68ca      	ldr	r2, [r1, #12]
 8000cb8:	f422 62e0 	bic.w	r2, r2, #1792	; 0x700
 8000cbc:	0203      	lsls	r3, r0, #8
 8000cbe:	0412      	lsls	r2, r2, #16
 8000cc0:	f403 63e0 	and.w	r3, r3, #1792	; 0x700
 8000cc4:	0c12      	lsrs	r2, r2, #16
 8000cc6:	4313      	orrs	r3, r2
 8000cc8:	f043 63bf 	orr.w	r3, r3, #100139008	; 0x5f80000
 8000ccc:	f443 3300 	orr.w	r3, r3, #131072	; 0x20000
 8000cd0:	60cb      	str	r3, [r1, #12]
 8000cd2:	4770      	bx	lr
 8000cd4:	e000ed00 	.word	0xe000ed00

08000cd8 <HAL_NVIC_SetPriority>:
 8000cd8:	4b16      	ldr	r3, [pc, #88]	; (8000d34 <HAL_NVIC_SetPriority+0x5c>)
 8000cda:	b530      	push	{r4, r5, lr}
 8000cdc:	68dc      	ldr	r4, [r3, #12]
 8000cde:	f3c4 2402 	ubfx	r4, r4, #8, #3
 8000ce2:	f1c4 0307 	rsb	r3, r4, #7
 8000ce6:	1d25      	adds	r5, r4, #4
 8000ce8:	2b04      	cmp	r3, #4
 8000cea:	bf28      	it	cs
 8000cec:	2304      	movcs	r3, #4
 8000cee:	2d06      	cmp	r5, #6
 8000cf0:	f04f 35ff 	mov.w	r5, #4294967295
 8000cf4:	bf8c      	ite	hi
 8000cf6:	3c03      	subhi	r4, #3
 8000cf8:	2400      	movls	r4, #0
 8000cfa:	fa05 f303 	lsl.w	r3, r5, r3
 8000cfe:	ea21 0303 	bic.w	r3, r1, r3
 8000d02:	40a5      	lsls	r5, r4
 8000d04:	ea22 0205 	bic.w	r2, r2, r5
 8000d08:	40a3      	lsls	r3, r4
 8000d0a:	2800      	cmp	r0, #0
 8000d0c:	ea43 0302 	orr.w	r3, r3, r2
 8000d10:	bfac      	ite	ge
 8000d12:	f100 4060 	addge.w	r0, r0, #3758096384	; 0xe0000000
 8000d16:	4a08      	ldrlt	r2, [pc, #32]	; (8000d38 <HAL_NVIC_SetPriority+0x60>)
 8000d18:	ea4f 1303 	mov.w	r3, r3, lsl #4
 8000d1c:	bfb8      	it	lt
 8000d1e:	f000 000f 	andlt.w	r0, r0, #15
 8000d22:	b2db      	uxtb	r3, r3
 8000d24:	bfaa      	itet	ge
 8000d26:	f500 4061 	addge.w	r0, r0, #57600	; 0xe100
 8000d2a:	5413      	strblt	r3, [r2, r0]
 8000d2c:	f880 3300 	strbge.w	r3, [r0, #768]	; 0x300
 8000d30:	bd30      	pop	{r4, r5, pc}
 8000d32:	bf00      	nop
 8000d34:	e000ed00 	.word	0xe000ed00
 8000d38:	e000ed14 	.word	0xe000ed14

08000d3c <HAL_NVIC_EnableIRQ>:
 8000d3c:	2800      	cmp	r0, #0
 8000d3e:	db07      	blt.n	8000d50 <HAL_NVIC_EnableIRQ+0x14>
 8000d40:	0941      	lsrs	r1, r0, #5
 8000d42:	4a04      	ldr	r2, [pc, #16]	; (8000d54 <HAL_NVIC_EnableIRQ+0x18>)
 8000d44:	f000 001f 	and.w	r0, r0, #31
 8000d48:	2301      	movs	r3, #1
 8000d4a:	4083      	lsls	r3, r0
 8000d4c:	f842 3021 	str.w	r3, [r2, r1, lsl #2]
 8000d50:	4770      	bx	lr
 8000d52:	bf00      	nop
 8000d54:	e000e100 	.word	0xe000e100

08000d58 <HAL_SYSTICK_Config>:
 8000d58:	3801      	subs	r0, #1
 8000d5a:	f1b0 7f80 	cmp.w	r0, #16777216	; 0x1000000
 8000d5e:	d20b      	bcs.n	8000d78 <HAL_SYSTICK_Config+0x20>
 8000d60:	f04f 23e0 	mov.w	r3, #3758153728	; 0xe000e000
 8000d64:	4a05      	ldr	r2, [pc, #20]	; (8000d7c <HAL_SYSTICK_Config+0x24>)
 8000d66:	6158      	str	r0, [r3, #20]
 8000d68:	21f0      	movs	r1, #240	; 0xf0
 8000d6a:	f882 1023 	strb.w	r1, [r2, #35]	; 0x23
 8000d6e:	2000      	movs	r0, #0
 8000d70:	2207      	movs	r2, #7
 8000d72:	6198      	str	r0, [r3, #24]
 8000d74:	611a      	str	r2, [r3, #16]
 8000d76:	4770      	bx	lr
 8000d78:	2001      	movs	r0, #1
 8000d7a:	4770      	bx	lr
 8000d7c:	e000ed00 	.word	0xe000ed00

08000d80 <HAL_DMA_Abort>:
 8000d80:	b570      	push	{r4, r5, r6, lr}
 8000d82:	4604      	mov	r4, r0
 8000d84:	6d86      	ldr	r6, [r0, #88]	; 0x58
 8000d86:	f7ff ff7b 	bl	8000c80 <HAL_GetTick>
 8000d8a:	f894 3035 	ldrb.w	r3, [r4, #53]	; 0x35
 8000d8e:	2b02      	cmp	r3, #2
 8000d90:	4605      	mov	r5, r0
 8000d92:	d006      	beq.n	8000da2 <HAL_DMA_Abort+0x22>
 8000d94:	2380      	movs	r3, #128	; 0x80
 8000d96:	6563      	str	r3, [r4, #84]	; 0x54
 8000d98:	2001      	movs	r0, #1
 8000d9a:	2300      	movs	r3, #0
 8000d9c:	f884 3034 	strb.w	r3, [r4, #52]	; 0x34
 8000da0:	bd70      	pop	{r4, r5, r6, pc}
 8000da2:	6823      	ldr	r3, [r4, #0]
 8000da4:	681a      	ldr	r2, [r3, #0]
 8000da6:	f022 0216 	bic.w	r2, r2, #22
 8000daa:	601a      	str	r2, [r3, #0]
 8000dac:	695a      	ldr	r2, [r3, #20]
 8000dae:	f022 0280 	bic.w	r2, r2, #128	; 0x80
 8000db2:	615a      	str	r2, [r3, #20]
 8000db4:	6c22      	ldr	r2, [r4, #64]	; 0x40
 8000db6:	b90a      	cbnz	r2, 8000dbc <HAL_DMA_Abort+0x3c>
 8000db8:	6ca2      	ldr	r2, [r4, #72]	; 0x48
 8000dba:	b11a      	cbz	r2, 8000dc4 <HAL_DMA_Abort+0x44>
 8000dbc:	681a      	ldr	r2, [r3, #0]
 8000dbe:	f022 0208 	bic.w	r2, r2, #8
 8000dc2:	601a      	str	r2, [r3, #0]
 8000dc4:	681a      	ldr	r2, [r3, #0]
 8000dc6:	f022 0201 	bic.w	r2, r2, #1
 8000dca:	601a      	str	r2, [r3, #0]
 8000dcc:	6823      	ldr	r3, [r4, #0]
 8000dce:	681b      	ldr	r3, [r3, #0]
 8000dd0:	f013 0301 	ands.w	r3, r3, #1
 8000dd4:	d108      	bne.n	8000de8 <HAL_DMA_Abort+0x68>
 8000dd6:	6de1      	ldr	r1, [r4, #92]	; 0x5c
 8000dd8:	223f      	movs	r2, #63	; 0x3f
 8000dda:	408a      	lsls	r2, r1
 8000ddc:	60b2      	str	r2, [r6, #8]
 8000dde:	2201      	movs	r2, #1
 8000de0:	f884 2035 	strb.w	r2, [r4, #53]	; 0x35
 8000de4:	4618      	mov	r0, r3
 8000de6:	e7d8      	b.n	8000d9a <HAL_DMA_Abort+0x1a>
 8000de8:	f7ff ff4a 	bl	8000c80 <HAL_GetTick>
 8000dec:	1b40      	subs	r0, r0, r5
 8000dee:	2805      	cmp	r0, #5
 8000df0:	d9ec      	bls.n	8000dcc <HAL_DMA_Abort+0x4c>
 8000df2:	2320      	movs	r3, #32
 8000df4:	2003      	movs	r0, #3
 8000df6:	6563      	str	r3, [r4, #84]	; 0x54
 8000df8:	f884 0035 	strb.w	r0, [r4, #53]	; 0x35
 8000dfc:	e7cd      	b.n	8000d9a <HAL_DMA_Abort+0x1a>

08000dfe <HAL_DMA_Abort_IT>:
 8000dfe:	f890 3035 	ldrb.w	r3, [r0, #53]	; 0x35
 8000e02:	2b02      	cmp	r3, #2
 8000e04:	d003      	beq.n	8000e0e <HAL_DMA_Abort_IT+0x10>
 8000e06:	2380      	movs	r3, #128	; 0x80
 8000e08:	6543      	str	r3, [r0, #84]	; 0x54
 8000e0a:	2001      	movs	r0, #1
 8000e0c:	4770      	bx	lr
 8000e0e:	6802      	ldr	r2, [r0, #0]
 8000e10:	2305      	movs	r3, #5
 8000e12:	f880 3035 	strb.w	r3, [r0, #53]	; 0x35
 8000e16:	6813      	ldr	r3, [r2, #0]
 8000e18:	f023 0301 	bic.w	r3, r3, #1
 8000e1c:	6013      	str	r3, [r2, #0]
 8000e1e:	2000      	movs	r0, #0
 8000e20:	4770      	bx	lr
	...

08000e24 <ETH_Prepare_Tx_Descriptors>:
 8000e24:	e92d 43f0 	stmdb	sp!, {r4, r5, r6, r7, r8, r9, lr}
 8000e28:	6a86      	ldr	r6, [r0, #40]	; 0x28
 8000e2a:	688c      	ldr	r4, [r1, #8]
 8000e2c:	eb00 0c86 	add.w	ip, r0, r6, lsl #2
 8000e30:	4691      	mov	r9, r2
 8000e32:	f8dc 3018 	ldr.w	r3, [ip, #24]
 8000e36:	681d      	ldr	r5, [r3, #0]
 8000e38:	2d00      	cmp	r5, #0
 8000e3a:	da02      	bge.n	8000e42 <ETH_Prepare_Tx_Descriptors+0x1e>
 8000e3c:	2002      	movs	r0, #2
 8000e3e:	e8bd 83f0 	ldmia.w	sp!, {r4, r5, r6, r7, r8, r9, pc}
 8000e42:	f8dc 502c 	ldr.w	r5, [ip, #44]	; 0x2c
 8000e46:	2d00      	cmp	r5, #0
 8000e48:	d1f8      	bne.n	8000e3c <ETH_Prepare_Tx_Descriptors+0x18>
 8000e4a:	6825      	ldr	r5, [r4, #0]
 8000e4c:	609d      	str	r5, [r3, #8]
 8000e4e:	685d      	ldr	r5, [r3, #4]
 8000e50:	6867      	ldr	r7, [r4, #4]
 8000e52:	f425 55ff 	bic.w	r5, r5, #8160	; 0x1fe0
 8000e56:	f025 051f 	bic.w	r5, r5, #31
 8000e5a:	433d      	orrs	r5, r7
 8000e5c:	680f      	ldr	r7, [r1, #0]
 8000e5e:	605d      	str	r5, [r3, #4]
 8000e60:	07fa      	lsls	r2, r7, #31
 8000e62:	d505      	bpl.n	8000e70 <ETH_Prepare_Tx_Descriptors+0x4c>
 8000e64:	681d      	ldr	r5, [r3, #0]
 8000e66:	694a      	ldr	r2, [r1, #20]
 8000e68:	f425 0540 	bic.w	r5, r5, #12582912	; 0xc00000
 8000e6c:	4315      	orrs	r5, r2
 8000e6e:	601d      	str	r5, [r3, #0]
 8000e70:	06bd      	lsls	r5, r7, #26
 8000e72:	d505      	bpl.n	8000e80 <ETH_Prepare_Tx_Descriptors+0x5c>
 8000e74:	681d      	ldr	r5, [r3, #0]
 8000e76:	6909      	ldr	r1, [r1, #16]
 8000e78:	f025 6540 	bic.w	r5, r5, #201326592	; 0xc000000
 8000e7c:	4329      	orrs	r1, r5
 8000e7e:	6019      	str	r1, [r3, #0]
 8000e80:	077a      	lsls	r2, r7, #29
 8000e82:	bf42      	ittt	mi
 8000e84:	6819      	ldrmi	r1, [r3, #0]
 8000e86:	f041 0180 	orrmi.w	r1, r1, #128	; 0x80
 8000e8a:	6019      	strmi	r1, [r3, #0]
 8000e8c:	6819      	ldr	r1, [r3, #0]
 8000e8e:	f041 5180 	orr.w	r1, r1, #268435456	; 0x10000000
 8000e92:	6019      	str	r1, [r3, #0]
 8000e94:	f3bf 8f5f 	dmb	sy
 8000e98:	6819      	ldr	r1, [r3, #0]
 8000e9a:	f8df 80d4 	ldr.w	r8, [pc, #212]	; 8000f70 <ETH_Prepare_Tx_Descriptors+0x14c>
 8000e9e:	f041 4100 	orr.w	r1, r1, #2147483648	; 0x80000000
 8000ea2:	6019      	str	r1, [r3, #0]
 8000ea4:	2500      	movs	r5, #0
 8000ea6:	4631      	mov	r1, r6
 8000ea8:	68a4      	ldr	r4, [r4, #8]
 8000eaa:	f105 0e01 	add.w	lr, r5, #1
 8000eae:	b9bc      	cbnz	r4, 8000ee0 <ETH_Prepare_Tx_Descriptors+0xbc>
 8000eb0:	681a      	ldr	r2, [r3, #0]
 8000eb2:	f1b9 0f00 	cmp.w	r9, #0
 8000eb6:	d058      	beq.n	8000f6a <ETH_Prepare_Tx_Descriptors+0x146>
 8000eb8:	f042 4280 	orr.w	r2, r2, #1073741824	; 0x40000000
 8000ebc:	601a      	str	r2, [r3, #0]
 8000ebe:	681a      	ldr	r2, [r3, #0]
 8000ec0:	f042 5200 	orr.w	r2, r2, #536870912	; 0x20000000
 8000ec4:	601a      	str	r2, [r3, #0]
 8000ec6:	eb00 0381 	add.w	r3, r0, r1, lsl #2
 8000eca:	6bc2      	ldr	r2, [r0, #60]	; 0x3c
 8000ecc:	62da      	str	r2, [r3, #44]	; 0x2c
 8000ece:	6281      	str	r1, [r0, #40]	; 0x28
 8000ed0:	b672      	cpsid	i
 8000ed2:	6c03      	ldr	r3, [r0, #64]	; 0x40
 8000ed4:	3301      	adds	r3, #1
 8000ed6:	442b      	add	r3, r5
 8000ed8:	6403      	str	r3, [r0, #64]	; 0x40
 8000eda:	b662      	cpsie	i
 8000edc:	2000      	movs	r0, #0
 8000ede:	e7ae      	b.n	8000e3e <ETH_Prepare_Tx_Descriptors+0x1a>
 8000ee0:	681d      	ldr	r5, [r3, #0]
 8000ee2:	f025 5500 	bic.w	r5, r5, #536870912	; 0x20000000
 8000ee6:	601d      	str	r5, [r3, #0]
 8000ee8:	681d      	ldr	r5, [r3, #0]
 8000eea:	f1b9 0f00 	cmp.w	r9, #0
 8000eee:	d025      	beq.n	8000f3c <ETH_Prepare_Tx_Descriptors+0x118>
 8000ef0:	f045 4580 	orr.w	r5, r5, #1073741824	; 0x40000000
 8000ef4:	1c4f      	adds	r7, r1, #1
 8000ef6:	2f03      	cmp	r7, #3
 8000ef8:	bf88      	it	hi
 8000efa:	1ecf      	subhi	r7, r1, #3
 8000efc:	601d      	str	r5, [r3, #0]
 8000efe:	eb00 0587 	add.w	r5, r0, r7, lsl #2
 8000f02:	69ab      	ldr	r3, [r5, #24]
 8000f04:	6819      	ldr	r1, [r3, #0]
 8000f06:	f021 5180 	bic.w	r1, r1, #268435456	; 0x10000000
 8000f0a:	6019      	str	r1, [r3, #0]
 8000f0c:	6819      	ldr	r1, [r3, #0]
 8000f0e:	2900      	cmp	r1, #0
 8000f10:	da17      	bge.n	8000f42 <ETH_Prepare_Tx_Descriptors+0x11e>
 8000f12:	f8dc 1018 	ldr.w	r1, [ip, #24]
 8000f16:	2200      	movs	r2, #0
 8000f18:	4572      	cmp	r2, lr
 8000f1a:	d08f      	beq.n	8000e3c <ETH_Prepare_Tx_Descriptors+0x18>
 8000f1c:	f3bf 8f5f 	dmb	sy
 8000f20:	680b      	ldr	r3, [r1, #0]
 8000f22:	f023 4300 	bic.w	r3, r3, #2147483648	; 0x80000000
 8000f26:	600b      	str	r3, [r1, #0]
 8000f28:	1c73      	adds	r3, r6, #1
 8000f2a:	2b03      	cmp	r3, #3
 8000f2c:	bf88      	it	hi
 8000f2e:	1ef3      	subhi	r3, r6, #3
 8000f30:	eb00 0183 	add.w	r1, r0, r3, lsl #2
 8000f34:	3201      	adds	r2, #1
 8000f36:	6989      	ldr	r1, [r1, #24]
 8000f38:	461e      	mov	r6, r3
 8000f3a:	e7ed      	b.n	8000f18 <ETH_Prepare_Tx_Descriptors+0xf4>
 8000f3c:	f025 4580 	bic.w	r5, r5, #1073741824	; 0x40000000
 8000f40:	e7d8      	b.n	8000ef4 <ETH_Prepare_Tx_Descriptors+0xd0>
 8000f42:	6ae9      	ldr	r1, [r5, #44]	; 0x2c
 8000f44:	2900      	cmp	r1, #0
 8000f46:	d1e4      	bne.n	8000f12 <ETH_Prepare_Tx_Descriptors+0xee>
 8000f48:	6821      	ldr	r1, [r4, #0]
 8000f4a:	6099      	str	r1, [r3, #8]
 8000f4c:	6859      	ldr	r1, [r3, #4]
 8000f4e:	6865      	ldr	r5, [r4, #4]
 8000f50:	ea01 0108 	and.w	r1, r1, r8
 8000f54:	4329      	orrs	r1, r5
 8000f56:	6059      	str	r1, [r3, #4]
 8000f58:	f3bf 8f5f 	dmb	sy
 8000f5c:	6819      	ldr	r1, [r3, #0]
 8000f5e:	f041 4100 	orr.w	r1, r1, #2147483648	; 0x80000000
 8000f62:	6019      	str	r1, [r3, #0]
 8000f64:	4675      	mov	r5, lr
 8000f66:	4639      	mov	r1, r7
 8000f68:	e79e      	b.n	8000ea8 <ETH_Prepare_Tx_Descriptors+0x84>
 8000f6a:	f022 4280 	bic.w	r2, r2, #1073741824	; 0x40000000
 8000f6e:	e7a5      	b.n	8000ebc <ETH_Prepare_Tx_Descriptors+0x98>
 8000f70:	ffffe000 	.word	0xffffe000

08000f74 <ETH_SetMACConfig>:
 8000f74:	b570      	push	{r4, r5, r6, lr}
 8000f76:	688b      	ldr	r3, [r1, #8]
 8000f78:	6802      	ldr	r2, [r0, #0]
 8000f7a:	460d      	mov	r5, r1
 8000f7c:	6949      	ldr	r1, [r1, #20]
 8000f7e:	430b      	orrs	r3, r1
 8000f80:	69a9      	ldr	r1, [r5, #24]
 8000f82:	430b      	orrs	r3, r1
 8000f84:	6a69      	ldr	r1, [r5, #36]	; 0x24
 8000f86:	430b      	orrs	r3, r1
 8000f88:	7fe9      	ldrb	r1, [r5, #31]
 8000f8a:	ea43 4301 	orr.w	r3, r3, r1, lsl #16
 8000f8e:	7f29      	ldrb	r1, [r5, #28]
 8000f90:	ea43 3301 	orr.w	r3, r3, r1, lsl #12
 8000f94:	7929      	ldrb	r1, [r5, #4]
 8000f96:	ea43 2381 	orr.w	r3, r3, r1, lsl #10
 8000f9a:	7be9      	ldrb	r1, [r5, #15]
 8000f9c:	ea43 13c1 	orr.w	r3, r3, r1, lsl #7
 8000fa0:	f895 1028 	ldrb.w	r1, [r5, #40]	; 0x28
 8000fa4:	4604      	mov	r4, r0
 8000fa6:	ea43 1301 	orr.w	r3, r3, r1, lsl #4
 8000faa:	6810      	ldr	r0, [r2, #0]
 8000fac:	4929      	ldr	r1, [pc, #164]	; (8001054 <ETH_SetMACConfig+0xe0>)
 8000fae:	4001      	ands	r1, r0
 8000fb0:	430b      	orrs	r3, r1
 8000fb2:	7c29      	ldrb	r1, [r5, #16]
 8000fb4:	fab1 f181 	clz	r1, r1
 8000fb8:	0949      	lsrs	r1, r1, #5
 8000fba:	ea43 53c1 	orr.w	r3, r3, r1, lsl #23
 8000fbe:	7c69      	ldrb	r1, [r5, #17]
 8000fc0:	fab1 f181 	clz	r1, r1
 8000fc4:	0949      	lsrs	r1, r1, #5
 8000fc6:	ea43 5381 	orr.w	r3, r3, r1, lsl #22
 8000fca:	7fa9      	ldrb	r1, [r5, #30]
 8000fcc:	fab1 f181 	clz	r1, r1
 8000fd0:	0949      	lsrs	r1, r1, #5
 8000fd2:	ea43 3341 	orr.w	r3, r3, r1, lsl #13
 8000fd6:	f895 1020 	ldrb.w	r1, [r5, #32]
 8000fda:	fab1 f181 	clz	r1, r1
 8000fde:	0949      	lsrs	r1, r1, #5
 8000fe0:	ea43 2341 	orr.w	r3, r3, r1, lsl #9
 8000fe4:	6013      	str	r3, [r2, #0]
 8000fe6:	2001      	movs	r0, #1
 8000fe8:	6816      	ldr	r6, [r2, #0]
 8000fea:	f7ff fe4f 	bl	8000c8c <HAL_Delay>
 8000fee:	6821      	ldr	r1, [r4, #0]
 8000ff0:	6ca8      	ldr	r0, [r5, #72]	; 0x48
 8000ff2:	600e      	str	r6, [r1, #0]
 8000ff4:	698a      	ldr	r2, [r1, #24]
 8000ff6:	6d2b      	ldr	r3, [r5, #80]	; 0x50
 8000ff8:	f022 02be 	bic.w	r2, r2, #190	; 0xbe
 8000ffc:	0412      	lsls	r2, r2, #16
 8000ffe:	ea43 4300 	orr.w	r3, r3, r0, lsl #16
 8001002:	0c12      	lsrs	r2, r2, #16
 8001004:	4313      	orrs	r3, r2
 8001006:	f895 204c 	ldrb.w	r2, [r5, #76]	; 0x4c
 800100a:	fab2 f282 	clz	r2, r2
 800100e:	0952      	lsrs	r2, r2, #5
 8001010:	ea43 13c2 	orr.w	r3, r3, r2, lsl #7
 8001014:	f895 2055 	ldrb.w	r2, [r5, #85]	; 0x55
 8001018:	1e50      	subs	r0, r2, #1
 800101a:	4242      	negs	r2, r0
 800101c:	4142      	adcs	r2, r0
 800101e:	ea43 03c2 	orr.w	r3, r3, r2, lsl #3
 8001022:	f895 2056 	ldrb.w	r2, [r5, #86]	; 0x56
 8001026:	1e56      	subs	r6, r2, #1
 8001028:	4272      	negs	r2, r6
 800102a:	4172      	adcs	r2, r6
 800102c:	ea43 0382 	orr.w	r3, r3, r2, lsl #2
 8001030:	f895 2054 	ldrb.w	r2, [r5, #84]	; 0x54
 8001034:	f102 3cff 	add.w	ip, r2, #4294967295
 8001038:	f1dc 0200 	rsbs	r2, ip, #0
 800103c:	eb42 020c 	adc.w	r2, r2, ip
 8001040:	ea43 0342 	orr.w	r3, r3, r2, lsl #1
 8001044:	618b      	str	r3, [r1, #24]
 8001046:	2001      	movs	r0, #1
 8001048:	698d      	ldr	r5, [r1, #24]
 800104a:	f7ff fe1f 	bl	8000c8c <HAL_Delay>
 800104e:	6823      	ldr	r3, [r4, #0]
 8001050:	619d      	str	r5, [r3, #24]
 8001052:	bd70      	pop	{r4, r5, r6, pc}
 8001054:	ff20810f 	.word	0xff20810f

08001058 <ETH_SetDMAConfig>:
 8001058:	b570      	push	{r4, r5, r6, lr}
 800105a:	694b      	ldr	r3, [r1, #20]
 800105c:	6802      	ldr	r2, [r0, #0]
 800105e:	460d      	mov	r5, r1
 8001060:	6a09      	ldr	r1, [r1, #32]
 8001062:	430b      	orrs	r3, r1
 8001064:	7b69      	ldrb	r1, [r5, #13]
 8001066:	ea43 6341 	orr.w	r3, r3, r1, lsl #25
 800106a:	7ba9      	ldrb	r1, [r5, #14]
 800106c:	ea43 5341 	orr.w	r3, r3, r1, lsl #21
 8001070:	7f29      	ldrb	r1, [r5, #28]
 8001072:	ea43 13c1 	orr.w	r3, r3, r1, lsl #7
 8001076:	7fa9      	ldrb	r1, [r5, #30]
 8001078:	f502 5280 	add.w	r2, r2, #4096	; 0x1000
 800107c:	ea43 1381 	orr.w	r3, r3, r1, lsl #6
 8001080:	f895 1024 	ldrb.w	r1, [r5, #36]	; 0x24
 8001084:	4604      	mov	r4, r0
 8001086:	ea43 0381 	orr.w	r3, r3, r1, lsl #2
 800108a:	6990      	ldr	r0, [r2, #24]
 800108c:	491a      	ldr	r1, [pc, #104]	; (80010f8 <ETH_SetDMAConfig+0xa0>)
 800108e:	4001      	ands	r1, r0
 8001090:	430b      	orrs	r3, r1
 8001092:	7b29      	ldrb	r1, [r5, #12]
 8001094:	fab1 f181 	clz	r1, r1
 8001098:	0949      	lsrs	r1, r1, #5
 800109a:	ea43 6381 	orr.w	r3, r3, r1, lsl #26
 800109e:	7f69      	ldrb	r1, [r5, #29]
 80010a0:	fab1 f181 	clz	r1, r1
 80010a4:	0949      	lsrs	r1, r1, #5
 80010a6:	ea43 5301 	orr.w	r3, r3, r1, lsl #20
 80010aa:	6193      	str	r3, [r2, #24]
 80010ac:	2001      	movs	r0, #1
 80010ae:	6996      	ldr	r6, [r2, #24]
 80010b0:	f7ff fdec 	bl	8000c8c <HAL_Delay>
 80010b4:	6822      	ldr	r2, [r4, #0]
 80010b6:	69a9      	ldr	r1, [r5, #24]
 80010b8:	68ab      	ldr	r3, [r5, #8]
 80010ba:	f502 5280 	add.w	r2, r2, #4096	; 0x1000
 80010be:	430b      	orrs	r3, r1
 80010c0:	6196      	str	r6, [r2, #24]
 80010c2:	f895 1025 	ldrb.w	r1, [r5, #37]	; 0x25
 80010c6:	ea43 13c1 	orr.w	r3, r3, r1, lsl #7
 80010ca:	6929      	ldr	r1, [r5, #16]
 80010cc:	430b      	orrs	r3, r1
 80010ce:	6829      	ldr	r1, [r5, #0]
 80010d0:	430b      	orrs	r3, r1
 80010d2:	6aa9      	ldr	r1, [r5, #40]	; 0x28
 80010d4:	ea43 0381 	orr.w	r3, r3, r1, lsl #2
 80010d8:	7929      	ldrb	r1, [r5, #4]
 80010da:	ea43 6341 	orr.w	r3, r3, r1, lsl #25
 80010de:	f443 0300 	orr.w	r3, r3, #8388608	; 0x800000
 80010e2:	6013      	str	r3, [r2, #0]
 80010e4:	2001      	movs	r0, #1
 80010e6:	6815      	ldr	r5, [r2, #0]
 80010e8:	f7ff fdd0 	bl	8000c8c <HAL_Delay>
 80010ec:	6823      	ldr	r3, [r4, #0]
 80010ee:	f503 5380 	add.w	r3, r3, #4096	; 0x1000
 80010f2:	601d      	str	r5, [r3, #0]
 80010f4:	bd70      	pop	{r4, r5, r6, pc}
 80010f6:	bf00      	nop
 80010f8:	f8de3f23 	.word	0xf8de3f23

080010fc <ETH_FlushTransmitFIFO>:
 80010fc:	b513      	push	{r0, r1, r4, lr}
 80010fe:	2300      	movs	r3, #0
 8001100:	9301      	str	r3, [sp, #4]
 8001102:	6803      	ldr	r3, [r0, #0]
 8001104:	f503 5380 	add.w	r3, r3, #4096	; 0x1000
 8001108:	4604      	mov	r4, r0
 800110a:	699a      	ldr	r2, [r3, #24]
 800110c:	f442 1280 	orr.w	r2, r2, #1048576	; 0x100000
 8001110:	619a      	str	r2, [r3, #24]
 8001112:	699b      	ldr	r3, [r3, #24]
 8001114:	9301      	str	r3, [sp, #4]
 8001116:	2001      	movs	r0, #1
 8001118:	f7ff fdb8 	bl	8000c8c <HAL_Delay>
 800111c:	6823      	ldr	r3, [r4, #0]
 800111e:	9a01      	ldr	r2, [sp, #4]
 8001120:	f503 5380 	add.w	r3, r3, #4096	; 0x1000
 8001124:	619a      	str	r2, [r3, #24]
 8001126:	b002      	add	sp, #8
 8001128:	bd10      	pop	{r4, pc}
	...

0800112c <ETH_UpdateDescriptor>:
 800112c:	e92d 47f3 	stmdb	sp!, {r0, r1, r4, r5, r6, r7, r8, r9, sl, lr}
 8001130:	6e87      	ldr	r7, [r0, #104]	; 0x68
 8001132:	6ec6      	ldr	r6, [r0, #108]	; 0x6c
 8001134:	f8df a080 	ldr.w	sl, [pc, #128]	; 80011b8 <ETH_UpdateDescriptor+0x8c>
 8001138:	2300      	movs	r3, #0
 800113a:	9301      	str	r3, [sp, #4]
 800113c:	f107 0312 	add.w	r3, r7, #18
 8001140:	4604      	mov	r4, r0
 8001142:	f850 5023 	ldr.w	r5, [r0, r3, lsl #2]
 8001146:	f04f 0801 	mov.w	r8, #1
 800114a:	f44f 498c 	mov.w	r9, #17920	; 0x4600
 800114e:	b116      	cbz	r6, 8001156 <ETH_UpdateDescriptor+0x2a>
 8001150:	f1b8 0f00 	cmp.w	r8, #0
 8001154:	d10c      	bne.n	8001170 <ETH_UpdateDescriptor+0x44>
 8001156:	6ee3      	ldr	r3, [r4, #108]	; 0x6c
 8001158:	42b3      	cmp	r3, r6
 800115a:	d006      	beq.n	800116a <ETH_UpdateDescriptor+0x3e>
 800115c:	6823      	ldr	r3, [r4, #0]
 800115e:	f503 5380 	add.w	r3, r3, #4096	; 0x1000
 8001162:	2200      	movs	r2, #0
 8001164:	609a      	str	r2, [r3, #8]
 8001166:	e9c4 761a 	strd	r7, r6, [r4, #104]	; 0x68
 800116a:	b002      	add	sp, #8
 800116c:	e8bd 87f0 	ldmia.w	sp!, {r4, r5, r6, r7, r8, r9, sl, pc}
 8001170:	6a2b      	ldr	r3, [r5, #32]
 8001172:	b933      	cbnz	r3, 8001182 <ETH_UpdateDescriptor+0x56>
 8001174:	a801      	add	r0, sp, #4
 8001176:	f001 fba3 	bl	80028c0 <HAL_ETH_RxAllocateCallback>
 800117a:	9b01      	ldr	r3, [sp, #4]
 800117c:	b1cb      	cbz	r3, 80011b2 <ETH_UpdateDescriptor+0x86>
 800117e:	622b      	str	r3, [r5, #32]
 8001180:	60ab      	str	r3, [r5, #8]
 8001182:	6da3      	ldr	r3, [r4, #88]	; 0x58
 8001184:	b993      	cbnz	r3, 80011ac <ETH_UpdateDescriptor+0x80>
 8001186:	f8c5 a004 	str.w	sl, [r5, #4]
 800118a:	f3bf 8f5f 	dmb	sy
 800118e:	682b      	ldr	r3, [r5, #0]
 8001190:	f043 4300 	orr.w	r3, r3, #2147483648	; 0x80000000
 8001194:	602b      	str	r3, [r5, #0]
 8001196:	1c7b      	adds	r3, r7, #1
 8001198:	2b03      	cmp	r3, #3
 800119a:	bf88      	it	hi
 800119c:	1efb      	subhi	r3, r7, #3
 800119e:	f103 0212 	add.w	r2, r3, #18
 80011a2:	3e01      	subs	r6, #1
 80011a4:	f854 5022 	ldr.w	r5, [r4, r2, lsl #2]
 80011a8:	461f      	mov	r7, r3
 80011aa:	e7d0      	b.n	800114e <ETH_UpdateDescriptor+0x22>
 80011ac:	f8c5 9004 	str.w	r9, [r5, #4]
 80011b0:	e7eb      	b.n	800118a <ETH_UpdateDescriptor+0x5e>
 80011b2:	4698      	mov	r8, r3
 80011b4:	e7cb      	b.n	800114e <ETH_UpdateDescriptor+0x22>
 80011b6:	bf00      	nop
 80011b8:	80004600 	.word	0x80004600

080011bc <HAL_ETH_Init>:
 80011bc:	b5f0      	push	{r4, r5, r6, r7, lr}
 80011be:	4604      	mov	r4, r0
 80011c0:	b0a7      	sub	sp, #156	; 0x9c
 80011c2:	2800      	cmp	r0, #0
 80011c4:	f000 80dc 	beq.w	8001380 <HAL_ETH_Init+0x1c4>
 80011c8:	f8d0 3084 	ldr.w	r3, [r0, #132]	; 0x84
 80011cc:	b923      	cbnz	r3, 80011d8 <HAL_ETH_Init+0x1c>
 80011ce:	2323      	movs	r3, #35	; 0x23
 80011d0:	f8c0 3084 	str.w	r3, [r0, #132]	; 0x84
 80011d4:	f001 fa32 	bl	800263c <HAL_ETH_MspInit>
 80011d8:	2300      	movs	r3, #0
 80011da:	9301      	str	r3, [sp, #4]
 80011dc:	4b69      	ldr	r3, [pc, #420]	; (8001384 <HAL_ETH_Init+0x1c8>)
 80011de:	68a1      	ldr	r1, [r4, #8]
 80011e0:	6c5a      	ldr	r2, [r3, #68]	; 0x44
 80011e2:	f442 4280 	orr.w	r2, r2, #16384	; 0x4000
 80011e6:	645a      	str	r2, [r3, #68]	; 0x44
 80011e8:	6c5b      	ldr	r3, [r3, #68]	; 0x44
 80011ea:	f403 4380 	and.w	r3, r3, #16384	; 0x4000
 80011ee:	9301      	str	r3, [sp, #4]
 80011f0:	9b01      	ldr	r3, [sp, #4]
 80011f2:	4b65      	ldr	r3, [pc, #404]	; (8001388 <HAL_ETH_Init+0x1cc>)
 80011f4:	685a      	ldr	r2, [r3, #4]
 80011f6:	f422 0200 	bic.w	r2, r2, #8388608	; 0x800000
 80011fa:	605a      	str	r2, [r3, #4]
 80011fc:	685a      	ldr	r2, [r3, #4]
 80011fe:	430a      	orrs	r2, r1
 8001200:	605a      	str	r2, [r3, #4]
 8001202:	685b      	ldr	r3, [r3, #4]
 8001204:	6823      	ldr	r3, [r4, #0]
 8001206:	f503 5380 	add.w	r3, r3, #4096	; 0x1000
 800120a:	681a      	ldr	r2, [r3, #0]
 800120c:	f042 0201 	orr.w	r2, r2, #1
 8001210:	601a      	str	r2, [r3, #0]
 8001212:	f7ff fd35 	bl	8000c80 <HAL_GetTick>
 8001216:	4606      	mov	r6, r0
 8001218:	6823      	ldr	r3, [r4, #0]
 800121a:	f503 5380 	add.w	r3, r3, #4096	; 0x1000
 800121e:	681d      	ldr	r5, [r3, #0]
 8001220:	f015 0501 	ands.w	r5, r5, #1
 8001224:	f040 809f 	bne.w	8001366 <HAL_ETH_Init+0x1aa>
 8001228:	2601      	movs	r6, #1
 800122a:	f44f 4280 	mov.w	r2, #16384	; 0x4000
 800122e:	f240 1701 	movw	r7, #257	; 0x101
 8001232:	f44f 6300 	mov.w	r3, #2048	; 0x800
 8001236:	a90d      	add	r1, sp, #52	; 0x34
 8001238:	4620      	mov	r0, r4
 800123a:	e9cd 2312 	strd	r2, r3, [sp, #72]	; 0x48
 800123e:	f88d 6038 	strb.w	r6, [sp, #56]	; 0x38
 8001242:	f8ad 6052 	strh.w	r6, [sp, #82]	; 0x52
 8001246:	950f      	str	r5, [sp, #60]	; 0x3c
 8001248:	f88d 5050 	strb.w	r5, [sp, #80]	; 0x50
 800124c:	f88d 5054 	strb.w	r5, [sp, #84]	; 0x54
 8001250:	f88d 5043 	strb.w	r5, [sp, #67]	; 0x43
 8001254:	f8ad 7044 	strh.w	r7, [sp, #68]	; 0x44
 8001258:	9516      	str	r5, [sp, #88]	; 0x58
 800125a:	f88d 505c 	strb.w	r5, [sp, #92]	; 0x5c
 800125e:	951f      	str	r5, [sp, #124]	; 0x7c
 8001260:	f88d 5080 	strb.w	r5, [sp, #128]	; 0x80
 8001264:	9521      	str	r5, [sp, #132]	; 0x84
 8001266:	f8ad 5088 	strh.w	r5, [sp, #136]	; 0x88
 800126a:	f88d 508a 	strb.w	r5, [sp, #138]	; 0x8a
 800126e:	f7ff fe81 	bl	8000f74 <ETH_SetMACConfig>
 8001272:	f44f 3380 	mov.w	r3, #65536	; 0x10000
 8001276:	9304      	str	r3, [sp, #16]
 8001278:	f44f 5300 	mov.w	r3, #8192	; 0x2000
 800127c:	e9cd 3506 	strd	r3, r5, [sp, #24]
 8001280:	f44f 0380 	mov.w	r3, #4194304	; 0x400000
 8001284:	9308      	str	r3, [sp, #32]
 8001286:	4620      	mov	r0, r4
 8001288:	f44f 7380 	mov.w	r3, #256	; 0x100
 800128c:	a902      	add	r1, sp, #8
 800128e:	f88d 600c 	strb.w	r6, [sp, #12]
 8001292:	f88d 6016 	strb.w	r6, [sp, #22]
 8001296:	f8ad 3024 	strh.w	r3, [sp, #36]	; 0x24
 800129a:	f8ad 7014 	strh.w	r7, [sp, #20]
 800129e:	f88d 5026 	strb.w	r5, [sp, #38]	; 0x26
 80012a2:	950a      	str	r5, [sp, #40]	; 0x28
 80012a4:	f8ad 702c 	strh.w	r7, [sp, #44]	; 0x2c
 80012a8:	950c      	str	r5, [sp, #48]	; 0x30
 80012aa:	9502      	str	r5, [sp, #8]
 80012ac:	f7ff fed4 	bl	8001058 <ETH_SetDMAConfig>
 80012b0:	68e6      	ldr	r6, [r4, #12]
 80012b2:	f104 0c14 	add.w	ip, r4, #20
 80012b6:	4633      	mov	r3, r6
 80012b8:	462a      	mov	r2, r5
 80012ba:	4628      	mov	r0, r5
 80012bc:	6018      	str	r0, [r3, #0]
 80012be:	6058      	str	r0, [r3, #4]
 80012c0:	6098      	str	r0, [r3, #8]
 80012c2:	60d8      	str	r0, [r3, #12]
 80012c4:	f84c 3f04 	str.w	r3, [ip, #4]!
 80012c8:	681f      	ldr	r7, [r3, #0]
 80012ca:	4619      	mov	r1, r3
 80012cc:	f447 1780 	orr.w	r7, r7, #1048576	; 0x100000
 80012d0:	f841 7b28 	str.w	r7, [r1], #40
 80012d4:	2a03      	cmp	r2, #3
 80012d6:	bf14      	ite	ne
 80012d8:	60d9      	strne	r1, [r3, #12]
 80012da:	60de      	streq	r6, [r3, #12]
 80012dc:	681f      	ldr	r7, [r3, #0]
 80012de:	3201      	adds	r2, #1
 80012e0:	f447 0740 	orr.w	r7, r7, #12582912	; 0xc00000
 80012e4:	2a04      	cmp	r2, #4
 80012e6:	601f      	str	r7, [r3, #0]
 80012e8:	460b      	mov	r3, r1
 80012ea:	d1e7      	bne.n	80012bc <HAL_ETH_Init+0x100>
 80012ec:	6821      	ldr	r1, [r4, #0]
 80012ee:	f501 5180 	add.w	r1, r1, #4096	; 0x1000
 80012f2:	2200      	movs	r2, #0
 80012f4:	62a2      	str	r2, [r4, #40]	; 0x28
 80012f6:	610e      	str	r6, [r1, #16]
 80012f8:	6926      	ldr	r6, [r4, #16]
 80012fa:	f104 0744 	add.w	r7, r4, #68	; 0x44
 80012fe:	4633      	mov	r3, r6
 8001300:	f04f 4c00 	mov.w	ip, #2147483648	; 0x80000000
 8001304:	f44f 4e8c 	mov.w	lr, #17920	; 0x4600
 8001308:	601a      	str	r2, [r3, #0]
 800130a:	605a      	str	r2, [r3, #4]
 800130c:	609a      	str	r2, [r3, #8]
 800130e:	60da      	str	r2, [r3, #12]
 8001310:	f8c3 c000 	str.w	ip, [r3]
 8001314:	f8c3 e004 	str.w	lr, [r3, #4]
 8001318:	6858      	ldr	r0, [r3, #4]
 800131a:	f020 4000 	bic.w	r0, r0, #2147483648	; 0x80000000
 800131e:	6058      	str	r0, [r3, #4]
 8001320:	2d03      	cmp	r5, #3
 8001322:	f103 0028 	add.w	r0, r3, #40	; 0x28
 8001326:	f105 0501 	add.w	r5, r5, #1
 800132a:	e9c3 2208 	strd	r2, r2, [r3, #32]
 800132e:	f847 3f04 	str.w	r3, [r7, #4]!
 8001332:	bf14      	ite	ne
 8001334:	60d8      	strne	r0, [r3, #12]
 8001336:	60de      	streq	r6, [r3, #12]
 8001338:	2d04      	cmp	r5, #4
 800133a:	4603      	mov	r3, r0
 800133c:	d1e4      	bne.n	8001308 <HAL_ETH_Init+0x14c>
 800133e:	2000      	movs	r0, #0
 8001340:	e9c4 0017 	strd	r0, r0, [r4, #92]	; 0x5c
 8001344:	e9c4 001a 	strd	r0, r0, [r4, #104]	; 0x68
 8001348:	6862      	ldr	r2, [r4, #4]
 800134a:	65a0      	str	r0, [r4, #88]	; 0x58
 800134c:	4b0f      	ldr	r3, [pc, #60]	; (800138c <HAL_ETH_Init+0x1d0>)
 800134e:	60ce      	str	r6, [r1, #12]
 8001350:	8891      	ldrh	r1, [r2, #4]
 8001352:	6419      	str	r1, [r3, #64]	; 0x40
 8001354:	6812      	ldr	r2, [r2, #0]
 8001356:	645a      	str	r2, [r3, #68]	; 0x44
 8001358:	2310      	movs	r3, #16
 800135a:	f8c4 0088 	str.w	r0, [r4, #136]	; 0x88
 800135e:	f8c4 3084 	str.w	r3, [r4, #132]	; 0x84
 8001362:	b027      	add	sp, #156	; 0x9c
 8001364:	bdf0      	pop	{r4, r5, r6, r7, pc}
 8001366:	f7ff fc8b 	bl	8000c80 <HAL_GetTick>
 800136a:	1b80      	subs	r0, r0, r6
 800136c:	f5b0 7ffa 	cmp.w	r0, #500	; 0x1f4
 8001370:	f67f af52 	bls.w	8001218 <HAL_ETH_Init+0x5c>
 8001374:	2304      	movs	r3, #4
 8001376:	f8c4 3088 	str.w	r3, [r4, #136]	; 0x88
 800137a:	23e0      	movs	r3, #224	; 0xe0
 800137c:	f8c4 3084 	str.w	r3, [r4, #132]	; 0x84
 8001380:	2001      	movs	r0, #1
 8001382:	e7ee      	b.n	8001362 <HAL_ETH_Init+0x1a6>
 8001384:	40023800 	.word	0x40023800
 8001388:	40013800 	.word	0x40013800
 800138c:	40028000 	.word	0x40028000

08001390 <HAL_ETH_Start>:
 8001390:	f8d0 3084 	ldr.w	r3, [r0, #132]	; 0x84
 8001394:	2b10      	cmp	r3, #16
 8001396:	b570      	push	{r4, r5, r6, lr}
 8001398:	4604      	mov	r4, r0
 800139a:	d12d      	bne.n	80013f8 <HAL_ETH_Start+0x68>
 800139c:	2304      	movs	r3, #4
 800139e:	2523      	movs	r5, #35	; 0x23
 80013a0:	66c3      	str	r3, [r0, #108]	; 0x6c
 80013a2:	f8c0 5084 	str.w	r5, [r0, #132]	; 0x84
 80013a6:	f7ff fec1 	bl	800112c <ETH_UpdateDescriptor>
 80013aa:	6823      	ldr	r3, [r4, #0]
 80013ac:	681a      	ldr	r2, [r3, #0]
 80013ae:	f042 0208 	orr.w	r2, r2, #8
 80013b2:	601a      	str	r2, [r3, #0]
 80013b4:	2001      	movs	r0, #1
 80013b6:	681e      	ldr	r6, [r3, #0]
 80013b8:	f7ff fc68 	bl	8000c8c <HAL_Delay>
 80013bc:	6823      	ldr	r3, [r4, #0]
 80013be:	601e      	str	r6, [r3, #0]
 80013c0:	681a      	ldr	r2, [r3, #0]
 80013c2:	f042 0204 	orr.w	r2, r2, #4
 80013c6:	601a      	str	r2, [r3, #0]
 80013c8:	2001      	movs	r0, #1
 80013ca:	681e      	ldr	r6, [r3, #0]
 80013cc:	f7ff fc5e 	bl	8000c8c <HAL_Delay>
 80013d0:	6823      	ldr	r3, [r4, #0]
 80013d2:	4620      	mov	r0, r4
 80013d4:	601e      	str	r6, [r3, #0]
 80013d6:	f7ff fe91 	bl	80010fc <ETH_FlushTransmitFIFO>
 80013da:	6823      	ldr	r3, [r4, #0]
 80013dc:	f503 5380 	add.w	r3, r3, #4096	; 0x1000
 80013e0:	2000      	movs	r0, #0
 80013e2:	699a      	ldr	r2, [r3, #24]
 80013e4:	f442 5200 	orr.w	r2, r2, #8192	; 0x2000
 80013e8:	619a      	str	r2, [r3, #24]
 80013ea:	699a      	ldr	r2, [r3, #24]
 80013ec:	f042 0202 	orr.w	r2, r2, #2
 80013f0:	619a      	str	r2, [r3, #24]
 80013f2:	f8c4 5084 	str.w	r5, [r4, #132]	; 0x84
 80013f6:	bd70      	pop	{r4, r5, r6, pc}
 80013f8:	2001      	movs	r0, #1
 80013fa:	e7fc      	b.n	80013f6 <HAL_ETH_Start+0x66>

080013fc <HAL_ETH_Stop>:
 80013fc:	b538      	push	{r3, r4, r5, lr}
 80013fe:	f8d0 3084 	ldr.w	r3, [r0, #132]	; 0x84
 8001402:	2b23      	cmp	r3, #35	; 0x23
 8001404:	4604      	mov	r4, r0
 8001406:	d129      	bne.n	800145c <HAL_ETH_Stop+0x60>
 8001408:	f8c0 3084 	str.w	r3, [r0, #132]	; 0x84
 800140c:	6803      	ldr	r3, [r0, #0]
 800140e:	f503 5280 	add.w	r2, r3, #4096	; 0x1000
 8001412:	2001      	movs	r0, #1
 8001414:	6991      	ldr	r1, [r2, #24]
 8001416:	f421 5100 	bic.w	r1, r1, #8192	; 0x2000
 800141a:	6191      	str	r1, [r2, #24]
 800141c:	6991      	ldr	r1, [r2, #24]
 800141e:	f021 0102 	bic.w	r1, r1, #2
 8001422:	6191      	str	r1, [r2, #24]
 8001424:	681a      	ldr	r2, [r3, #0]
 8001426:	f022 0204 	bic.w	r2, r2, #4
 800142a:	601a      	str	r2, [r3, #0]
 800142c:	681d      	ldr	r5, [r3, #0]
 800142e:	f7ff fc2d 	bl	8000c8c <HAL_Delay>
 8001432:	6823      	ldr	r3, [r4, #0]
 8001434:	4620      	mov	r0, r4
 8001436:	601d      	str	r5, [r3, #0]
 8001438:	f7ff fe60 	bl	80010fc <ETH_FlushTransmitFIFO>
 800143c:	6823      	ldr	r3, [r4, #0]
 800143e:	681a      	ldr	r2, [r3, #0]
 8001440:	f022 0208 	bic.w	r2, r2, #8
 8001444:	601a      	str	r2, [r3, #0]
 8001446:	2001      	movs	r0, #1
 8001448:	681d      	ldr	r5, [r3, #0]
 800144a:	f7ff fc1f 	bl	8000c8c <HAL_Delay>
 800144e:	6823      	ldr	r3, [r4, #0]
 8001450:	601d      	str	r5, [r3, #0]
 8001452:	2310      	movs	r3, #16
 8001454:	f8c4 3084 	str.w	r3, [r4, #132]	; 0x84
 8001458:	2000      	movs	r0, #0
 800145a:	bd38      	pop	{r3, r4, r5, pc}
 800145c:	2001      	movs	r0, #1
 800145e:	e7fc      	b.n	800145a <HAL_ETH_Stop+0x5e>

08001460 <HAL_ETH_Transmit>:
 8001460:	b5f8      	push	{r3, r4, r5, r6, r7, lr}
 8001462:	4604      	mov	r4, r0
 8001464:	4615      	mov	r5, r2
 8001466:	b939      	cbnz	r1, 8001478 <HAL_ETH_Transmit+0x18>
 8001468:	f8d0 3088 	ldr.w	r3, [r0, #136]	; 0x88
 800146c:	f043 0301 	orr.w	r3, r3, #1
 8001470:	f8c4 3088 	str.w	r3, [r4, #136]	; 0x88
 8001474:	2001      	movs	r0, #1
 8001476:	e027      	b.n	80014c8 <HAL_ETH_Transmit+0x68>
 8001478:	f8d0 3084 	ldr.w	r3, [r0, #132]	; 0x84
 800147c:	2b23      	cmp	r3, #35	; 0x23
 800147e:	d1f9      	bne.n	8001474 <HAL_ETH_Transmit+0x14>
 8001480:	2200      	movs	r2, #0
 8001482:	f7ff fccf 	bl	8000e24 <ETH_Prepare_Tx_Descriptors>
 8001486:	b120      	cbz	r0, 8001492 <HAL_ETH_Transmit+0x32>
 8001488:	f8d4 3088 	ldr.w	r3, [r4, #136]	; 0x88
 800148c:	f043 0302 	orr.w	r3, r3, #2
 8001490:	e7ee      	b.n	8001470 <HAL_ETH_Transmit+0x10>
 8001492:	f3bf 8f4f 	dsb	sy
 8001496:	6aa3      	ldr	r3, [r4, #40]	; 0x28
 8001498:	1d9a      	adds	r2, r3, #6
 800149a:	f854 7022 	ldr.w	r7, [r4, r2, lsl #2]
 800149e:	1c5a      	adds	r2, r3, #1
 80014a0:	2a03      	cmp	r2, #3
 80014a2:	bf86      	itte	hi
 80014a4:	3b03      	subhi	r3, #3
 80014a6:	62a3      	strhi	r3, [r4, #40]	; 0x28
 80014a8:	62a2      	strls	r2, [r4, #40]	; 0x28
 80014aa:	6aa2      	ldr	r2, [r4, #40]	; 0x28
 80014ac:	6823      	ldr	r3, [r4, #0]
 80014ae:	3206      	adds	r2, #6
 80014b0:	f503 5380 	add.w	r3, r3, #4096	; 0x1000
 80014b4:	f854 2022 	ldr.w	r2, [r4, r2, lsl #2]
 80014b8:	605a      	str	r2, [r3, #4]
 80014ba:	f7ff fbe1 	bl	8000c80 <HAL_GetTick>
 80014be:	4606      	mov	r6, r0
 80014c0:	683b      	ldr	r3, [r7, #0]
 80014c2:	2b00      	cmp	r3, #0
 80014c4:	db01      	blt.n	80014ca <HAL_ETH_Transmit+0x6a>
 80014c6:	2000      	movs	r0, #0
 80014c8:	bdf8      	pop	{r3, r4, r5, r6, r7, pc}
 80014ca:	6823      	ldr	r3, [r4, #0]
 80014cc:	f503 5380 	add.w	r3, r3, #4096	; 0x1000
 80014d0:	695a      	ldr	r2, [r3, #20]
 80014d2:	0492      	lsls	r2, r2, #18
 80014d4:	d509      	bpl.n	80014ea <HAL_ETH_Transmit+0x8a>
 80014d6:	f8d4 2088 	ldr.w	r2, [r4, #136]	; 0x88
 80014da:	f042 0208 	orr.w	r2, r2, #8
 80014de:	f8c4 2088 	str.w	r2, [r4, #136]	; 0x88
 80014e2:	695b      	ldr	r3, [r3, #20]
 80014e4:	f8c4 308c 	str.w	r3, [r4, #140]	; 0x8c
 80014e8:	e7c4      	b.n	8001474 <HAL_ETH_Transmit+0x14>
 80014ea:	1c6b      	adds	r3, r5, #1
 80014ec:	d0e8      	beq.n	80014c0 <HAL_ETH_Transmit+0x60>
 80014ee:	f7ff fbc7 	bl	8000c80 <HAL_GetTick>
 80014f2:	1b80      	subs	r0, r0, r6
 80014f4:	42a8      	cmp	r0, r5
 80014f6:	d801      	bhi.n	80014fc <HAL_ETH_Transmit+0x9c>
 80014f8:	2d00      	cmp	r5, #0
 80014fa:	d1e1      	bne.n	80014c0 <HAL_ETH_Transmit+0x60>
 80014fc:	f8d4 3088 	ldr.w	r3, [r4, #136]	; 0x88
 8001500:	f043 0304 	orr.w	r3, r3, #4
 8001504:	f8c4 3088 	str.w	r3, [r4, #136]	; 0x88
 8001508:	f04f 5340 	mov.w	r3, #805306368	; 0x30000000
 800150c:	603b      	str	r3, [r7, #0]
 800150e:	e7b1      	b.n	8001474 <HAL_ETH_Transmit+0x14>

08001510 <HAL_ETH_ReadData>:
 8001510:	e92d 4ff0 	stmdb	sp!, {r4, r5, r6, r7, r8, r9, sl, fp, lr}
 8001514:	4604      	mov	r4, r0
 8001516:	b085      	sub	sp, #20
 8001518:	468a      	mov	sl, r1
 800151a:	b949      	cbnz	r1, 8001530 <HAL_ETH_ReadData+0x20>
 800151c:	f8d0 3088 	ldr.w	r3, [r0, #136]	; 0x88
 8001520:	f043 0301 	orr.w	r3, r3, #1
 8001524:	f8c0 3088 	str.w	r3, [r0, #136]	; 0x88
 8001528:	2001      	movs	r0, #1
 800152a:	b005      	add	sp, #20
 800152c:	e8bd 8ff0 	ldmia.w	sp!, {r4, r5, r6, r7, r8, r9, sl, fp, pc}
 8001530:	f8d0 3084 	ldr.w	r3, [r0, #132]	; 0x84
 8001534:	2b23      	cmp	r3, #35	; 0x23
 8001536:	d1f7      	bne.n	8001528 <HAL_ETH_ReadData+0x18>
 8001538:	f8d0 905c 	ldr.w	r9, [r0, #92]	; 0x5c
 800153c:	f109 0312 	add.w	r3, r9, #18
 8001540:	f04f 0800 	mov.w	r8, #0
 8001544:	f850 5023 	ldr.w	r5, [r0, r3, lsl #2]
 8001548:	6ec3      	ldr	r3, [r0, #108]	; 0x6c
 800154a:	f1c3 0304 	rsb	r3, r3, #4
 800154e:	f100 0180 	add.w	r1, r0, #128	; 0x80
 8001552:	9301      	str	r3, [sp, #4]
 8001554:	4646      	mov	r6, r8
 8001556:	307c      	adds	r0, #124	; 0x7c
 8001558:	46c3      	mov	fp, r8
 800155a:	682b      	ldr	r3, [r5, #0]
 800155c:	2b00      	cmp	r3, #0
 800155e:	db05      	blt.n	800156c <HAL_ETH_ReadData+0x5c>
 8001560:	9b01      	ldr	r3, [sp, #4]
 8001562:	429e      	cmp	r6, r3
 8001564:	d002      	beq.n	800156c <HAL_ETH_ReadData+0x5c>
 8001566:	f1b8 0f00 	cmp.w	r8, #0
 800156a:	d011      	beq.n	8001590 <HAL_ETH_ReadData+0x80>
 800156c:	6ee3      	ldr	r3, [r4, #108]	; 0x6c
 800156e:	441e      	add	r6, r3
 8001570:	66e6      	str	r6, [r4, #108]	; 0x6c
 8001572:	b116      	cbz	r6, 800157a <HAL_ETH_ReadData+0x6a>
 8001574:	4620      	mov	r0, r4
 8001576:	f7ff fdd9 	bl	800112c <ETH_UpdateDescriptor>
 800157a:	f8c4 905c 	str.w	r9, [r4, #92]	; 0x5c
 800157e:	f1b8 0f00 	cmp.w	r8, #0
 8001582:	d0d1      	beq.n	8001528 <HAL_ETH_ReadData+0x18>
 8001584:	6fe3      	ldr	r3, [r4, #124]	; 0x7c
 8001586:	f8ca 3000 	str.w	r3, [sl]
 800158a:	2000      	movs	r0, #0
 800158c:	67e0      	str	r0, [r4, #124]	; 0x7c
 800158e:	e7cc      	b.n	800152a <HAL_ETH_ReadData+0x1a>
 8001590:	682b      	ldr	r3, [r5, #0]
 8001592:	05db      	lsls	r3, r3, #23
 8001594:	bf41      	itttt	mi
 8001596:	69ab      	ldrmi	r3, [r5, #24]
 8001598:	67a3      	strmi	r3, [r4, #120]	; 0x78
 800159a:	69eb      	ldrmi	r3, [r5, #28]
 800159c:	6763      	strmi	r3, [r4, #116]	; 0x74
 800159e:	682b      	ldr	r3, [r5, #0]
 80015a0:	059f      	lsls	r7, r3, #22
 80015a2:	d401      	bmi.n	80015a8 <HAL_ETH_ReadData+0x98>
 80015a4:	6fe3      	ldr	r3, [r4, #124]	; 0x7c
 80015a6:	b30b      	cbz	r3, 80015ec <HAL_ETH_ReadData+0xdc>
 80015a8:	682b      	ldr	r3, [r5, #0]
 80015aa:	6967      	ldr	r7, [r4, #20]
 80015ac:	059a      	lsls	r2, r3, #22
 80015ae:	682b      	ldr	r3, [r5, #0]
 80015b0:	bf48      	it	mi
 80015b2:	e9c4 bb18 	strdmi	fp, fp, [r4, #96]	; 0x60
 80015b6:	05db      	lsls	r3, r3, #23
 80015b8:	d507      	bpl.n	80015ca <HAL_ETH_ReadData+0xba>
 80015ba:	682f      	ldr	r7, [r5, #0]
 80015bc:	682b      	ldr	r3, [r5, #0]
 80015be:	6723      	str	r3, [r4, #112]	; 0x70
 80015c0:	f3c7 470d 	ubfx	r7, r7, #16, #14
 80015c4:	3f04      	subs	r7, #4
 80015c6:	f04f 0801 	mov.w	r8, #1
 80015ca:	68aa      	ldr	r2, [r5, #8]
 80015cc:	622a      	str	r2, [r5, #32]
 80015ce:	b2bb      	uxth	r3, r7
 80015d0:	e9cd 0102 	strd	r0, r1, [sp, #8]
 80015d4:	f001 f996 	bl	8002904 <HAL_ETH_RxLinkCallback>
 80015d8:	6e23      	ldr	r3, [r4, #96]	; 0x60
 80015da:	3301      	adds	r3, #1
 80015dc:	6623      	str	r3, [r4, #96]	; 0x60
 80015de:	6e63      	ldr	r3, [r4, #100]	; 0x64
 80015e0:	e9dd 0102 	ldrd	r0, r1, [sp, #8]
 80015e4:	443b      	add	r3, r7
 80015e6:	6663      	str	r3, [r4, #100]	; 0x64
 80015e8:	f8c5 b020 	str.w	fp, [r5, #32]
 80015ec:	f109 0301 	add.w	r3, r9, #1
 80015f0:	2b03      	cmp	r3, #3
 80015f2:	bf88      	it	hi
 80015f4:	f1a9 0303 	subhi.w	r3, r9, #3
 80015f8:	f103 0212 	add.w	r2, r3, #18
 80015fc:	3601      	adds	r6, #1
 80015fe:	f854 5022 	ldr.w	r5, [r4, r2, lsl #2]
 8001602:	4699      	mov	r9, r3
 8001604:	e7a9      	b.n	800155a <HAL_ETH_ReadData+0x4a>

08001606 <HAL_ETH_ReadPHYRegister>:
 8001606:	b5f8      	push	{r3, r4, r5, r6, r7, lr}
 8001608:	4605      	mov	r5, r0
 800160a:	6800      	ldr	r0, [r0, #0]
 800160c:	461e      	mov	r6, r3
 800160e:	6903      	ldr	r3, [r0, #16]
 8001610:	0192      	lsls	r2, r2, #6
 8001612:	f003 031c 	and.w	r3, r3, #28
 8001616:	02cc      	lsls	r4, r1, #11
 8001618:	f402 62f8 	and.w	r2, r2, #1984	; 0x7c0
 800161c:	431a      	orrs	r2, r3
 800161e:	b2a4      	uxth	r4, r4
 8001620:	4314      	orrs	r4, r2
 8001622:	f044 0401 	orr.w	r4, r4, #1
 8001626:	6104      	str	r4, [r0, #16]
 8001628:	f7ff fb2a 	bl	8000c80 <HAL_GetTick>
 800162c:	4607      	mov	r7, r0
 800162e:	f014 0401 	ands.w	r4, r4, #1
 8001632:	d105      	bne.n	8001640 <HAL_ETH_ReadPHYRegister+0x3a>
 8001634:	682b      	ldr	r3, [r5, #0]
 8001636:	695b      	ldr	r3, [r3, #20]
 8001638:	b29b      	uxth	r3, r3
 800163a:	6033      	str	r3, [r6, #0]
 800163c:	4620      	mov	r0, r4
 800163e:	bdf8      	pop	{r3, r4, r5, r6, r7, pc}
 8001640:	f7ff fb1e 	bl	8000c80 <HAL_GetTick>
 8001644:	1bc0      	subs	r0, r0, r7
 8001646:	f5b0 3f80 	cmp.w	r0, #65536	; 0x10000
 800164a:	d202      	bcs.n	8001652 <HAL_ETH_ReadPHYRegister+0x4c>
 800164c:	682b      	ldr	r3, [r5, #0]
 800164e:	691c      	ldr	r4, [r3, #16]
 8001650:	e7ed      	b.n	800162e <HAL_ETH_ReadPHYRegister+0x28>
 8001652:	2001      	movs	r0, #1
 8001654:	e7f3      	b.n	800163e <HAL_ETH_ReadPHYRegister+0x38>

08001656 <HAL_ETH_WritePHYRegister>:
 8001656:	b570      	push	{r4, r5, r6, lr}
 8001658:	4605      	mov	r5, r0
 800165a:	6800      	ldr	r0, [r0, #0]
 800165c:	6904      	ldr	r4, [r0, #16]
 800165e:	0192      	lsls	r2, r2, #6
 8001660:	f004 041c 	and.w	r4, r4, #28
 8001664:	f402 62f8 	and.w	r2, r2, #1984	; 0x7c0
 8001668:	4322      	orrs	r2, r4
 800166a:	02cc      	lsls	r4, r1, #11
 800166c:	b2a4      	uxth	r4, r4
 800166e:	4314      	orrs	r4, r2
 8001670:	b29b      	uxth	r3, r3
 8001672:	f044 0403 	orr.w	r4, r4, #3
 8001676:	6143      	str	r3, [r0, #20]
 8001678:	6104      	str	r4, [r0, #16]
 800167a:	f7ff fb01 	bl	8000c80 <HAL_GetTick>
 800167e:	4606      	mov	r6, r0
 8001680:	f014 0401 	ands.w	r4, r4, #1
 8001684:	d101      	bne.n	800168a <HAL_ETH_WritePHYRegister+0x34>
 8001686:	4620      	mov	r0, r4
 8001688:	bd70      	pop	{r4, r5, r6, pc}
 800168a:	f7ff faf9 	bl	8000c80 <HAL_GetTick>
 800168e:	1b80      	subs	r0, r0, r6
 8001690:	f5b0 3f80 	cmp.w	r0, #65536	; 0x10000
 8001694:	d202      	bcs.n	800169c <HAL_ETH_WritePHYRegister+0x46>
 8001696:	682b      	ldr	r3, [r5, #0]
 8001698:	691c      	ldr	r4, [r3, #16]
 800169a:	e7f1      	b.n	8001680 <HAL_ETH_WritePHYRegister+0x2a>
 800169c:	2001      	movs	r0, #1
 800169e:	e7f3      	b.n	8001688 <HAL_ETH_WritePHYRegister+0x32>

080016a0 <HAL_ETH_GetMACConfig>:
 80016a0:	2900      	cmp	r1, #0
 80016a2:	d05d      	beq.n	8001760 <HAL_ETH_GetMACConfig+0xc0>
 80016a4:	6803      	ldr	r3, [r0, #0]
 80016a6:	681a      	ldr	r2, [r3, #0]
 80016a8:	f3c2 1200 	ubfx	r2, r2, #4, #1
 80016ac:	f881 2028 	strb.w	r2, [r1, #40]	; 0x28
 80016b0:	681a      	ldr	r2, [r3, #0]
 80016b2:	f002 0260 	and.w	r2, r2, #96	; 0x60
 80016b6:	624a      	str	r2, [r1, #36]	; 0x24
 80016b8:	681a      	ldr	r2, [r3, #0]
 80016ba:	f482 7200 	eor.w	r2, r2, #512	; 0x200
 80016be:	f3c2 2240 	ubfx	r2, r2, #9, #1
 80016c2:	f881 2020 	strb.w	r2, [r1, #32]
 80016c6:	681a      	ldr	r2, [r3, #0]
 80016c8:	f3c2 4200 	ubfx	r2, r2, #16, #1
 80016cc:	77ca      	strb	r2, [r1, #31]
 80016ce:	681a      	ldr	r2, [r3, #0]
 80016d0:	f482 5200 	eor.w	r2, r2, #8192	; 0x2000
 80016d4:	f3c2 3240 	ubfx	r2, r2, #13, #1
 80016d8:	778a      	strb	r2, [r1, #30]
 80016da:	681a      	ldr	r2, [r3, #0]
 80016dc:	f3c2 3200 	ubfx	r2, r2, #12, #1
 80016e0:	770a      	strb	r2, [r1, #28]
 80016e2:	681a      	ldr	r2, [r3, #0]
 80016e4:	f402 6200 	and.w	r2, r2, #2048	; 0x800
 80016e8:	618a      	str	r2, [r1, #24]
 80016ea:	681a      	ldr	r2, [r3, #0]
 80016ec:	f402 4280 	and.w	r2, r2, #16384	; 0x4000
 80016f0:	614a      	str	r2, [r1, #20]
 80016f2:	681a      	ldr	r2, [r3, #0]
 80016f4:	f482 0280 	eor.w	r2, r2, #4194304	; 0x400000
 80016f8:	f3c2 5280 	ubfx	r2, r2, #22, #1
 80016fc:	744a      	strb	r2, [r1, #17]
 80016fe:	681a      	ldr	r2, [r3, #0]
 8001700:	f482 0200 	eor.w	r2, r2, #8388608	; 0x800000
 8001704:	f3c2 52c0 	ubfx	r2, r2, #23, #1
 8001708:	740a      	strb	r2, [r1, #16]
 800170a:	681a      	ldr	r2, [r3, #0]
 800170c:	f3c2 12c0 	ubfx	r2, r2, #7, #1
 8001710:	73ca      	strb	r2, [r1, #15]
 8001712:	681a      	ldr	r2, [r3, #0]
 8001714:	f402 2260 	and.w	r2, r2, #917504	; 0xe0000
 8001718:	608a      	str	r2, [r1, #8]
 800171a:	681a      	ldr	r2, [r3, #0]
 800171c:	f3c2 2280 	ubfx	r2, r2, #10, #1
 8001720:	710a      	strb	r2, [r1, #4]
 8001722:	699a      	ldr	r2, [r3, #24]
 8001724:	f3c2 0240 	ubfx	r2, r2, #1, #1
 8001728:	f881 2054 	strb.w	r2, [r1, #84]	; 0x54
 800172c:	699a      	ldr	r2, [r3, #24]
 800172e:	f082 0280 	eor.w	r2, r2, #128	; 0x80
 8001732:	f3c2 12c0 	ubfx	r2, r2, #7, #1
 8001736:	f881 204c 	strb.w	r2, [r1, #76]	; 0x4c
 800173a:	699a      	ldr	r2, [r3, #24]
 800173c:	f002 0230 	and.w	r2, r2, #48	; 0x30
 8001740:	650a      	str	r2, [r1, #80]	; 0x50
 8001742:	699a      	ldr	r2, [r3, #24]
 8001744:	0c12      	lsrs	r2, r2, #16
 8001746:	648a      	str	r2, [r1, #72]	; 0x48
 8001748:	699a      	ldr	r2, [r3, #24]
 800174a:	f3c2 0280 	ubfx	r2, r2, #2, #1
 800174e:	f881 2056 	strb.w	r2, [r1, #86]	; 0x56
 8001752:	699b      	ldr	r3, [r3, #24]
 8001754:	f3c3 03c0 	ubfx	r3, r3, #3, #1
 8001758:	f881 3055 	strb.w	r3, [r1, #85]	; 0x55
 800175c:	2000      	movs	r0, #0
 800175e:	4770      	bx	lr
 8001760:	2001      	movs	r0, #1
 8001762:	4770      	bx	lr

08001764 <HAL_ETH_SetMACConfig>:
 8001764:	b508      	push	{r3, lr}
 8001766:	b139      	cbz	r1, 8001778 <HAL_ETH_SetMACConfig+0x14>
 8001768:	f8d0 3084 	ldr.w	r3, [r0, #132]	; 0x84
 800176c:	2b10      	cmp	r3, #16
 800176e:	d103      	bne.n	8001778 <HAL_ETH_SetMACConfig+0x14>
 8001770:	f7ff fc00 	bl	8000f74 <ETH_SetMACConfig>
 8001774:	2000      	movs	r0, #0
 8001776:	bd08      	pop	{r3, pc}
 8001778:	2001      	movs	r0, #1
 800177a:	e7fc      	b.n	8001776 <HAL_ETH_SetMACConfig+0x12>

0800177c <HAL_ETH_SetMDIOClockRange>:
 800177c:	b538      	push	{r3, r4, r5, lr}
 800177e:	6803      	ldr	r3, [r0, #0]
 8001780:	4605      	mov	r5, r0
 8001782:	691c      	ldr	r4, [r3, #16]
 8001784:	f000 fb82 	bl	8001e8c <HAL_RCC_GetHCLKFreq>
 8001788:	4b11      	ldr	r3, [pc, #68]	; (80017d0 <HAL_ETH_SetMDIOClockRange+0x54>)
 800178a:	4a12      	ldr	r2, [pc, #72]	; (80017d4 <HAL_ETH_SetMDIOClockRange+0x58>)
 800178c:	4403      	add	r3, r0
 800178e:	4293      	cmp	r3, r2
 8001790:	f024 041c 	bic.w	r4, r4, #28
 8001794:	d204      	bcs.n	80017a0 <HAL_ETH_SetMDIOClockRange+0x24>
 8001796:	f044 0408 	orr.w	r4, r4, #8
 800179a:	682b      	ldr	r3, [r5, #0]
 800179c:	611c      	str	r4, [r3, #16]
 800179e:	bd38      	pop	{r3, r4, r5, pc}
 80017a0:	4b0d      	ldr	r3, [pc, #52]	; (80017d8 <HAL_ETH_SetMDIOClockRange+0x5c>)
 80017a2:	4a0e      	ldr	r2, [pc, #56]	; (80017dc <HAL_ETH_SetMDIOClockRange+0x60>)
 80017a4:	4403      	add	r3, r0
 80017a6:	4293      	cmp	r3, r2
 80017a8:	d802      	bhi.n	80017b0 <HAL_ETH_SetMDIOClockRange+0x34>
 80017aa:	f044 040c 	orr.w	r4, r4, #12
 80017ae:	e7f4      	b.n	800179a <HAL_ETH_SetMDIOClockRange+0x1e>
 80017b0:	4b0b      	ldr	r3, [pc, #44]	; (80017e0 <HAL_ETH_SetMDIOClockRange+0x64>)
 80017b2:	4a0c      	ldr	r2, [pc, #48]	; (80017e4 <HAL_ETH_SetMDIOClockRange+0x68>)
 80017b4:	4403      	add	r3, r0
 80017b6:	4293      	cmp	r3, r2
 80017b8:	d3ef      	bcc.n	800179a <HAL_ETH_SetMDIOClockRange+0x1e>
 80017ba:	4b0b      	ldr	r3, [pc, #44]	; (80017e8 <HAL_ETH_SetMDIOClockRange+0x6c>)
 80017bc:	4a0b      	ldr	r2, [pc, #44]	; (80017ec <HAL_ETH_SetMDIOClockRange+0x70>)
 80017be:	4403      	add	r3, r0
 80017c0:	4293      	cmp	r3, r2
 80017c2:	bf94      	ite	ls
 80017c4:	f044 0404 	orrls.w	r4, r4, #4
 80017c8:	f044 0410 	orrhi.w	r4, r4, #16
 80017cc:	e7e5      	b.n	800179a <HAL_ETH_SetMDIOClockRange+0x1e>
 80017ce:	bf00      	nop
 80017d0:	feced300 	.word	0xfeced300
 80017d4:	00e4e1c0 	.word	0x00e4e1c0
 80017d8:	fde9f140 	.word	0xfde9f140
 80017dc:	017d783f 	.word	0x017d783f
 80017e0:	fc6c7900 	.word	0xfc6c7900
 80017e4:	02625a00 	.word	0x02625a00
 80017e8:	fa0a1f00 	.word	0xfa0a1f00
 80017ec:	02faf07f 	.word	0x02faf07f

080017f0 <HAL_GPIO_Init>:
 80017f0:	e92d 4ff7 	stmdb	sp!, {r0, r1, r2, r4, r5, r6, r7, r8, r9, sl, fp, lr}
 80017f4:	f8df 91a8 	ldr.w	r9, [pc, #424]	; 80019a0 <HAL_GPIO_Init+0x1b0>
 80017f8:	4a67      	ldr	r2, [pc, #412]	; (8001998 <HAL_GPIO_Init+0x1a8>)
 80017fa:	2300      	movs	r3, #0
 80017fc:	680d      	ldr	r5, [r1, #0]
 80017fe:	2401      	movs	r4, #1
 8001800:	409c      	lsls	r4, r3
 8001802:	ea04 0c05 	and.w	ip, r4, r5
 8001806:	43ac      	bics	r4, r5
 8001808:	f040 80b1 	bne.w	800196e <HAL_GPIO_Init+0x17e>
 800180c:	684d      	ldr	r5, [r1, #4]
 800180e:	f005 0403 	and.w	r4, r5, #3
 8001812:	ea4f 0843 	mov.w	r8, r3, lsl #1
 8001816:	2603      	movs	r6, #3
 8001818:	1e67      	subs	r7, r4, #1
 800181a:	fa06 f608 	lsl.w	r6, r6, r8
 800181e:	2f01      	cmp	r7, #1
 8001820:	ea6f 0606 	mvn.w	r6, r6
 8001824:	d834      	bhi.n	8001890 <HAL_GPIO_Init+0xa0>
 8001826:	6887      	ldr	r7, [r0, #8]
 8001828:	ea07 0e06 	and.w	lr, r7, r6
 800182c:	68cf      	ldr	r7, [r1, #12]
 800182e:	fa07 f708 	lsl.w	r7, r7, r8
 8001832:	ea47 070e 	orr.w	r7, r7, lr
 8001836:	6087      	str	r7, [r0, #8]
 8001838:	6847      	ldr	r7, [r0, #4]
 800183a:	ea27 0e0c 	bic.w	lr, r7, ip
 800183e:	f3c5 1700 	ubfx	r7, r5, #4, #1
 8001842:	409f      	lsls	r7, r3
 8001844:	ea47 070e 	orr.w	r7, r7, lr
 8001848:	6047      	str	r7, [r0, #4]
 800184a:	68c7      	ldr	r7, [r0, #12]
 800184c:	ea07 0e06 	and.w	lr, r7, r6
 8001850:	688f      	ldr	r7, [r1, #8]
 8001852:	fa07 f708 	lsl.w	r7, r7, r8
 8001856:	ea47 070e 	orr.w	r7, r7, lr
 800185a:	2c02      	cmp	r4, #2
 800185c:	60c7      	str	r7, [r0, #12]
 800185e:	d119      	bne.n	8001894 <HAL_GPIO_Init+0xa4>
 8001860:	ea4f 0ad3 	mov.w	sl, r3, lsr #3
 8001864:	eb00 0a8a 	add.w	sl, r0, sl, lsl #2
 8001868:	f003 0b07 	and.w	fp, r3, #7
 800186c:	f8da 7020 	ldr.w	r7, [sl, #32]
 8001870:	ea4f 0b8b 	mov.w	fp, fp, lsl #2
 8001874:	f04f 0e0f 	mov.w	lr, #15
 8001878:	fa0e fe0b 	lsl.w	lr, lr, fp
 800187c:	ea27 0e0e 	bic.w	lr, r7, lr
 8001880:	690f      	ldr	r7, [r1, #16]
 8001882:	fa07 f70b 	lsl.w	r7, r7, fp
 8001886:	ea47 070e 	orr.w	r7, r7, lr
 800188a:	f8ca 7020 	str.w	r7, [sl, #32]
 800188e:	e001      	b.n	8001894 <HAL_GPIO_Init+0xa4>
 8001890:	2c03      	cmp	r4, #3
 8001892:	d1da      	bne.n	800184a <HAL_GPIO_Init+0x5a>
 8001894:	6807      	ldr	r7, [r0, #0]
 8001896:	fa04 f408 	lsl.w	r4, r4, r8
 800189a:	4037      	ands	r7, r6
 800189c:	433c      	orrs	r4, r7
 800189e:	f415 3f40 	tst.w	r5, #196608	; 0x30000
 80018a2:	6004      	str	r4, [r0, #0]
 80018a4:	d063      	beq.n	800196e <HAL_GPIO_Init+0x17e>
 80018a6:	f04f 0a00 	mov.w	sl, #0
 80018aa:	f8cd a004 	str.w	sl, [sp, #4]
 80018ae:	f8d9 6044 	ldr.w	r6, [r9, #68]	; 0x44
 80018b2:	4c3a      	ldr	r4, [pc, #232]	; (800199c <HAL_GPIO_Init+0x1ac>)
 80018b4:	f446 4680 	orr.w	r6, r6, #16384	; 0x4000
 80018b8:	f8c9 6044 	str.w	r6, [r9, #68]	; 0x44
 80018bc:	f8d9 6044 	ldr.w	r6, [r9, #68]	; 0x44
 80018c0:	f406 4680 	and.w	r6, r6, #16384	; 0x4000
 80018c4:	9601      	str	r6, [sp, #4]
 80018c6:	9e01      	ldr	r6, [sp, #4]
 80018c8:	f023 0603 	bic.w	r6, r3, #3
 80018cc:	f106 4680 	add.w	r6, r6, #1073741824	; 0x40000000
 80018d0:	f506 369c 	add.w	r6, r6, #79872	; 0x13800
 80018d4:	f003 0e03 	and.w	lr, r3, #3
 80018d8:	f8d6 8008 	ldr.w	r8, [r6, #8]
 80018dc:	ea4f 0e8e 	mov.w	lr, lr, lsl #2
 80018e0:	270f      	movs	r7, #15
 80018e2:	fa07 f70e 	lsl.w	r7, r7, lr
 80018e6:	42a0      	cmp	r0, r4
 80018e8:	ea28 0707 	bic.w	r7, r8, r7
 80018ec:	d046      	beq.n	800197c <HAL_GPIO_Init+0x18c>
 80018ee:	f504 6480 	add.w	r4, r4, #1024	; 0x400
 80018f2:	42a0      	cmp	r0, r4
 80018f4:	d044      	beq.n	8001980 <HAL_GPIO_Init+0x190>
 80018f6:	f504 6480 	add.w	r4, r4, #1024	; 0x400
 80018fa:	42a0      	cmp	r0, r4
 80018fc:	d042      	beq.n	8001984 <HAL_GPIO_Init+0x194>
 80018fe:	f504 6480 	add.w	r4, r4, #1024	; 0x400
 8001902:	42a0      	cmp	r0, r4
 8001904:	d040      	beq.n	8001988 <HAL_GPIO_Init+0x198>
 8001906:	f504 6480 	add.w	r4, r4, #1024	; 0x400
 800190a:	42a0      	cmp	r0, r4
 800190c:	d03e      	beq.n	800198c <HAL_GPIO_Init+0x19c>
 800190e:	f504 6480 	add.w	r4, r4, #1024	; 0x400
 8001912:	42a0      	cmp	r0, r4
 8001914:	d03c      	beq.n	8001990 <HAL_GPIO_Init+0x1a0>
 8001916:	f504 6480 	add.w	r4, r4, #1024	; 0x400
 800191a:	42a0      	cmp	r0, r4
 800191c:	d03a      	beq.n	8001994 <HAL_GPIO_Init+0x1a4>
 800191e:	f504 6480 	add.w	r4, r4, #1024	; 0x400
 8001922:	42a0      	cmp	r0, r4
 8001924:	bf0c      	ite	eq
 8001926:	2407      	moveq	r4, #7
 8001928:	2408      	movne	r4, #8
 800192a:	fa04 f40e 	lsl.w	r4, r4, lr
 800192e:	433c      	orrs	r4, r7
 8001930:	60b4      	str	r4, [r6, #8]
 8001932:	6894      	ldr	r4, [r2, #8]
 8001934:	ea6f 060c 	mvn.w	r6, ip
 8001938:	02ef      	lsls	r7, r5, #11
 800193a:	bf54      	ite	pl
 800193c:	4034      	andpl	r4, r6
 800193e:	ea4c 0404 	orrmi.w	r4, ip, r4
 8001942:	6094      	str	r4, [r2, #8]
 8001944:	68d4      	ldr	r4, [r2, #12]
 8001946:	02af      	lsls	r7, r5, #10
 8001948:	bf54      	ite	pl
 800194a:	4034      	andpl	r4, r6
 800194c:	ea4c 0404 	orrmi.w	r4, ip, r4
 8001950:	60d4      	str	r4, [r2, #12]
 8001952:	6854      	ldr	r4, [r2, #4]
 8001954:	03af      	lsls	r7, r5, #14
 8001956:	bf54      	ite	pl
 8001958:	4034      	andpl	r4, r6
 800195a:	ea4c 0404 	orrmi.w	r4, ip, r4
 800195e:	6054      	str	r4, [r2, #4]
 8001960:	6814      	ldr	r4, [r2, #0]
 8001962:	03ed      	lsls	r5, r5, #15
 8001964:	bf54      	ite	pl
 8001966:	4034      	andpl	r4, r6
 8001968:	ea4c 0404 	orrmi.w	r4, ip, r4
 800196c:	6014      	str	r4, [r2, #0]
 800196e:	3301      	adds	r3, #1
 8001970:	2b10      	cmp	r3, #16
 8001972:	f47f af43 	bne.w	80017fc <HAL_GPIO_Init+0xc>
 8001976:	b003      	add	sp, #12
 8001978:	e8bd 8ff0 	ldmia.w	sp!, {r4, r5, r6, r7, r8, r9, sl, fp, pc}
 800197c:	4654      	mov	r4, sl
 800197e:	e7d4      	b.n	800192a <HAL_GPIO_Init+0x13a>
 8001980:	2401      	movs	r4, #1
 8001982:	e7d2      	b.n	800192a <HAL_GPIO_Init+0x13a>
 8001984:	2402      	movs	r4, #2
 8001986:	e7d0      	b.n	800192a <HAL_GPIO_Init+0x13a>
 8001988:	2403      	movs	r4, #3
 800198a:	e7ce      	b.n	800192a <HAL_GPIO_Init+0x13a>
 800198c:	2404      	movs	r4, #4
 800198e:	e7cc      	b.n	800192a <HAL_GPIO_Init+0x13a>
 8001990:	2405      	movs	r4, #5
 8001992:	e7ca      	b.n	800192a <HAL_GPIO_Init+0x13a>
 8001994:	2406      	movs	r4, #6
 8001996:	e7c8      	b.n	800192a <HAL_GPIO_Init+0x13a>
 8001998:	40013c00 	.word	0x40013c00
 800199c:	40020000 	.word	0x40020000
 80019a0:	40023800 	.word	0x40023800

080019a4 <HAL_RCC_OscConfig>:
 80019a4:	e92d 41f3 	stmdb	sp!, {r0, r1, r4, r5, r6, r7, r8, lr}
 80019a8:	4604      	mov	r4, r0
 80019aa:	b340      	cbz	r0, 80019fe <HAL_RCC_OscConfig+0x5a>
 80019ac:	6803      	ldr	r3, [r0, #0]
 80019ae:	07dd      	lsls	r5, r3, #31
 80019b0:	d410      	bmi.n	80019d4 <HAL_RCC_OscConfig+0x30>
 80019b2:	6823      	ldr	r3, [r4, #0]
 80019b4:	0798      	lsls	r0, r3, #30
 80019b6:	d45b      	bmi.n	8001a70 <HAL_RCC_OscConfig+0xcc>
 80019b8:	6823      	ldr	r3, [r4, #0]
 80019ba:	071a      	lsls	r2, r3, #28
 80019bc:	f100 809d 	bmi.w	8001afa <HAL_RCC_OscConfig+0x156>
 80019c0:	6823      	ldr	r3, [r4, #0]
 80019c2:	075b      	lsls	r3, r3, #29
 80019c4:	f100 80bd 	bmi.w	8001b42 <HAL_RCC_OscConfig+0x19e>
 80019c8:	69a0      	ldr	r0, [r4, #24]
 80019ca:	2800      	cmp	r0, #0
 80019cc:	f040 8124 	bne.w	8001c18 <HAL_RCC_OscConfig+0x274>
 80019d0:	2000      	movs	r0, #0
 80019d2:	e02c      	b.n	8001a2e <HAL_RCC_OscConfig+0x8a>
 80019d4:	4b8d      	ldr	r3, [pc, #564]	; (8001c0c <HAL_RCC_OscConfig+0x268>)
 80019d6:	689a      	ldr	r2, [r3, #8]
 80019d8:	f002 020c 	and.w	r2, r2, #12
 80019dc:	2a04      	cmp	r2, #4
 80019de:	d007      	beq.n	80019f0 <HAL_RCC_OscConfig+0x4c>
 80019e0:	689a      	ldr	r2, [r3, #8]
 80019e2:	f002 020c 	and.w	r2, r2, #12
 80019e6:	2a08      	cmp	r2, #8
 80019e8:	d10b      	bne.n	8001a02 <HAL_RCC_OscConfig+0x5e>
 80019ea:	685b      	ldr	r3, [r3, #4]
 80019ec:	0259      	lsls	r1, r3, #9
 80019ee:	d508      	bpl.n	8001a02 <HAL_RCC_OscConfig+0x5e>
 80019f0:	4b86      	ldr	r3, [pc, #536]	; (8001c0c <HAL_RCC_OscConfig+0x268>)
 80019f2:	681b      	ldr	r3, [r3, #0]
 80019f4:	039a      	lsls	r2, r3, #14
 80019f6:	d5dc      	bpl.n	80019b2 <HAL_RCC_OscConfig+0xe>
 80019f8:	6863      	ldr	r3, [r4, #4]
 80019fa:	2b00      	cmp	r3, #0
 80019fc:	d1d9      	bne.n	80019b2 <HAL_RCC_OscConfig+0xe>
 80019fe:	2001      	movs	r0, #1
 8001a00:	e015      	b.n	8001a2e <HAL_RCC_OscConfig+0x8a>
 8001a02:	6863      	ldr	r3, [r4, #4]
 8001a04:	4d81      	ldr	r5, [pc, #516]	; (8001c0c <HAL_RCC_OscConfig+0x268>)
 8001a06:	f5b3 3f80 	cmp.w	r3, #65536	; 0x10000
 8001a0a:	d113      	bne.n	8001a34 <HAL_RCC_OscConfig+0x90>
 8001a0c:	682b      	ldr	r3, [r5, #0]
 8001a0e:	f443 3380 	orr.w	r3, r3, #65536	; 0x10000
 8001a12:	602b      	str	r3, [r5, #0]
 8001a14:	f7ff f934 	bl	8000c80 <HAL_GetTick>
 8001a18:	4e7c      	ldr	r6, [pc, #496]	; (8001c0c <HAL_RCC_OscConfig+0x268>)
 8001a1a:	4605      	mov	r5, r0
 8001a1c:	6833      	ldr	r3, [r6, #0]
 8001a1e:	039b      	lsls	r3, r3, #14
 8001a20:	d4c7      	bmi.n	80019b2 <HAL_RCC_OscConfig+0xe>
 8001a22:	f7ff f92d 	bl	8000c80 <HAL_GetTick>
 8001a26:	1b40      	subs	r0, r0, r5
 8001a28:	2864      	cmp	r0, #100	; 0x64
 8001a2a:	d9f7      	bls.n	8001a1c <HAL_RCC_OscConfig+0x78>
 8001a2c:	2003      	movs	r0, #3
 8001a2e:	b002      	add	sp, #8
 8001a30:	e8bd 81f0 	ldmia.w	sp!, {r4, r5, r6, r7, r8, pc}
 8001a34:	f5b3 2fa0 	cmp.w	r3, #327680	; 0x50000
 8001a38:	d104      	bne.n	8001a44 <HAL_RCC_OscConfig+0xa0>
 8001a3a:	682b      	ldr	r3, [r5, #0]
 8001a3c:	f443 2380 	orr.w	r3, r3, #262144	; 0x40000
 8001a40:	602b      	str	r3, [r5, #0]
 8001a42:	e7e3      	b.n	8001a0c <HAL_RCC_OscConfig+0x68>
 8001a44:	682a      	ldr	r2, [r5, #0]
 8001a46:	f422 3280 	bic.w	r2, r2, #65536	; 0x10000
 8001a4a:	602a      	str	r2, [r5, #0]
 8001a4c:	682a      	ldr	r2, [r5, #0]
 8001a4e:	f422 2280 	bic.w	r2, r2, #262144	; 0x40000
 8001a52:	602a      	str	r2, [r5, #0]
 8001a54:	2b00      	cmp	r3, #0
 8001a56:	d1dd      	bne.n	8001a14 <HAL_RCC_OscConfig+0x70>
 8001a58:	f7ff f912 	bl	8000c80 <HAL_GetTick>
 8001a5c:	4606      	mov	r6, r0
 8001a5e:	682b      	ldr	r3, [r5, #0]
 8001a60:	039f      	lsls	r7, r3, #14
 8001a62:	d5a6      	bpl.n	80019b2 <HAL_RCC_OscConfig+0xe>
 8001a64:	f7ff f90c 	bl	8000c80 <HAL_GetTick>
 8001a68:	1b80      	subs	r0, r0, r6
 8001a6a:	2864      	cmp	r0, #100	; 0x64
 8001a6c:	d9f7      	bls.n	8001a5e <HAL_RCC_OscConfig+0xba>
 8001a6e:	e7dd      	b.n	8001a2c <HAL_RCC_OscConfig+0x88>
 8001a70:	4b66      	ldr	r3, [pc, #408]	; (8001c0c <HAL_RCC_OscConfig+0x268>)
 8001a72:	689a      	ldr	r2, [r3, #8]
 8001a74:	f012 0f0c 	tst.w	r2, #12
 8001a78:	d007      	beq.n	8001a8a <HAL_RCC_OscConfig+0xe6>
 8001a7a:	689a      	ldr	r2, [r3, #8]
 8001a7c:	f002 020c 	and.w	r2, r2, #12
 8001a80:	2a08      	cmp	r2, #8
 8001a82:	d111      	bne.n	8001aa8 <HAL_RCC_OscConfig+0x104>
 8001a84:	685b      	ldr	r3, [r3, #4]
 8001a86:	025e      	lsls	r6, r3, #9
 8001a88:	d40e      	bmi.n	8001aa8 <HAL_RCC_OscConfig+0x104>
 8001a8a:	4a60      	ldr	r2, [pc, #384]	; (8001c0c <HAL_RCC_OscConfig+0x268>)
 8001a8c:	6813      	ldr	r3, [r2, #0]
 8001a8e:	079d      	lsls	r5, r3, #30
 8001a90:	d502      	bpl.n	8001a98 <HAL_RCC_OscConfig+0xf4>
 8001a92:	68e3      	ldr	r3, [r4, #12]
 8001a94:	2b01      	cmp	r3, #1
 8001a96:	d1b2      	bne.n	80019fe <HAL_RCC_OscConfig+0x5a>
 8001a98:	6813      	ldr	r3, [r2, #0]
 8001a9a:	6921      	ldr	r1, [r4, #16]
 8001a9c:	f023 03f8 	bic.w	r3, r3, #248	; 0xf8
 8001aa0:	ea43 03c1 	orr.w	r3, r3, r1, lsl #3
 8001aa4:	6013      	str	r3, [r2, #0]
 8001aa6:	e787      	b.n	80019b8 <HAL_RCC_OscConfig+0x14>
 8001aa8:	68e2      	ldr	r2, [r4, #12]
 8001aaa:	4b59      	ldr	r3, [pc, #356]	; (8001c10 <HAL_RCC_OscConfig+0x26c>)
 8001aac:	b1b2      	cbz	r2, 8001adc <HAL_RCC_OscConfig+0x138>
 8001aae:	2201      	movs	r2, #1
 8001ab0:	601a      	str	r2, [r3, #0]
 8001ab2:	f7ff f8e5 	bl	8000c80 <HAL_GetTick>
 8001ab6:	4d55      	ldr	r5, [pc, #340]	; (8001c0c <HAL_RCC_OscConfig+0x268>)
 8001ab8:	4606      	mov	r6, r0
 8001aba:	682b      	ldr	r3, [r5, #0]
 8001abc:	0798      	lsls	r0, r3, #30
 8001abe:	d507      	bpl.n	8001ad0 <HAL_RCC_OscConfig+0x12c>
 8001ac0:	682b      	ldr	r3, [r5, #0]
 8001ac2:	6922      	ldr	r2, [r4, #16]
 8001ac4:	f023 03f8 	bic.w	r3, r3, #248	; 0xf8
 8001ac8:	ea43 03c2 	orr.w	r3, r3, r2, lsl #3
 8001acc:	602b      	str	r3, [r5, #0]
 8001ace:	e773      	b.n	80019b8 <HAL_RCC_OscConfig+0x14>
 8001ad0:	f7ff f8d6 	bl	8000c80 <HAL_GetTick>
 8001ad4:	1b80      	subs	r0, r0, r6
 8001ad6:	2802      	cmp	r0, #2
 8001ad8:	d9ef      	bls.n	8001aba <HAL_RCC_OscConfig+0x116>
 8001ada:	e7a7      	b.n	8001a2c <HAL_RCC_OscConfig+0x88>
 8001adc:	601a      	str	r2, [r3, #0]
 8001ade:	f7ff f8cf 	bl	8000c80 <HAL_GetTick>
 8001ae2:	4e4a      	ldr	r6, [pc, #296]	; (8001c0c <HAL_RCC_OscConfig+0x268>)
 8001ae4:	4605      	mov	r5, r0
 8001ae6:	6833      	ldr	r3, [r6, #0]
 8001ae8:	0799      	lsls	r1, r3, #30
 8001aea:	f57f af65 	bpl.w	80019b8 <HAL_RCC_OscConfig+0x14>
 8001aee:	f7ff f8c7 	bl	8000c80 <HAL_GetTick>
 8001af2:	1b40      	subs	r0, r0, r5
 8001af4:	2802      	cmp	r0, #2
 8001af6:	d9f6      	bls.n	8001ae6 <HAL_RCC_OscConfig+0x142>
 8001af8:	e798      	b.n	8001a2c <HAL_RCC_OscConfig+0x88>
 8001afa:	6962      	ldr	r2, [r4, #20]
 8001afc:	4b44      	ldr	r3, [pc, #272]	; (8001c10 <HAL_RCC_OscConfig+0x26c>)
 8001afe:	b182      	cbz	r2, 8001b22 <HAL_RCC_OscConfig+0x17e>
 8001b00:	2201      	movs	r2, #1
 8001b02:	f8c3 2e80 	str.w	r2, [r3, #3712]	; 0xe80
 8001b06:	f7ff f8bb 	bl	8000c80 <HAL_GetTick>
 8001b0a:	4e40      	ldr	r6, [pc, #256]	; (8001c0c <HAL_RCC_OscConfig+0x268>)
 8001b0c:	4605      	mov	r5, r0
 8001b0e:	6f73      	ldr	r3, [r6, #116]	; 0x74
 8001b10:	079f      	lsls	r7, r3, #30
 8001b12:	f53f af55 	bmi.w	80019c0 <HAL_RCC_OscConfig+0x1c>
 8001b16:	f7ff f8b3 	bl	8000c80 <HAL_GetTick>
 8001b1a:	1b40      	subs	r0, r0, r5
 8001b1c:	2802      	cmp	r0, #2
 8001b1e:	d9f6      	bls.n	8001b0e <HAL_RCC_OscConfig+0x16a>
 8001b20:	e784      	b.n	8001a2c <HAL_RCC_OscConfig+0x88>
 8001b22:	f8c3 2e80 	str.w	r2, [r3, #3712]	; 0xe80
 8001b26:	f7ff f8ab 	bl	8000c80 <HAL_GetTick>
 8001b2a:	4e38      	ldr	r6, [pc, #224]	; (8001c0c <HAL_RCC_OscConfig+0x268>)
 8001b2c:	4605      	mov	r5, r0
 8001b2e:	6f73      	ldr	r3, [r6, #116]	; 0x74
 8001b30:	0798      	lsls	r0, r3, #30
 8001b32:	f57f af45 	bpl.w	80019c0 <HAL_RCC_OscConfig+0x1c>
 8001b36:	f7ff f8a3 	bl	8000c80 <HAL_GetTick>
 8001b3a:	1b40      	subs	r0, r0, r5
 8001b3c:	2802      	cmp	r0, #2
 8001b3e:	d9f6      	bls.n	8001b2e <HAL_RCC_OscConfig+0x18a>
 8001b40:	e774      	b.n	8001a2c <HAL_RCC_OscConfig+0x88>
 8001b42:	4b32      	ldr	r3, [pc, #200]	; (8001c0c <HAL_RCC_OscConfig+0x268>)
 8001b44:	6c1a      	ldr	r2, [r3, #64]	; 0x40
 8001b46:	f012 5280 	ands.w	r2, r2, #268435456	; 0x10000000
 8001b4a:	d128      	bne.n	8001b9e <HAL_RCC_OscConfig+0x1fa>
 8001b4c:	9201      	str	r2, [sp, #4]
 8001b4e:	6c1a      	ldr	r2, [r3, #64]	; 0x40
 8001b50:	f042 5280 	orr.w	r2, r2, #268435456	; 0x10000000
 8001b54:	641a      	str	r2, [r3, #64]	; 0x40
 8001b56:	6c1b      	ldr	r3, [r3, #64]	; 0x40
 8001b58:	f003 5380 	and.w	r3, r3, #268435456	; 0x10000000
 8001b5c:	9301      	str	r3, [sp, #4]
 8001b5e:	9b01      	ldr	r3, [sp, #4]
 8001b60:	2701      	movs	r7, #1
 8001b62:	4d2c      	ldr	r5, [pc, #176]	; (8001c14 <HAL_RCC_OscConfig+0x270>)
 8001b64:	682b      	ldr	r3, [r5, #0]
 8001b66:	05d9      	lsls	r1, r3, #23
 8001b68:	d51b      	bpl.n	8001ba2 <HAL_RCC_OscConfig+0x1fe>
 8001b6a:	68a3      	ldr	r3, [r4, #8]
 8001b6c:	4d27      	ldr	r5, [pc, #156]	; (8001c0c <HAL_RCC_OscConfig+0x268>)
 8001b6e:	2b01      	cmp	r3, #1
 8001b70:	d127      	bne.n	8001bc2 <HAL_RCC_OscConfig+0x21e>
 8001b72:	6f2b      	ldr	r3, [r5, #112]	; 0x70
 8001b74:	f043 0301 	orr.w	r3, r3, #1
 8001b78:	672b      	str	r3, [r5, #112]	; 0x70
 8001b7a:	f7ff f881 	bl	8000c80 <HAL_GetTick>
 8001b7e:	4e23      	ldr	r6, [pc, #140]	; (8001c0c <HAL_RCC_OscConfig+0x268>)
 8001b80:	4605      	mov	r5, r0
 8001b82:	f241 3888 	movw	r8, #5000	; 0x1388
 8001b86:	6f33      	ldr	r3, [r6, #112]	; 0x70
 8001b88:	079b      	lsls	r3, r3, #30
 8001b8a:	d539      	bpl.n	8001c00 <HAL_RCC_OscConfig+0x25c>
 8001b8c:	2f00      	cmp	r7, #0
 8001b8e:	f43f af1b 	beq.w	80019c8 <HAL_RCC_OscConfig+0x24>
 8001b92:	4a1e      	ldr	r2, [pc, #120]	; (8001c0c <HAL_RCC_OscConfig+0x268>)
 8001b94:	6c13      	ldr	r3, [r2, #64]	; 0x40
 8001b96:	f023 5380 	bic.w	r3, r3, #268435456	; 0x10000000
 8001b9a:	6413      	str	r3, [r2, #64]	; 0x40
 8001b9c:	e714      	b.n	80019c8 <HAL_RCC_OscConfig+0x24>
 8001b9e:	2700      	movs	r7, #0
 8001ba0:	e7df      	b.n	8001b62 <HAL_RCC_OscConfig+0x1be>
 8001ba2:	682b      	ldr	r3, [r5, #0]
 8001ba4:	f443 7380 	orr.w	r3, r3, #256	; 0x100
 8001ba8:	602b      	str	r3, [r5, #0]
 8001baa:	f7ff f869 	bl	8000c80 <HAL_GetTick>
 8001bae:	4606      	mov	r6, r0
 8001bb0:	682b      	ldr	r3, [r5, #0]
 8001bb2:	05da      	lsls	r2, r3, #23
 8001bb4:	d4d9      	bmi.n	8001b6a <HAL_RCC_OscConfig+0x1c6>
 8001bb6:	f7ff f863 	bl	8000c80 <HAL_GetTick>
 8001bba:	1b80      	subs	r0, r0, r6
 8001bbc:	2802      	cmp	r0, #2
 8001bbe:	d9f7      	bls.n	8001bb0 <HAL_RCC_OscConfig+0x20c>
 8001bc0:	e734      	b.n	8001a2c <HAL_RCC_OscConfig+0x88>
 8001bc2:	2b05      	cmp	r3, #5
 8001bc4:	d104      	bne.n	8001bd0 <HAL_RCC_OscConfig+0x22c>
 8001bc6:	6f2b      	ldr	r3, [r5, #112]	; 0x70
 8001bc8:	f043 0304 	orr.w	r3, r3, #4
 8001bcc:	672b      	str	r3, [r5, #112]	; 0x70
 8001bce:	e7d0      	b.n	8001b72 <HAL_RCC_OscConfig+0x1ce>
 8001bd0:	6f2a      	ldr	r2, [r5, #112]	; 0x70
 8001bd2:	f022 0201 	bic.w	r2, r2, #1
 8001bd6:	672a      	str	r2, [r5, #112]	; 0x70
 8001bd8:	6f2a      	ldr	r2, [r5, #112]	; 0x70
 8001bda:	f022 0204 	bic.w	r2, r2, #4
 8001bde:	672a      	str	r2, [r5, #112]	; 0x70
 8001be0:	2b00      	cmp	r3, #0
 8001be2:	d1ca      	bne.n	8001b7a <HAL_RCC_OscConfig+0x1d6>
 8001be4:	f7ff f84c 	bl	8000c80 <HAL_GetTick>
 8001be8:	f241 3888 	movw	r8, #5000	; 0x1388
 8001bec:	4606      	mov	r6, r0
 8001bee:	6f2b      	ldr	r3, [r5, #112]	; 0x70
 8001bf0:	0798      	lsls	r0, r3, #30
 8001bf2:	d5cb      	bpl.n	8001b8c <HAL_RCC_OscConfig+0x1e8>
 8001bf4:	f7ff f844 	bl	8000c80 <HAL_GetTick>
 8001bf8:	1b80      	subs	r0, r0, r6
 8001bfa:	4540      	cmp	r0, r8
 8001bfc:	d9f7      	bls.n	8001bee <HAL_RCC_OscConfig+0x24a>
 8001bfe:	e715      	b.n	8001a2c <HAL_RCC_OscConfig+0x88>
 8001c00:	f7ff f83e 	bl	8000c80 <HAL_GetTick>
 8001c04:	1b40      	subs	r0, r0, r5
 8001c06:	4540      	cmp	r0, r8
 8001c08:	d9bd      	bls.n	8001b86 <HAL_RCC_OscConfig+0x1e2>
 8001c0a:	e70f      	b.n	8001a2c <HAL_RCC_OscConfig+0x88>
 8001c0c:	40023800 	.word	0x40023800
 8001c10:	42470000 	.word	0x42470000
 8001c14:	40007000 	.word	0x40007000
 8001c18:	4d36      	ldr	r5, [pc, #216]	; (8001cf4 <HAL_RCC_OscConfig+0x350>)
 8001c1a:	68ab      	ldr	r3, [r5, #8]
 8001c1c:	f003 030c 	and.w	r3, r3, #12
 8001c20:	2b08      	cmp	r3, #8
 8001c22:	d03d      	beq.n	8001ca0 <HAL_RCC_OscConfig+0x2fc>
 8001c24:	4b34      	ldr	r3, [pc, #208]	; (8001cf8 <HAL_RCC_OscConfig+0x354>)
 8001c26:	2200      	movs	r2, #0
 8001c28:	2802      	cmp	r0, #2
 8001c2a:	661a      	str	r2, [r3, #96]	; 0x60
 8001c2c:	d12b      	bne.n	8001c86 <HAL_RCC_OscConfig+0x2e2>
 8001c2e:	f7ff f827 	bl	8000c80 <HAL_GetTick>
 8001c32:	4606      	mov	r6, r0
 8001c34:	682b      	ldr	r3, [r5, #0]
 8001c36:	0199      	lsls	r1, r3, #6
 8001c38:	d41f      	bmi.n	8001c7a <HAL_RCC_OscConfig+0x2d6>
 8001c3a:	e9d4 3207 	ldrd	r3, r2, [r4, #28]
 8001c3e:	4313      	orrs	r3, r2
 8001c40:	6a62      	ldr	r2, [r4, #36]	; 0x24
 8001c42:	ea43 1382 	orr.w	r3, r3, r2, lsl #6
 8001c46:	6ae2      	ldr	r2, [r4, #44]	; 0x2c
 8001c48:	ea43 6302 	orr.w	r3, r3, r2, lsl #24
 8001c4c:	6aa2      	ldr	r2, [r4, #40]	; 0x28
 8001c4e:	0852      	lsrs	r2, r2, #1
 8001c50:	3a01      	subs	r2, #1
 8001c52:	ea43 4302 	orr.w	r3, r3, r2, lsl #16
 8001c56:	606b      	str	r3, [r5, #4]
 8001c58:	4b27      	ldr	r3, [pc, #156]	; (8001cf8 <HAL_RCC_OscConfig+0x354>)
 8001c5a:	4d26      	ldr	r5, [pc, #152]	; (8001cf4 <HAL_RCC_OscConfig+0x350>)
 8001c5c:	2201      	movs	r2, #1
 8001c5e:	661a      	str	r2, [r3, #96]	; 0x60
 8001c60:	f7ff f80e 	bl	8000c80 <HAL_GetTick>
 8001c64:	4604      	mov	r4, r0
 8001c66:	682b      	ldr	r3, [r5, #0]
 8001c68:	019a      	lsls	r2, r3, #6
 8001c6a:	f53f aeb1 	bmi.w	80019d0 <HAL_RCC_OscConfig+0x2c>
 8001c6e:	f7ff f807 	bl	8000c80 <HAL_GetTick>
 8001c72:	1b00      	subs	r0, r0, r4
 8001c74:	2802      	cmp	r0, #2
 8001c76:	d9f6      	bls.n	8001c66 <HAL_RCC_OscConfig+0x2c2>
 8001c78:	e6d8      	b.n	8001a2c <HAL_RCC_OscConfig+0x88>
 8001c7a:	f7ff f801 	bl	8000c80 <HAL_GetTick>
 8001c7e:	1b80      	subs	r0, r0, r6
 8001c80:	2802      	cmp	r0, #2
 8001c82:	d9d7      	bls.n	8001c34 <HAL_RCC_OscConfig+0x290>
 8001c84:	e6d2      	b.n	8001a2c <HAL_RCC_OscConfig+0x88>
 8001c86:	f7fe fffb 	bl	8000c80 <HAL_GetTick>
 8001c8a:	4604      	mov	r4, r0
 8001c8c:	682b      	ldr	r3, [r5, #0]
 8001c8e:	019b      	lsls	r3, r3, #6
 8001c90:	f57f ae9e 	bpl.w	80019d0 <HAL_RCC_OscConfig+0x2c>
 8001c94:	f7fe fff4 	bl	8000c80 <HAL_GetTick>
 8001c98:	1b00      	subs	r0, r0, r4
 8001c9a:	2802      	cmp	r0, #2
 8001c9c:	d9f6      	bls.n	8001c8c <HAL_RCC_OscConfig+0x2e8>
 8001c9e:	e6c5      	b.n	8001a2c <HAL_RCC_OscConfig+0x88>
 8001ca0:	2801      	cmp	r0, #1
 8001ca2:	f43f aec4 	beq.w	8001a2e <HAL_RCC_OscConfig+0x8a>
 8001ca6:	686b      	ldr	r3, [r5, #4]
 8001ca8:	69e2      	ldr	r2, [r4, #28]
 8001caa:	f403 0180 	and.w	r1, r3, #4194304	; 0x400000
 8001cae:	4291      	cmp	r1, r2
 8001cb0:	f47f aea5 	bne.w	80019fe <HAL_RCC_OscConfig+0x5a>
 8001cb4:	6a21      	ldr	r1, [r4, #32]
 8001cb6:	f003 023f 	and.w	r2, r3, #63	; 0x3f
 8001cba:	428a      	cmp	r2, r1
 8001cbc:	f47f ae9f 	bne.w	80019fe <HAL_RCC_OscConfig+0x5a>
 8001cc0:	6a61      	ldr	r1, [r4, #36]	; 0x24
 8001cc2:	f647 72c0 	movw	r2, #32704	; 0x7fc0
 8001cc6:	401a      	ands	r2, r3
 8001cc8:	ebb2 1f81 	cmp.w	r2, r1, lsl #6
 8001ccc:	f47f ae97 	bne.w	80019fe <HAL_RCC_OscConfig+0x5a>
 8001cd0:	6aa2      	ldr	r2, [r4, #40]	; 0x28
 8001cd2:	0852      	lsrs	r2, r2, #1
 8001cd4:	f403 3140 	and.w	r1, r3, #196608	; 0x30000
 8001cd8:	3a01      	subs	r2, #1
 8001cda:	ebb1 4f02 	cmp.w	r1, r2, lsl #16
 8001cde:	f47f ae8e 	bne.w	80019fe <HAL_RCC_OscConfig+0x5a>
 8001ce2:	6ae2      	ldr	r2, [r4, #44]	; 0x2c
 8001ce4:	f003 6370 	and.w	r3, r3, #251658240	; 0xf000000
 8001ce8:	ebb3 6f02 	cmp.w	r3, r2, lsl #24
 8001cec:	f43f ae70 	beq.w	80019d0 <HAL_RCC_OscConfig+0x2c>
 8001cf0:	e685      	b.n	80019fe <HAL_RCC_OscConfig+0x5a>
 8001cf2:	bf00      	nop
 8001cf4:	40023800 	.word	0x40023800
 8001cf8:	42470000 	.word	0x42470000

08001cfc <HAL_RCC_GetSysClockFreq>:
 8001cfc:	4913      	ldr	r1, [pc, #76]	; (8001d4c <HAL_RCC_GetSysClockFreq+0x50>)
 8001cfe:	b508      	push	{r3, lr}
 8001d00:	688b      	ldr	r3, [r1, #8]
 8001d02:	f003 030c 	and.w	r3, r3, #12
 8001d06:	2b04      	cmp	r3, #4
 8001d08:	d01c      	beq.n	8001d44 <HAL_RCC_GetSysClockFreq+0x48>
 8001d0a:	2b08      	cmp	r3, #8
 8001d0c:	d11c      	bne.n	8001d48 <HAL_RCC_GetSysClockFreq+0x4c>
 8001d0e:	684a      	ldr	r2, [r1, #4]
 8001d10:	684b      	ldr	r3, [r1, #4]
 8001d12:	6849      	ldr	r1, [r1, #4]
 8001d14:	f413 0380 	ands.w	r3, r3, #4194304	; 0x400000
 8001d18:	bf14      	ite	ne
 8001d1a:	480d      	ldrne	r0, [pc, #52]	; (8001d50 <HAL_RCC_GetSysClockFreq+0x54>)
 8001d1c:	480d      	ldreq	r0, [pc, #52]	; (8001d54 <HAL_RCC_GetSysClockFreq+0x58>)
 8001d1e:	f3c1 1188 	ubfx	r1, r1, #6, #9
 8001d22:	bf18      	it	ne
 8001d24:	2300      	movne	r3, #0
 8001d26:	f002 023f 	and.w	r2, r2, #63	; 0x3f
 8001d2a:	fba1 0100 	umull	r0, r1, r1, r0
 8001d2e:	f7fe faa7 	bl	8000280 <__aeabi_uldivmod>
 8001d32:	4b06      	ldr	r3, [pc, #24]	; (8001d4c <HAL_RCC_GetSysClockFreq+0x50>)
 8001d34:	685b      	ldr	r3, [r3, #4]
 8001d36:	f3c3 4301 	ubfx	r3, r3, #16, #2
 8001d3a:	3301      	adds	r3, #1
 8001d3c:	005b      	lsls	r3, r3, #1
 8001d3e:	fbb0 f0f3 	udiv	r0, r0, r3
 8001d42:	bd08      	pop	{r3, pc}
 8001d44:	4802      	ldr	r0, [pc, #8]	; (8001d50 <HAL_RCC_GetSysClockFreq+0x54>)
 8001d46:	e7fc      	b.n	8001d42 <HAL_RCC_GetSysClockFreq+0x46>
 8001d48:	4802      	ldr	r0, [pc, #8]	; (8001d54 <HAL_RCC_GetSysClockFreq+0x58>)
 8001d4a:	e7fa      	b.n	8001d42 <HAL_RCC_GetSysClockFreq+0x46>
 8001d4c:	40023800 	.word	0x40023800
 8001d50:	017d7840 	.word	0x017d7840
 8001d54:	00f42400 	.word	0x00f42400

08001d58 <HAL_RCC_ClockConfig>:
 8001d58:	e92d 41f0 	stmdb	sp!, {r4, r5, r6, r7, r8, lr}
 8001d5c:	460d      	mov	r5, r1
 8001d5e:	4604      	mov	r4, r0
 8001d60:	b910      	cbnz	r0, 8001d68 <HAL_RCC_ClockConfig+0x10>
 8001d62:	2001      	movs	r0, #1
 8001d64:	e8bd 81f0 	ldmia.w	sp!, {r4, r5, r6, r7, r8, pc}
 8001d68:	4b43      	ldr	r3, [pc, #268]	; (8001e78 <HAL_RCC_ClockConfig+0x120>)
 8001d6a:	681a      	ldr	r2, [r3, #0]
 8001d6c:	f002 0207 	and.w	r2, r2, #7
 8001d70:	428a      	cmp	r2, r1
 8001d72:	d328      	bcc.n	8001dc6 <HAL_RCC_ClockConfig+0x6e>
 8001d74:	6821      	ldr	r1, [r4, #0]
 8001d76:	078f      	lsls	r7, r1, #30
 8001d78:	d42d      	bmi.n	8001dd6 <HAL_RCC_ClockConfig+0x7e>
 8001d7a:	07c8      	lsls	r0, r1, #31
 8001d7c:	d440      	bmi.n	8001e00 <HAL_RCC_ClockConfig+0xa8>
 8001d7e:	4b3e      	ldr	r3, [pc, #248]	; (8001e78 <HAL_RCC_ClockConfig+0x120>)
 8001d80:	681a      	ldr	r2, [r3, #0]
 8001d82:	f002 0207 	and.w	r2, r2, #7
 8001d86:	42aa      	cmp	r2, r5
 8001d88:	d865      	bhi.n	8001e56 <HAL_RCC_ClockConfig+0xfe>
 8001d8a:	6822      	ldr	r2, [r4, #0]
 8001d8c:	0751      	lsls	r1, r2, #29
 8001d8e:	d46b      	bmi.n	8001e68 <HAL_RCC_ClockConfig+0x110>
 8001d90:	0713      	lsls	r3, r2, #28
 8001d92:	d507      	bpl.n	8001da4 <HAL_RCC_ClockConfig+0x4c>
 8001d94:	4a39      	ldr	r2, [pc, #228]	; (8001e7c <HAL_RCC_ClockConfig+0x124>)
 8001d96:	6921      	ldr	r1, [r4, #16]
 8001d98:	6893      	ldr	r3, [r2, #8]
 8001d9a:	f423 4360 	bic.w	r3, r3, #57344	; 0xe000
 8001d9e:	ea43 03c1 	orr.w	r3, r3, r1, lsl #3
 8001da2:	6093      	str	r3, [r2, #8]
 8001da4:	f7ff ffaa 	bl	8001cfc <HAL_RCC_GetSysClockFreq>
 8001da8:	4b34      	ldr	r3, [pc, #208]	; (8001e7c <HAL_RCC_ClockConfig+0x124>)
 8001daa:	4a35      	ldr	r2, [pc, #212]	; (8001e80 <HAL_RCC_ClockConfig+0x128>)
 8001dac:	689b      	ldr	r3, [r3, #8]
 8001dae:	f3c3 1303 	ubfx	r3, r3, #4, #4
 8001db2:	5cd3      	ldrb	r3, [r2, r3]
 8001db4:	40d8      	lsrs	r0, r3
 8001db6:	4b33      	ldr	r3, [pc, #204]	; (8001e84 <HAL_RCC_ClockConfig+0x12c>)
 8001db8:	6018      	str	r0, [r3, #0]
 8001dba:	4b33      	ldr	r3, [pc, #204]	; (8001e88 <HAL_RCC_ClockConfig+0x130>)
 8001dbc:	6818      	ldr	r0, [r3, #0]
 8001dbe:	f7fe ff15 	bl	8000bec <HAL_InitTick>
 8001dc2:	2000      	movs	r0, #0
 8001dc4:	e7ce      	b.n	8001d64 <HAL_RCC_ClockConfig+0xc>
 8001dc6:	b2ca      	uxtb	r2, r1
 8001dc8:	701a      	strb	r2, [r3, #0]
 8001dca:	681b      	ldr	r3, [r3, #0]
 8001dcc:	f003 0307 	and.w	r3, r3, #7
 8001dd0:	428b      	cmp	r3, r1
 8001dd2:	d1c6      	bne.n	8001d62 <HAL_RCC_ClockConfig+0xa>
 8001dd4:	e7ce      	b.n	8001d74 <HAL_RCC_ClockConfig+0x1c>
 8001dd6:	4b29      	ldr	r3, [pc, #164]	; (8001e7c <HAL_RCC_ClockConfig+0x124>)
 8001dd8:	f011 0f04 	tst.w	r1, #4
 8001ddc:	bf1e      	ittt	ne
 8001dde:	689a      	ldrne	r2, [r3, #8]
 8001de0:	f442 52e0 	orrne.w	r2, r2, #7168	; 0x1c00
 8001de4:	609a      	strne	r2, [r3, #8]
 8001de6:	070e      	lsls	r6, r1, #28
 8001de8:	bf42      	ittt	mi
 8001dea:	689a      	ldrmi	r2, [r3, #8]
 8001dec:	f442 4260 	orrmi.w	r2, r2, #57344	; 0xe000
 8001df0:	609a      	strmi	r2, [r3, #8]
 8001df2:	689a      	ldr	r2, [r3, #8]
 8001df4:	68a0      	ldr	r0, [r4, #8]
 8001df6:	f022 02f0 	bic.w	r2, r2, #240	; 0xf0
 8001dfa:	4302      	orrs	r2, r0
 8001dfc:	609a      	str	r2, [r3, #8]
 8001dfe:	e7bc      	b.n	8001d7a <HAL_RCC_ClockConfig+0x22>
 8001e00:	6862      	ldr	r2, [r4, #4]
 8001e02:	4b1e      	ldr	r3, [pc, #120]	; (8001e7c <HAL_RCC_ClockConfig+0x124>)
 8001e04:	2a01      	cmp	r2, #1
 8001e06:	d11c      	bne.n	8001e42 <HAL_RCC_ClockConfig+0xea>
 8001e08:	681b      	ldr	r3, [r3, #0]
 8001e0a:	f413 3f00 	tst.w	r3, #131072	; 0x20000
 8001e0e:	d0a8      	beq.n	8001d62 <HAL_RCC_ClockConfig+0xa>
 8001e10:	4e1a      	ldr	r6, [pc, #104]	; (8001e7c <HAL_RCC_ClockConfig+0x124>)
 8001e12:	68b3      	ldr	r3, [r6, #8]
 8001e14:	f023 0303 	bic.w	r3, r3, #3
 8001e18:	4313      	orrs	r3, r2
 8001e1a:	60b3      	str	r3, [r6, #8]
 8001e1c:	f7fe ff30 	bl	8000c80 <HAL_GetTick>
 8001e20:	f241 3888 	movw	r8, #5000	; 0x1388
 8001e24:	4607      	mov	r7, r0
 8001e26:	68b3      	ldr	r3, [r6, #8]
 8001e28:	6862      	ldr	r2, [r4, #4]
 8001e2a:	f003 030c 	and.w	r3, r3, #12
 8001e2e:	ebb3 0f82 	cmp.w	r3, r2, lsl #2
 8001e32:	d0a4      	beq.n	8001d7e <HAL_RCC_ClockConfig+0x26>
 8001e34:	f7fe ff24 	bl	8000c80 <HAL_GetTick>
 8001e38:	1bc0      	subs	r0, r0, r7
 8001e3a:	4540      	cmp	r0, r8
 8001e3c:	d9f3      	bls.n	8001e26 <HAL_RCC_ClockConfig+0xce>
 8001e3e:	2003      	movs	r0, #3
 8001e40:	e790      	b.n	8001d64 <HAL_RCC_ClockConfig+0xc>
 8001e42:	1e91      	subs	r1, r2, #2
 8001e44:	2901      	cmp	r1, #1
 8001e46:	681b      	ldr	r3, [r3, #0]
 8001e48:	d802      	bhi.n	8001e50 <HAL_RCC_ClockConfig+0xf8>
 8001e4a:	f013 7f00 	tst.w	r3, #33554432	; 0x2000000
 8001e4e:	e7de      	b.n	8001e0e <HAL_RCC_ClockConfig+0xb6>
 8001e50:	f013 0f02 	tst.w	r3, #2
 8001e54:	e7db      	b.n	8001e0e <HAL_RCC_ClockConfig+0xb6>
 8001e56:	b2ea      	uxtb	r2, r5
 8001e58:	701a      	strb	r2, [r3, #0]
 8001e5a:	681b      	ldr	r3, [r3, #0]
 8001e5c:	f003 0307 	and.w	r3, r3, #7
 8001e60:	42ab      	cmp	r3, r5
 8001e62:	f47f af7e 	bne.w	8001d62 <HAL_RCC_ClockConfig+0xa>
 8001e66:	e790      	b.n	8001d8a <HAL_RCC_ClockConfig+0x32>
 8001e68:	4904      	ldr	r1, [pc, #16]	; (8001e7c <HAL_RCC_ClockConfig+0x124>)
 8001e6a:	68e0      	ldr	r0, [r4, #12]
 8001e6c:	688b      	ldr	r3, [r1, #8]
 8001e6e:	f423 53e0 	bic.w	r3, r3, #7168	; 0x1c00
 8001e72:	4303      	orrs	r3, r0
 8001e74:	608b      	str	r3, [r1, #8]
 8001e76:	e78b      	b.n	8001d90 <HAL_RCC_ClockConfig+0x38>
 8001e78:	40023c00 	.word	0x40023c00
 8001e7c:	40023800 	.word	0x40023800
 8001e80:	08009ad0 	.word	0x08009ad0
 8001e84:	20000000 	.word	0x20000000
 8001e88:	20000008 	.word	0x20000008

08001e8c <HAL_RCC_GetHCLKFreq>:
 8001e8c:	4b01      	ldr	r3, [pc, #4]	; (8001e94 <HAL_RCC_GetHCLKFreq+0x8>)
 8001e8e:	6818      	ldr	r0, [r3, #0]
 8001e90:	4770      	bx	lr
 8001e92:	bf00      	nop
 8001e94:	20000000 	.word	0x20000000

08001e98 <HAL_RCC_GetPCLK1Freq>:
 8001e98:	4b04      	ldr	r3, [pc, #16]	; (8001eac <HAL_RCC_GetPCLK1Freq+0x14>)
 8001e9a:	4a05      	ldr	r2, [pc, #20]	; (8001eb0 <HAL_RCC_GetPCLK1Freq+0x18>)
 8001e9c:	689b      	ldr	r3, [r3, #8]
 8001e9e:	f3c3 2382 	ubfx	r3, r3, #10, #3
 8001ea2:	5cd3      	ldrb	r3, [r2, r3]
 8001ea4:	4a03      	ldr	r2, [pc, #12]	; (8001eb4 <HAL_RCC_GetPCLK1Freq+0x1c>)
 8001ea6:	6810      	ldr	r0, [r2, #0]
 8001ea8:	40d8      	lsrs	r0, r3
 8001eaa:	4770      	bx	lr
 8001eac:	40023800 	.word	0x40023800
 8001eb0:	08009ae0 	.word	0x08009ae0
 8001eb4:	20000000 	.word	0x20000000

08001eb8 <HAL_RCC_GetPCLK2Freq>:
 8001eb8:	4b04      	ldr	r3, [pc, #16]	; (8001ecc <HAL_RCC_GetPCLK2Freq+0x14>)
 8001eba:	4a05      	ldr	r2, [pc, #20]	; (8001ed0 <HAL_RCC_GetPCLK2Freq+0x18>)
 8001ebc:	689b      	ldr	r3, [r3, #8]
 8001ebe:	f3c3 3342 	ubfx	r3, r3, #13, #3
 8001ec2:	5cd3      	ldrb	r3, [r2, r3]
 8001ec4:	4a03      	ldr	r2, [pc, #12]	; (8001ed4 <HAL_RCC_GetPCLK2Freq+0x1c>)
 8001ec6:	6810      	ldr	r0, [r2, #0]
 8001ec8:	40d8      	lsrs	r0, r3
 8001eca:	4770      	bx	lr
 8001ecc:	40023800 	.word	0x40023800
 8001ed0:	08009ae0 	.word	0x08009ae0
 8001ed4:	20000000 	.word	0x20000000

08001ed8 <UART_EndRxTransfer>:
 8001ed8:	6802      	ldr	r2, [r0, #0]
 8001eda:	f102 030c 	add.w	r3, r2, #12
 8001ede:	e853 3f00 	ldrex	r3, [r3]
 8001ee2:	f423 7390 	bic.w	r3, r3, #288	; 0x120
 8001ee6:	320c      	adds	r2, #12
 8001ee8:	e842 3100 	strex	r1, r3, [r2]
 8001eec:	6802      	ldr	r2, [r0, #0]
 8001eee:	2900      	cmp	r1, #0
 8001ef0:	d1f2      	bne.n	8001ed8 <UART_EndRxTransfer>
 8001ef2:	f102 0314 	add.w	r3, r2, #20
 8001ef6:	e853 3f00 	ldrex	r3, [r3]
 8001efa:	f023 0301 	bic.w	r3, r3, #1
 8001efe:	f102 0c14 	add.w	ip, r2, #20
 8001f02:	e84c 3100 	strex	r1, r3, [ip]
 8001f06:	2900      	cmp	r1, #0
 8001f08:	d1f3      	bne.n	8001ef2 <UART_EndRxTransfer+0x1a>
 8001f0a:	6b03      	ldr	r3, [r0, #48]	; 0x30
 8001f0c:	2b01      	cmp	r3, #1
 8001f0e:	d10b      	bne.n	8001f28 <UART_EndRxTransfer+0x50>
 8001f10:	f102 030c 	add.w	r3, r2, #12
 8001f14:	e853 3f00 	ldrex	r3, [r3]
 8001f18:	f023 0310 	bic.w	r3, r3, #16
 8001f1c:	f102 0c0c 	add.w	ip, r2, #12
 8001f20:	e84c 3100 	strex	r1, r3, [ip]
 8001f24:	2900      	cmp	r1, #0
 8001f26:	d1f3      	bne.n	8001f10 <UART_EndRxTransfer+0x38>
 8001f28:	2320      	movs	r3, #32
 8001f2a:	f880 303e 	strb.w	r3, [r0, #62]	; 0x3e
 8001f2e:	2300      	movs	r3, #0
 8001f30:	6303      	str	r3, [r0, #48]	; 0x30
 8001f32:	4770      	bx	lr

08001f34 <UART_SetConfig>:
 8001f34:	6802      	ldr	r2, [r0, #0]
 8001f36:	68c1      	ldr	r1, [r0, #12]
 8001f38:	6913      	ldr	r3, [r2, #16]
 8001f3a:	f423 5340 	bic.w	r3, r3, #12288	; 0x3000
 8001f3e:	430b      	orrs	r3, r1
 8001f40:	b570      	push	{r4, r5, r6, lr}
 8001f42:	6113      	str	r3, [r2, #16]
 8001f44:	4605      	mov	r5, r0
 8001f46:	6883      	ldr	r3, [r0, #8]
 8001f48:	6900      	ldr	r0, [r0, #16]
 8001f4a:	68d1      	ldr	r1, [r2, #12]
 8001f4c:	4303      	orrs	r3, r0
 8001f4e:	6968      	ldr	r0, [r5, #20]
 8001f50:	4303      	orrs	r3, r0
 8001f52:	69e8      	ldr	r0, [r5, #28]
 8001f54:	f421 4116 	bic.w	r1, r1, #38400	; 0x9600
 8001f58:	f021 010c 	bic.w	r1, r1, #12
 8001f5c:	4303      	orrs	r3, r0
 8001f5e:	430b      	orrs	r3, r1
 8001f60:	60d3      	str	r3, [r2, #12]
 8001f62:	6953      	ldr	r3, [r2, #20]
 8001f64:	69a9      	ldr	r1, [r5, #24]
 8001f66:	f423 7340 	bic.w	r3, r3, #768	; 0x300
 8001f6a:	430b      	orrs	r3, r1
 8001f6c:	6153      	str	r3, [r2, #20]
 8001f6e:	4b1f      	ldr	r3, [pc, #124]	; (8001fec <UART_SetConfig+0xb8>)
 8001f70:	429a      	cmp	r2, r3
 8001f72:	d003      	beq.n	8001f7c <UART_SetConfig+0x48>
 8001f74:	f503 6380 	add.w	r3, r3, #1024	; 0x400
 8001f78:	429a      	cmp	r2, r3
 8001f7a:	d123      	bne.n	8001fc4 <UART_SetConfig+0x90>
 8001f7c:	f7ff ff9c 	bl	8001eb8 <HAL_RCC_GetPCLK2Freq>
 8001f80:	69eb      	ldr	r3, [r5, #28]
 8001f82:	2119      	movs	r1, #25
 8001f84:	f5b3 4f00 	cmp.w	r3, #32768	; 0x8000
 8001f88:	e9d5 4600 	ldrd	r4, r6, [r5]
 8001f8c:	fba0 0101 	umull	r0, r1, r0, r1
 8001f90:	d11b      	bne.n	8001fca <UART_SetConfig+0x96>
 8001f92:	19b2      	adds	r2, r6, r6
 8001f94:	f04f 0300 	mov.w	r3, #0
 8001f98:	415b      	adcs	r3, r3
 8001f9a:	f7fe f971 	bl	8000280 <__aeabi_uldivmod>
 8001f9e:	2264      	movs	r2, #100	; 0x64
 8001fa0:	fbb0 f1f2 	udiv	r1, r0, r2
 8001fa4:	fb02 0311 	mls	r3, r2, r1, r0
 8001fa8:	00db      	lsls	r3, r3, #3
 8001faa:	3332      	adds	r3, #50	; 0x32
 8001fac:	fbb3 f3f2 	udiv	r3, r3, r2
 8001fb0:	f003 0207 	and.w	r2, r3, #7
 8001fb4:	005b      	lsls	r3, r3, #1
 8001fb6:	eb02 1201 	add.w	r2, r2, r1, lsl #4
 8001fba:	f403 73f8 	and.w	r3, r3, #496	; 0x1f0
 8001fbe:	4413      	add	r3, r2
 8001fc0:	60a3      	str	r3, [r4, #8]
 8001fc2:	bd70      	pop	{r4, r5, r6, pc}
 8001fc4:	f7ff ff68 	bl	8001e98 <HAL_RCC_GetPCLK1Freq>
 8001fc8:	e7da      	b.n	8001f80 <UART_SetConfig+0x4c>
 8001fca:	00b2      	lsls	r2, r6, #2
 8001fcc:	0fb3      	lsrs	r3, r6, #30
 8001fce:	f7fe f957 	bl	8000280 <__aeabi_uldivmod>
 8001fd2:	2264      	movs	r2, #100	; 0x64
 8001fd4:	fbb0 f1f2 	udiv	r1, r0, r2
 8001fd8:	fb02 0311 	mls	r3, r2, r1, r0
 8001fdc:	011b      	lsls	r3, r3, #4
 8001fde:	3332      	adds	r3, #50	; 0x32
 8001fe0:	fbb3 f3f2 	udiv	r3, r3, r2
 8001fe4:	eb03 1301 	add.w	r3, r3, r1, lsl #4
 8001fe8:	e7ea      	b.n	8001fc0 <UART_SetConfig+0x8c>
 8001fea:	bf00      	nop
 8001fec:	40011000 	.word	0x40011000

08001ff0 <HAL_UART_Init>:
 8001ff0:	b510      	push	{r4, lr}
 8001ff2:	4604      	mov	r4, r0
 8001ff4:	b340      	cbz	r0, 8002048 <HAL_UART_Init+0x58>
 8001ff6:	f890 303d 	ldrb.w	r3, [r0, #61]	; 0x3d
 8001ffa:	f003 02ff 	and.w	r2, r3, #255	; 0xff
 8001ffe:	b91b      	cbnz	r3, 8002008 <HAL_UART_Init+0x18>
 8002000:	f880 203c 	strb.w	r2, [r0, #60]	; 0x3c
 8002004:	f7fe fbe0 	bl	80007c8 <HAL_UART_MspInit>
 8002008:	6822      	ldr	r2, [r4, #0]
 800200a:	2324      	movs	r3, #36	; 0x24
 800200c:	f884 303d 	strb.w	r3, [r4, #61]	; 0x3d
 8002010:	68d3      	ldr	r3, [r2, #12]
 8002012:	f423 5300 	bic.w	r3, r3, #8192	; 0x2000
 8002016:	60d3      	str	r3, [r2, #12]
 8002018:	4620      	mov	r0, r4
 800201a:	f7ff ff8b 	bl	8001f34 <UART_SetConfig>
 800201e:	6823      	ldr	r3, [r4, #0]
 8002020:	691a      	ldr	r2, [r3, #16]
 8002022:	f422 4290 	bic.w	r2, r2, #18432	; 0x4800
 8002026:	611a      	str	r2, [r3, #16]
 8002028:	695a      	ldr	r2, [r3, #20]
 800202a:	f022 022a 	bic.w	r2, r2, #42	; 0x2a
 800202e:	615a      	str	r2, [r3, #20]
 8002030:	68da      	ldr	r2, [r3, #12]
 8002032:	f442 5200 	orr.w	r2, r2, #8192	; 0x2000
 8002036:	60da      	str	r2, [r3, #12]
 8002038:	2000      	movs	r0, #0
 800203a:	2320      	movs	r3, #32
 800203c:	6420      	str	r0, [r4, #64]	; 0x40
 800203e:	f884 303d 	strb.w	r3, [r4, #61]	; 0x3d
 8002042:	f884 303e 	strb.w	r3, [r4, #62]	; 0x3e
 8002046:	bd10      	pop	{r4, pc}
 8002048:	2001      	movs	r0, #1
 800204a:	e7fc      	b.n	8002046 <HAL_UART_Init+0x56>

0800204c <HAL_UART_Transmit_IT>:
 800204c:	f890 303d 	ldrb.w	r3, [r0, #61]	; 0x3d
 8002050:	2b20      	cmp	r3, #32
 8002052:	d118      	bne.n	8002086 <HAL_UART_Transmit_IT+0x3a>
 8002054:	b1a9      	cbz	r1, 8002082 <HAL_UART_Transmit_IT+0x36>
 8002056:	b1a2      	cbz	r2, 8002082 <HAL_UART_Transmit_IT+0x36>
 8002058:	f890 303c 	ldrb.w	r3, [r0, #60]	; 0x3c
 800205c:	2b01      	cmp	r3, #1
 800205e:	d012      	beq.n	8002086 <HAL_UART_Transmit_IT+0x3a>
 8002060:	84c2      	strh	r2, [r0, #38]	; 0x26
 8002062:	6201      	str	r1, [r0, #32]
 8002064:	8482      	strh	r2, [r0, #36]	; 0x24
 8002066:	6801      	ldr	r1, [r0, #0]
 8002068:	2300      	movs	r3, #0
 800206a:	2221      	movs	r2, #33	; 0x21
 800206c:	6403      	str	r3, [r0, #64]	; 0x40
 800206e:	f880 303c 	strb.w	r3, [r0, #60]	; 0x3c
 8002072:	f880 203d 	strb.w	r2, [r0, #61]	; 0x3d
 8002076:	68ca      	ldr	r2, [r1, #12]
 8002078:	f042 0280 	orr.w	r2, r2, #128	; 0x80
 800207c:	60ca      	str	r2, [r1, #12]
 800207e:	4618      	mov	r0, r3
 8002080:	4770      	bx	lr
 8002082:	2001      	movs	r0, #1
 8002084:	4770      	bx	lr
 8002086:	2002      	movs	r0, #2
 8002088:	4770      	bx	lr

0800208a <HAL_UART_TxCpltCallback>:
 800208a:	4770      	bx	lr

0800208c <HAL_UART_ErrorCallback>:
 800208c:	4770      	bx	lr

0800208e <UART_DMAAbortOnError>:
 800208e:	b508      	push	{r3, lr}
 8002090:	6b80      	ldr	r0, [r0, #56]	; 0x38
 8002092:	2300      	movs	r3, #0
 8002094:	85c3      	strh	r3, [r0, #46]	; 0x2e
 8002096:	84c3      	strh	r3, [r0, #38]	; 0x26
 8002098:	f7ff fff8 	bl	800208c <HAL_UART_ErrorCallback>
 800209c:	bd08      	pop	{r3, pc}

0800209e <HAL_UARTEx_RxEventCallback>:
 800209e:	4770      	bx	lr

080020a0 <UART_Receive_IT.isra.0>:
 80020a0:	f890 303e 	ldrb.w	r3, [r0, #62]	; 0x3e
 80020a4:	2b22      	cmp	r3, #34	; 0x22
 80020a6:	b507      	push	{r0, r1, r2, lr}
 80020a8:	d141      	bne.n	800212e <UART_Receive_IT.isra.0+0x8e>
 80020aa:	6881      	ldr	r1, [r0, #8]
 80020ac:	6a83      	ldr	r3, [r0, #40]	; 0x28
 80020ae:	6802      	ldr	r2, [r0, #0]
 80020b0:	f5b1 5f80 	cmp.w	r1, #4096	; 0x1000
 80020b4:	d13e      	bne.n	8002134 <UART_Receive_IT.isra.0+0x94>
 80020b6:	6901      	ldr	r1, [r0, #16]
 80020b8:	2900      	cmp	r1, #0
 80020ba:	d13e      	bne.n	800213a <UART_Receive_IT.isra.0+0x9a>
 80020bc:	6852      	ldr	r2, [r2, #4]
 80020be:	f3c2 0208 	ubfx	r2, r2, #0, #9
 80020c2:	f823 2b02 	strh.w	r2, [r3], #2
 80020c6:	6283      	str	r3, [r0, #40]	; 0x28
 80020c8:	8dc3      	ldrh	r3, [r0, #46]	; 0x2e
 80020ca:	3b01      	subs	r3, #1
 80020cc:	b29b      	uxth	r3, r3
 80020ce:	85c3      	strh	r3, [r0, #46]	; 0x2e
 80020d0:	2b00      	cmp	r3, #0
 80020d2:	d12c      	bne.n	800212e <UART_Receive_IT.isra.0+0x8e>
 80020d4:	6802      	ldr	r2, [r0, #0]
 80020d6:	68d1      	ldr	r1, [r2, #12]
 80020d8:	f021 0120 	bic.w	r1, r1, #32
 80020dc:	60d1      	str	r1, [r2, #12]
 80020de:	68d1      	ldr	r1, [r2, #12]
 80020e0:	f421 7180 	bic.w	r1, r1, #256	; 0x100
 80020e4:	60d1      	str	r1, [r2, #12]
 80020e6:	6951      	ldr	r1, [r2, #20]
 80020e8:	f021 0101 	bic.w	r1, r1, #1
 80020ec:	6151      	str	r1, [r2, #20]
 80020ee:	2220      	movs	r2, #32
 80020f0:	f880 203e 	strb.w	r2, [r0, #62]	; 0x3e
 80020f4:	6b02      	ldr	r2, [r0, #48]	; 0x30
 80020f6:	2a01      	cmp	r2, #1
 80020f8:	6802      	ldr	r2, [r0, #0]
 80020fa:	d128      	bne.n	800214e <UART_Receive_IT.isra.0+0xae>
 80020fc:	6303      	str	r3, [r0, #48]	; 0x30
 80020fe:	f102 030c 	add.w	r3, r2, #12
 8002102:	e853 3f00 	ldrex	r3, [r3]
 8002106:	f023 0310 	bic.w	r3, r3, #16
 800210a:	f102 0c0c 	add.w	ip, r2, #12
 800210e:	e84c 3100 	strex	r1, r3, [ip]
 8002112:	2900      	cmp	r1, #0
 8002114:	d1f3      	bne.n	80020fe <UART_Receive_IT.isra.0+0x5e>
 8002116:	6813      	ldr	r3, [r2, #0]
 8002118:	06db      	lsls	r3, r3, #27
 800211a:	d505      	bpl.n	8002128 <UART_Receive_IT.isra.0+0x88>
 800211c:	9101      	str	r1, [sp, #4]
 800211e:	6813      	ldr	r3, [r2, #0]
 8002120:	9301      	str	r3, [sp, #4]
 8002122:	6853      	ldr	r3, [r2, #4]
 8002124:	9301      	str	r3, [sp, #4]
 8002126:	9b01      	ldr	r3, [sp, #4]
 8002128:	8d81      	ldrh	r1, [r0, #44]	; 0x2c
 800212a:	f7ff ffb8 	bl	800209e <HAL_UARTEx_RxEventCallback>
 800212e:	b003      	add	sp, #12
 8002130:	f85d fb04 	ldr.w	pc, [sp], #4
 8002134:	b939      	cbnz	r1, 8002146 <UART_Receive_IT.isra.0+0xa6>
 8002136:	6901      	ldr	r1, [r0, #16]
 8002138:	b929      	cbnz	r1, 8002146 <UART_Receive_IT.isra.0+0xa6>
 800213a:	6852      	ldr	r2, [r2, #4]
 800213c:	b2d2      	uxtb	r2, r2
 800213e:	701a      	strb	r2, [r3, #0]
 8002140:	6a83      	ldr	r3, [r0, #40]	; 0x28
 8002142:	3301      	adds	r3, #1
 8002144:	e7bf      	b.n	80020c6 <UART_Receive_IT.isra.0+0x26>
 8002146:	6852      	ldr	r2, [r2, #4]
 8002148:	f002 027f 	and.w	r2, r2, #127	; 0x7f
 800214c:	e7f7      	b.n	800213e <UART_Receive_IT.isra.0+0x9e>
 800214e:	f7fe faf9 	bl	8000744 <HAL_UART_RxCpltCallback>
 8002152:	e7ec      	b.n	800212e <UART_Receive_IT.isra.0+0x8e>

08002154 <HAL_UART_IRQHandler>:
 8002154:	6803      	ldr	r3, [r0, #0]
 8002156:	681a      	ldr	r2, [r3, #0]
 8002158:	b573      	push	{r0, r1, r4, r5, r6, lr}
 800215a:	0716      	lsls	r6, r2, #28
 800215c:	68d9      	ldr	r1, [r3, #12]
 800215e:	695d      	ldr	r5, [r3, #20]
 8002160:	4604      	mov	r4, r0
 8002162:	d108      	bne.n	8002176 <HAL_UART_IRQHandler+0x22>
 8002164:	0696      	lsls	r6, r2, #26
 8002166:	d568      	bpl.n	800223a <HAL_UART_IRQHandler+0xe6>
 8002168:	068d      	lsls	r5, r1, #26
 800216a:	d566      	bpl.n	800223a <HAL_UART_IRQHandler+0xe6>
 800216c:	b002      	add	sp, #8
 800216e:	e8bd 4070 	ldmia.w	sp!, {r4, r5, r6, lr}
 8002172:	f7ff bf95 	b.w	80020a0 <UART_Receive_IT.isra.0>
 8002176:	f005 0001 	and.w	r0, r5, #1
 800217a:	f401 7590 	and.w	r5, r1, #288	; 0x120
 800217e:	4305      	orrs	r5, r0
 8002180:	d05b      	beq.n	800223a <HAL_UART_IRQHandler+0xe6>
 8002182:	07d6      	lsls	r6, r2, #31
 8002184:	d505      	bpl.n	8002192 <HAL_UART_IRQHandler+0x3e>
 8002186:	05cd      	lsls	r5, r1, #23
 8002188:	bf42      	ittt	mi
 800218a:	6c23      	ldrmi	r3, [r4, #64]	; 0x40
 800218c:	f043 0301 	orrmi.w	r3, r3, #1
 8002190:	6423      	strmi	r3, [r4, #64]	; 0x40
 8002192:	0753      	lsls	r3, r2, #29
 8002194:	d504      	bpl.n	80021a0 <HAL_UART_IRQHandler+0x4c>
 8002196:	b118      	cbz	r0, 80021a0 <HAL_UART_IRQHandler+0x4c>
 8002198:	6c23      	ldr	r3, [r4, #64]	; 0x40
 800219a:	f043 0302 	orr.w	r3, r3, #2
 800219e:	6423      	str	r3, [r4, #64]	; 0x40
 80021a0:	0796      	lsls	r6, r2, #30
 80021a2:	d504      	bpl.n	80021ae <HAL_UART_IRQHandler+0x5a>
 80021a4:	b118      	cbz	r0, 80021ae <HAL_UART_IRQHandler+0x5a>
 80021a6:	6c23      	ldr	r3, [r4, #64]	; 0x40
 80021a8:	f043 0304 	orr.w	r3, r3, #4
 80021ac:	6423      	str	r3, [r4, #64]	; 0x40
 80021ae:	0715      	lsls	r5, r2, #28
 80021b0:	d507      	bpl.n	80021c2 <HAL_UART_IRQHandler+0x6e>
 80021b2:	f001 0320 	and.w	r3, r1, #32
 80021b6:	4303      	orrs	r3, r0
 80021b8:	bf1e      	ittt	ne
 80021ba:	6c23      	ldrne	r3, [r4, #64]	; 0x40
 80021bc:	f043 0308 	orrne.w	r3, r3, #8
 80021c0:	6423      	strne	r3, [r4, #64]	; 0x40
 80021c2:	6c23      	ldr	r3, [r4, #64]	; 0x40
 80021c4:	2b00      	cmp	r3, #0
 80021c6:	d032      	beq.n	800222e <HAL_UART_IRQHandler+0xda>
 80021c8:	0692      	lsls	r2, r2, #26
 80021ca:	d504      	bpl.n	80021d6 <HAL_UART_IRQHandler+0x82>
 80021cc:	068b      	lsls	r3, r1, #26
 80021ce:	d502      	bpl.n	80021d6 <HAL_UART_IRQHandler+0x82>
 80021d0:	4620      	mov	r0, r4
 80021d2:	f7ff ff65 	bl	80020a0 <UART_Receive_IT.isra.0>
 80021d6:	6826      	ldr	r6, [r4, #0]
 80021d8:	6973      	ldr	r3, [r6, #20]
 80021da:	6c22      	ldr	r2, [r4, #64]	; 0x40
 80021dc:	f003 0340 	and.w	r3, r3, #64	; 0x40
 80021e0:	f002 0208 	and.w	r2, r2, #8
 80021e4:	ea53 0502 	orrs.w	r5, r3, r2
 80021e8:	4620      	mov	r0, r4
 80021ea:	d022      	beq.n	8002232 <HAL_UART_IRQHandler+0xde>
 80021ec:	f7ff fe74 	bl	8001ed8 <UART_EndRxTransfer>
 80021f0:	6973      	ldr	r3, [r6, #20]
 80021f2:	065e      	lsls	r6, r3, #25
 80021f4:	d518      	bpl.n	8002228 <HAL_UART_IRQHandler+0xd4>
 80021f6:	6822      	ldr	r2, [r4, #0]
 80021f8:	f102 0314 	add.w	r3, r2, #20
 80021fc:	e853 3f00 	ldrex	r3, [r3]
 8002200:	f023 0340 	bic.w	r3, r3, #64	; 0x40
 8002204:	3214      	adds	r2, #20
 8002206:	e842 3100 	strex	r1, r3, [r2]
 800220a:	2900      	cmp	r1, #0
 800220c:	d1f3      	bne.n	80021f6 <HAL_UART_IRQHandler+0xa2>
 800220e:	6ba0      	ldr	r0, [r4, #56]	; 0x38
 8002210:	b150      	cbz	r0, 8002228 <HAL_UART_IRQHandler+0xd4>
 8002212:	4b72      	ldr	r3, [pc, #456]	; (80023dc <HAL_UART_IRQHandler+0x288>)
 8002214:	6503      	str	r3, [r0, #80]	; 0x50
 8002216:	f7fe fdf2 	bl	8000dfe <HAL_DMA_Abort_IT>
 800221a:	b140      	cbz	r0, 800222e <HAL_UART_IRQHandler+0xda>
 800221c:	6ba0      	ldr	r0, [r4, #56]	; 0x38
 800221e:	6d03      	ldr	r3, [r0, #80]	; 0x50
 8002220:	b002      	add	sp, #8
 8002222:	e8bd 4070 	ldmia.w	sp!, {r4, r5, r6, lr}
 8002226:	4718      	bx	r3
 8002228:	4620      	mov	r0, r4
 800222a:	f7ff ff2f 	bl	800208c <HAL_UART_ErrorCallback>
 800222e:	b002      	add	sp, #8
 8002230:	bd70      	pop	{r4, r5, r6, pc}
 8002232:	f7ff ff2b 	bl	800208c <HAL_UART_ErrorCallback>
 8002236:	6425      	str	r5, [r4, #64]	; 0x40
 8002238:	e7f9      	b.n	800222e <HAL_UART_IRQHandler+0xda>
 800223a:	6b20      	ldr	r0, [r4, #48]	; 0x30
 800223c:	2801      	cmp	r0, #1
 800223e:	f040 8091 	bne.w	8002364 <HAL_UART_IRQHandler+0x210>
 8002242:	06d5      	lsls	r5, r2, #27
 8002244:	f140 808e 	bpl.w	8002364 <HAL_UART_IRQHandler+0x210>
 8002248:	06c8      	lsls	r0, r1, #27
 800224a:	f140 808b 	bpl.w	8002364 <HAL_UART_IRQHandler+0x210>
 800224e:	2200      	movs	r2, #0
 8002250:	9201      	str	r2, [sp, #4]
 8002252:	681a      	ldr	r2, [r3, #0]
 8002254:	9201      	str	r2, [sp, #4]
 8002256:	685a      	ldr	r2, [r3, #4]
 8002258:	9201      	str	r2, [sp, #4]
 800225a:	9a01      	ldr	r2, [sp, #4]
 800225c:	695a      	ldr	r2, [r3, #20]
 800225e:	0652      	lsls	r2, r2, #25
 8002260:	d54c      	bpl.n	80022fc <HAL_UART_IRQHandler+0x1a8>
 8002262:	6ba1      	ldr	r1, [r4, #56]	; 0x38
 8002264:	680a      	ldr	r2, [r1, #0]
 8002266:	6852      	ldr	r2, [r2, #4]
 8002268:	b292      	uxth	r2, r2
 800226a:	2a00      	cmp	r2, #0
 800226c:	d0df      	beq.n	800222e <HAL_UART_IRQHandler+0xda>
 800226e:	8da0      	ldrh	r0, [r4, #44]	; 0x2c
 8002270:	4290      	cmp	r0, r2
 8002272:	d9dc      	bls.n	800222e <HAL_UART_IRQHandler+0xda>
 8002274:	85e2      	strh	r2, [r4, #46]	; 0x2e
 8002276:	69ca      	ldr	r2, [r1, #28]
 8002278:	f5b2 7f80 	cmp.w	r2, #256	; 0x100
 800227c:	d036      	beq.n	80022ec <HAL_UART_IRQHandler+0x198>
 800227e:	f103 020c 	add.w	r2, r3, #12
 8002282:	e852 2f00 	ldrex	r2, [r2]
 8002286:	f422 7280 	bic.w	r2, r2, #256	; 0x100
 800228a:	f103 000c 	add.w	r0, r3, #12
 800228e:	e840 2100 	strex	r1, r2, [r0]
 8002292:	2900      	cmp	r1, #0
 8002294:	d1f3      	bne.n	800227e <HAL_UART_IRQHandler+0x12a>
 8002296:	f103 0214 	add.w	r2, r3, #20
 800229a:	e852 2f00 	ldrex	r2, [r2]
 800229e:	f022 0201 	bic.w	r2, r2, #1
 80022a2:	f103 0014 	add.w	r0, r3, #20
 80022a6:	e840 2100 	strex	r1, r2, [r0]
 80022aa:	2900      	cmp	r1, #0
 80022ac:	d1f3      	bne.n	8002296 <HAL_UART_IRQHandler+0x142>
 80022ae:	f103 0214 	add.w	r2, r3, #20
 80022b2:	e852 2f00 	ldrex	r2, [r2]
 80022b6:	f022 0240 	bic.w	r2, r2, #64	; 0x40
 80022ba:	f103 0014 	add.w	r0, r3, #20
 80022be:	e840 2100 	strex	r1, r2, [r0]
 80022c2:	2900      	cmp	r1, #0
 80022c4:	d1f3      	bne.n	80022ae <HAL_UART_IRQHandler+0x15a>
 80022c6:	2220      	movs	r2, #32
 80022c8:	f884 203e 	strb.w	r2, [r4, #62]	; 0x3e
 80022cc:	6321      	str	r1, [r4, #48]	; 0x30
 80022ce:	f103 020c 	add.w	r2, r3, #12
 80022d2:	e852 2f00 	ldrex	r2, [r2]
 80022d6:	f022 0210 	bic.w	r2, r2, #16
 80022da:	f103 000c 	add.w	r0, r3, #12
 80022de:	e840 2100 	strex	r1, r2, [r0]
 80022e2:	2900      	cmp	r1, #0
 80022e4:	d1f3      	bne.n	80022ce <HAL_UART_IRQHandler+0x17a>
 80022e6:	6ba0      	ldr	r0, [r4, #56]	; 0x38
 80022e8:	f7fe fd4a 	bl	8000d80 <HAL_DMA_Abort>
 80022ec:	8de3      	ldrh	r3, [r4, #46]	; 0x2e
 80022ee:	8da1      	ldrh	r1, [r4, #44]	; 0x2c
 80022f0:	1ac9      	subs	r1, r1, r3
 80022f2:	b289      	uxth	r1, r1
 80022f4:	4620      	mov	r0, r4
 80022f6:	f7ff fed2 	bl	800209e <HAL_UARTEx_RxEventCallback>
 80022fa:	e798      	b.n	800222e <HAL_UART_IRQHandler+0xda>
 80022fc:	8de2      	ldrh	r2, [r4, #46]	; 0x2e
 80022fe:	8de0      	ldrh	r0, [r4, #46]	; 0x2e
 8002300:	8da1      	ldrh	r1, [r4, #44]	; 0x2c
 8002302:	b280      	uxth	r0, r0
 8002304:	b292      	uxth	r2, r2
 8002306:	2800      	cmp	r0, #0
 8002308:	d091      	beq.n	800222e <HAL_UART_IRQHandler+0xda>
 800230a:	1a89      	subs	r1, r1, r2
 800230c:	b289      	uxth	r1, r1
 800230e:	2900      	cmp	r1, #0
 8002310:	d08d      	beq.n	800222e <HAL_UART_IRQHandler+0xda>
 8002312:	f103 020c 	add.w	r2, r3, #12
 8002316:	e852 2f00 	ldrex	r2, [r2]
 800231a:	f422 7290 	bic.w	r2, r2, #288	; 0x120
 800231e:	f103 050c 	add.w	r5, r3, #12
 8002322:	e845 2000 	strex	r0, r2, [r5]
 8002326:	2800      	cmp	r0, #0
 8002328:	d1f3      	bne.n	8002312 <HAL_UART_IRQHandler+0x1be>
 800232a:	f103 0214 	add.w	r2, r3, #20
 800232e:	e852 2f00 	ldrex	r2, [r2]
 8002332:	f022 0201 	bic.w	r2, r2, #1
 8002336:	f103 0514 	add.w	r5, r3, #20
 800233a:	e845 2000 	strex	r0, r2, [r5]
 800233e:	2800      	cmp	r0, #0
 8002340:	d1f3      	bne.n	800232a <HAL_UART_IRQHandler+0x1d6>
 8002342:	2220      	movs	r2, #32
 8002344:	f884 203e 	strb.w	r2, [r4, #62]	; 0x3e
 8002348:	6320      	str	r0, [r4, #48]	; 0x30
 800234a:	f103 020c 	add.w	r2, r3, #12
 800234e:	e852 2f00 	ldrex	r2, [r2]
 8002352:	f022 0210 	bic.w	r2, r2, #16
 8002356:	f103 050c 	add.w	r5, r3, #12
 800235a:	e845 2000 	strex	r0, r2, [r5]
 800235e:	2800      	cmp	r0, #0
 8002360:	d1f3      	bne.n	800234a <HAL_UART_IRQHandler+0x1f6>
 8002362:	e7c7      	b.n	80022f4 <HAL_UART_IRQHandler+0x1a0>
 8002364:	0616      	lsls	r6, r2, #24
 8002366:	d528      	bpl.n	80023ba <HAL_UART_IRQHandler+0x266>
 8002368:	060d      	lsls	r5, r1, #24
 800236a:	d526      	bpl.n	80023ba <HAL_UART_IRQHandler+0x266>
 800236c:	f894 203d 	ldrb.w	r2, [r4, #61]	; 0x3d
 8002370:	2a21      	cmp	r2, #33	; 0x21
 8002372:	f47f af5c 	bne.w	800222e <HAL_UART_IRQHandler+0xda>
 8002376:	68a1      	ldr	r1, [r4, #8]
 8002378:	6a22      	ldr	r2, [r4, #32]
 800237a:	f5b1 5f80 	cmp.w	r1, #4096	; 0x1000
 800237e:	d117      	bne.n	80023b0 <HAL_UART_IRQHandler+0x25c>
 8002380:	6921      	ldr	r1, [r4, #16]
 8002382:	b9a9      	cbnz	r1, 80023b0 <HAL_UART_IRQHandler+0x25c>
 8002384:	f832 1b02 	ldrh.w	r1, [r2], #2
 8002388:	f3c1 0108 	ubfx	r1, r1, #0, #9
 800238c:	6059      	str	r1, [r3, #4]
 800238e:	6222      	str	r2, [r4, #32]
 8002390:	8ce2      	ldrh	r2, [r4, #38]	; 0x26
 8002392:	3a01      	subs	r2, #1
 8002394:	b292      	uxth	r2, r2
 8002396:	84e2      	strh	r2, [r4, #38]	; 0x26
 8002398:	2a00      	cmp	r2, #0
 800239a:	f47f af48 	bne.w	800222e <HAL_UART_IRQHandler+0xda>
 800239e:	68da      	ldr	r2, [r3, #12]
 80023a0:	f022 0280 	bic.w	r2, r2, #128	; 0x80
 80023a4:	60da      	str	r2, [r3, #12]
 80023a6:	68da      	ldr	r2, [r3, #12]
 80023a8:	f042 0240 	orr.w	r2, r2, #64	; 0x40
 80023ac:	60da      	str	r2, [r3, #12]
 80023ae:	e73e      	b.n	800222e <HAL_UART_IRQHandler+0xda>
 80023b0:	1c51      	adds	r1, r2, #1
 80023b2:	6221      	str	r1, [r4, #32]
 80023b4:	7812      	ldrb	r2, [r2, #0]
 80023b6:	605a      	str	r2, [r3, #4]
 80023b8:	e7ea      	b.n	8002390 <HAL_UART_IRQHandler+0x23c>
 80023ba:	0650      	lsls	r0, r2, #25
 80023bc:	f57f af37 	bpl.w	800222e <HAL_UART_IRQHandler+0xda>
 80023c0:	064a      	lsls	r2, r1, #25
 80023c2:	f57f af34 	bpl.w	800222e <HAL_UART_IRQHandler+0xda>
 80023c6:	68da      	ldr	r2, [r3, #12]
 80023c8:	f022 0240 	bic.w	r2, r2, #64	; 0x40
 80023cc:	60da      	str	r2, [r3, #12]
 80023ce:	2320      	movs	r3, #32
 80023d0:	f884 303d 	strb.w	r3, [r4, #61]	; 0x3d
 80023d4:	4620      	mov	r0, r4
 80023d6:	f7ff fe58 	bl	800208a <HAL_UART_TxCpltCallback>
 80023da:	e728      	b.n	800222e <HAL_UART_IRQHandler+0xda>
 80023dc:	0800208f 	.word	0x0800208f

080023e0 <UART_Start_Receive_IT>:
 80023e0:	85c2      	strh	r2, [r0, #46]	; 0x2e
 80023e2:	2300      	movs	r3, #0
 80023e4:	8582      	strh	r2, [r0, #44]	; 0x2c
 80023e6:	2222      	movs	r2, #34	; 0x22
 80023e8:	6403      	str	r3, [r0, #64]	; 0x40
 80023ea:	f880 203e 	strb.w	r2, [r0, #62]	; 0x3e
 80023ee:	6902      	ldr	r2, [r0, #16]
 80023f0:	f880 303c 	strb.w	r3, [r0, #60]	; 0x3c
 80023f4:	6281      	str	r1, [r0, #40]	; 0x28
 80023f6:	6803      	ldr	r3, [r0, #0]
 80023f8:	b11a      	cbz	r2, 8002402 <UART_Start_Receive_IT+0x22>
 80023fa:	68da      	ldr	r2, [r3, #12]
 80023fc:	f442 7280 	orr.w	r2, r2, #256	; 0x100
 8002400:	60da      	str	r2, [r3, #12]
 8002402:	695a      	ldr	r2, [r3, #20]
 8002404:	f042 0201 	orr.w	r2, r2, #1
 8002408:	615a      	str	r2, [r3, #20]
 800240a:	68da      	ldr	r2, [r3, #12]
 800240c:	f042 0220 	orr.w	r2, r2, #32
 8002410:	60da      	str	r2, [r3, #12]
 8002412:	2000      	movs	r0, #0
 8002414:	4770      	bx	lr

08002416 <HAL_UART_Receive_IT>:
 8002416:	b470      	push	{r4, r5, r6}
 8002418:	f890 603e 	ldrb.w	r6, [r0, #62]	; 0x3e
 800241c:	2e20      	cmp	r6, #32
 800241e:	d110      	bne.n	8002442 <HAL_UART_Receive_IT+0x2c>
 8002420:	b161      	cbz	r1, 800243c <HAL_UART_Receive_IT+0x26>
 8002422:	b15a      	cbz	r2, 800243c <HAL_UART_Receive_IT+0x26>
 8002424:	f890 403c 	ldrb.w	r4, [r0, #60]	; 0x3c
 8002428:	2c01      	cmp	r4, #1
 800242a:	d00a      	beq.n	8002442 <HAL_UART_Receive_IT+0x2c>
 800242c:	2401      	movs	r4, #1
 800242e:	f880 403c 	strb.w	r4, [r0, #60]	; 0x3c
 8002432:	2400      	movs	r4, #0
 8002434:	6304      	str	r4, [r0, #48]	; 0x30
 8002436:	bc70      	pop	{r4, r5, r6}
 8002438:	f7ff bfd2 	b.w	80023e0 <UART_Start_Receive_IT>
 800243c:	2001      	movs	r0, #1
 800243e:	bc70      	pop	{r4, r5, r6}
 8002440:	4770      	bx	lr
 8002442:	2002      	movs	r0, #2
 8002444:	e7fb      	b.n	800243e <HAL_UART_Receive_IT+0x28>

08002446 <ethernet_link_status_updated>:
 8002446:	4770      	bx	lr

08002448 <MX_LWIP_Init>:
 8002448:	b5f0      	push	{r4, r5, r6, r7, lr}
 800244a:	4e1f      	ldr	r6, [pc, #124]	; (80024c8 <MX_LWIP_Init+0x80>)
 800244c:	4d1f      	ldr	r5, [pc, #124]	; (80024cc <MX_LWIP_Init+0x84>)
 800244e:	4c20      	ldr	r4, [pc, #128]	; (80024d0 <MX_LWIP_Init+0x88>)
 8002450:	230a      	movs	r3, #10
 8002452:	70f3      	strb	r3, [r6, #3]
 8002454:	23ff      	movs	r3, #255	; 0xff
 8002456:	21c0      	movs	r1, #192	; 0xc0
 8002458:	22a8      	movs	r2, #168	; 0xa8
 800245a:	2700      	movs	r7, #0
 800245c:	702b      	strb	r3, [r5, #0]
 800245e:	706b      	strb	r3, [r5, #1]
 8002460:	70ab      	strb	r3, [r5, #2]
 8002462:	2301      	movs	r3, #1
 8002464:	b085      	sub	sp, #20
 8002466:	7021      	strb	r1, [r4, #0]
 8002468:	7062      	strb	r2, [r4, #1]
 800246a:	70e3      	strb	r3, [r4, #3]
 800246c:	70a7      	strb	r7, [r4, #2]
 800246e:	7031      	strb	r1, [r6, #0]
 8002470:	7072      	strb	r2, [r6, #1]
 8002472:	70b7      	strb	r7, [r6, #2]
 8002474:	70ef      	strb	r7, [r5, #3]
 8002476:	f000 fa63 	bl	8002940 <lwip_init>
 800247a:	4916      	ldr	r1, [pc, #88]	; (80024d4 <MX_LWIP_Init+0x8c>)
 800247c:	6833      	ldr	r3, [r6, #0]
 800247e:	4a16      	ldr	r2, [pc, #88]	; (80024d8 <MX_LWIP_Init+0x90>)
 8002480:	600b      	str	r3, [r1, #0]
 8002482:	682b      	ldr	r3, [r5, #0]
 8002484:	6013      	str	r3, [r2, #0]
 8002486:	4b15      	ldr	r3, [pc, #84]	; (80024dc <MX_LWIP_Init+0x94>)
 8002488:	6820      	ldr	r0, [r4, #0]
 800248a:	6018      	str	r0, [r3, #0]
 800248c:	4814      	ldr	r0, [pc, #80]	; (80024e0 <MX_LWIP_Init+0x98>)
 800248e:	4c15      	ldr	r4, [pc, #84]	; (80024e4 <MX_LWIP_Init+0x9c>)
 8002490:	9002      	str	r0, [sp, #8]
 8002492:	4815      	ldr	r0, [pc, #84]	; (80024e8 <MX_LWIP_Init+0xa0>)
 8002494:	e9cd 7000 	strd	r7, r0, [sp]
 8002498:	4620      	mov	r0, r4
 800249a:	f000 fdad 	bl	8002ff8 <netif_add>
 800249e:	4620      	mov	r0, r4
 80024a0:	f000 fe40 	bl	8003124 <netif_set_default>
 80024a4:	f894 302d 	ldrb.w	r3, [r4, #45]	; 0x2d
 80024a8:	075b      	lsls	r3, r3, #29
 80024aa:	4620      	mov	r0, r4
 80024ac:	d508      	bpl.n	80024c0 <MX_LWIP_Init+0x78>
 80024ae:	f000 fe3f 	bl	8003130 <netif_set_up>
 80024b2:	490e      	ldr	r1, [pc, #56]	; (80024ec <MX_LWIP_Init+0xa4>)
 80024b4:	480b      	ldr	r0, [pc, #44]	; (80024e4 <MX_LWIP_Init+0x9c>)
 80024b6:	b005      	add	sp, #20
 80024b8:	e8bd 40f0 	ldmia.w	sp!, {r4, r5, r6, r7, lr}
 80024bc:	f000 beac 	b.w	8003218 <netif_set_link_callback>
 80024c0:	f000 fe50 	bl	8003164 <netif_set_down>
 80024c4:	e7f5      	b.n	80024b2 <MX_LWIP_Init+0x6a>
 80024c6:	bf00      	nop
 80024c8:	2000010c 	.word	0x2000010c
 80024cc:	20000110 	.word	0x20000110
 80024d0:	20000108 	.word	0x20000108
 80024d4:	2000014c 	.word	0x2000014c
 80024d8:	20000150 	.word	0x20000150
 80024dc:	20000148 	.word	0x20000148
 80024e0:	08008985 	.word	0x08008985
 80024e4:	20000114 	.word	0x20000114
 80024e8:	080027b5 	.word	0x080027b5
 80024ec:	08002447 	.word	0x08002447

080024f0 <MX_LWIP_Process>:
 80024f0:	b510      	push	{r4, lr}
 80024f2:	480a      	ldr	r0, [pc, #40]	; (800251c <MX_LWIP_Process+0x2c>)
 80024f4:	4c0a      	ldr	r4, [pc, #40]	; (8002520 <MX_LWIP_Process+0x30>)
 80024f6:	f000 f87d 	bl	80025f4 <ethernetif_input>
 80024fa:	f004 ff1b 	bl	8007334 <sys_check_timeouts>
 80024fe:	f7fe fbbf 	bl	8000c80 <HAL_GetTick>
 8002502:	6823      	ldr	r3, [r4, #0]
 8002504:	1ac0      	subs	r0, r0, r3
 8002506:	2863      	cmp	r0, #99	; 0x63
 8002508:	d907      	bls.n	800251a <MX_LWIP_Process+0x2a>
 800250a:	f7fe fbb9 	bl	8000c80 <HAL_GetTick>
 800250e:	6020      	str	r0, [r4, #0]
 8002510:	e8bd 4010 	ldmia.w	sp!, {r4, lr}
 8002514:	4801      	ldr	r0, [pc, #4]	; (800251c <MX_LWIP_Process+0x2c>)
 8002516:	f000 b907 	b.w	8002728 <ethernet_link_check_state>
 800251a:	bd10      	pop	{r4, pc}
 800251c:	20000114 	.word	0x20000114
 8002520:	20000104 	.word	0x20000104

08002524 <ETH_PHY_IO_DeInit>:
 8002524:	2000      	movs	r0, #0
 8002526:	4770      	bx	lr

08002528 <low_level_output>:
 8002528:	b530      	push	{r4, r5, lr}
 800252a:	b08d      	sub	sp, #52	; 0x34
 800252c:	460d      	mov	r5, r1
 800252e:	2230      	movs	r2, #48	; 0x30
 8002530:	2100      	movs	r1, #0
 8002532:	4668      	mov	r0, sp
 8002534:	f006 fc13 	bl	8008d5e <memset>
 8002538:	462c      	mov	r4, r5
 800253a:	466b      	mov	r3, sp
 800253c:	2200      	movs	r2, #0
 800253e:	b964      	cbnz	r4, 800255a <low_level_output+0x32>
 8002540:	490f      	ldr	r1, [pc, #60]	; (8002580 <low_level_output+0x58>)
 8002542:	892b      	ldrh	r3, [r5, #8]
 8002544:	480f      	ldr	r0, [pc, #60]	; (8002584 <low_level_output+0x5c>)
 8002546:	604b      	str	r3, [r1, #4]
 8002548:	2214      	movs	r2, #20
 800254a:	f8c1 d008 	str.w	sp, [r1, #8]
 800254e:	634d      	str	r5, [r1, #52]	; 0x34
 8002550:	f7fe ff86 	bl	8001460 <HAL_ETH_Transmit>
 8002554:	4620      	mov	r0, r4
 8002556:	b00d      	add	sp, #52	; 0x34
 8002558:	bd30      	pop	{r4, r5, pc}
 800255a:	2a04      	cmp	r2, #4
 800255c:	d00c      	beq.n	8002578 <low_level_output+0x50>
 800255e:	6861      	ldr	r1, [r4, #4]
 8002560:	6019      	str	r1, [r3, #0]
 8002562:	8961      	ldrh	r1, [r4, #10]
 8002564:	6059      	str	r1, [r3, #4]
 8002566:	b10a      	cbz	r2, 800256c <low_level_output+0x44>
 8002568:	f843 3c04 	str.w	r3, [r3, #-4]
 800256c:	6824      	ldr	r4, [r4, #0]
 800256e:	b904      	cbnz	r4, 8002572 <low_level_output+0x4a>
 8002570:	609c      	str	r4, [r3, #8]
 8002572:	3201      	adds	r2, #1
 8002574:	330c      	adds	r3, #12
 8002576:	e7e2      	b.n	800253e <low_level_output+0x16>
 8002578:	f06f 000b 	mvn.w	r0, #11
 800257c:	e7eb      	b.n	8002556 <low_level_output+0x2e>
 800257e:	bf00      	nop
 8002580:	200002b8 	.word	0x200002b8
 8002584:	200002f0 	.word	0x200002f0

08002588 <pbuf_free_custom>:
 8002588:	b508      	push	{r3, lr}
 800258a:	4601      	mov	r1, r0
 800258c:	4804      	ldr	r0, [pc, #16]	; (80025a0 <pbuf_free_custom+0x18>)
 800258e:	f000 fc8b 	bl	8002ea8 <memp_free_pool>
 8002592:	4b04      	ldr	r3, [pc, #16]	; (80025a4 <pbuf_free_custom+0x1c>)
 8002594:	781a      	ldrb	r2, [r3, #0]
 8002596:	2a01      	cmp	r2, #1
 8002598:	bf04      	itt	eq
 800259a:	2200      	moveq	r2, #0
 800259c:	701a      	strbeq	r2, [r3, #0]
 800259e:	bd08      	pop	{r3, pc}
 80025a0:	08009b74 	.word	0x08009b74
 80025a4:	200002b4 	.word	0x200002b4

080025a8 <ETH_PHY_IO_GetTick>:
 80025a8:	f7fe bb6a 	b.w	8000c80 <HAL_GetTick>

080025ac <ETH_PHY_IO_Init>:
 80025ac:	b508      	push	{r3, lr}
 80025ae:	4802      	ldr	r0, [pc, #8]	; (80025b8 <ETH_PHY_IO_Init+0xc>)
 80025b0:	f7ff f8e4 	bl	800177c <HAL_ETH_SetMDIOClockRange>
 80025b4:	2000      	movs	r0, #0
 80025b6:	bd08      	pop	{r3, pc}
 80025b8:	200002f0 	.word	0x200002f0

080025bc <ETH_PHY_IO_ReadReg>:
 80025bc:	b508      	push	{r3, lr}
 80025be:	4613      	mov	r3, r2
 80025c0:	460a      	mov	r2, r1
 80025c2:	4601      	mov	r1, r0
 80025c4:	4803      	ldr	r0, [pc, #12]	; (80025d4 <ETH_PHY_IO_ReadReg+0x18>)
 80025c6:	f7ff f81e 	bl	8001606 <HAL_ETH_ReadPHYRegister>
 80025ca:	3800      	subs	r0, #0
 80025cc:	bf18      	it	ne
 80025ce:	2001      	movne	r0, #1
 80025d0:	4240      	negs	r0, r0
 80025d2:	bd08      	pop	{r3, pc}
 80025d4:	200002f0 	.word	0x200002f0

080025d8 <ETH_PHY_IO_WriteReg>:
 80025d8:	b508      	push	{r3, lr}
 80025da:	4613      	mov	r3, r2
 80025dc:	460a      	mov	r2, r1
 80025de:	4601      	mov	r1, r0
 80025e0:	4803      	ldr	r0, [pc, #12]	; (80025f0 <ETH_PHY_IO_WriteReg+0x18>)
 80025e2:	f7ff f838 	bl	8001656 <HAL_ETH_WritePHYRegister>
 80025e6:	3800      	subs	r0, #0
 80025e8:	bf18      	it	ne
 80025ea:	2001      	movne	r0, #1
 80025ec:	4240      	negs	r0, r0
 80025ee:	bd08      	pop	{r3, pc}
 80025f0:	200002f0 	.word	0x200002f0

080025f4 <ethernetif_input>:
 80025f4:	e92d 41f3 	stmdb	sp!, {r0, r1, r4, r5, r6, r7, r8, lr}
 80025f8:	4f0d      	ldr	r7, [pc, #52]	; (8002630 <ethernetif_input+0x3c>)
 80025fa:	f8df 8038 	ldr.w	r8, [pc, #56]	; 8002634 <ethernetif_input+0x40>
 80025fe:	4604      	mov	r4, r0
 8002600:	2600      	movs	r6, #0
 8002602:	783b      	ldrb	r3, [r7, #0]
 8002604:	9601      	str	r6, [sp, #4]
 8002606:	b91b      	cbnz	r3, 8002610 <ethernetif_input+0x1c>
 8002608:	a901      	add	r1, sp, #4
 800260a:	4640      	mov	r0, r8
 800260c:	f7fe ff80 	bl	8001510 <HAL_ETH_ReadData>
 8002610:	9d01      	ldr	r5, [sp, #4]
 8002612:	b14d      	cbz	r5, 8002628 <ethernetif_input+0x34>
 8002614:	6923      	ldr	r3, [r4, #16]
 8002616:	4621      	mov	r1, r4
 8002618:	4628      	mov	r0, r5
 800261a:	4798      	blx	r3
 800261c:	2800      	cmp	r0, #0
 800261e:	d0f0      	beq.n	8002602 <ethernetif_input+0xe>
 8002620:	4628      	mov	r0, r5
 8002622:	f000 fec7 	bl	80033b4 <pbuf_free>
 8002626:	e7ec      	b.n	8002602 <ethernetif_input+0xe>
 8002628:	b002      	add	sp, #8
 800262a:	e8bd 81f0 	ldmia.w	sp!, {r4, r5, r6, r7, r8, pc}
 800262e:	bf00      	nop
 8002630:	200002b4 	.word	0x200002b4
 8002634:	200002f0 	.word	0x200002f0

08002638 <sys_now>:
 8002638:	f7fe bb22 	b.w	8000c80 <HAL_GetTick>

0800263c <HAL_ETH_MspInit>:
 800263c:	b5f0      	push	{r4, r5, r6, r7, lr}
 800263e:	4604      	mov	r4, r0
 8002640:	b08d      	sub	sp, #52	; 0x34
 8002642:	2214      	movs	r2, #20
 8002644:	2100      	movs	r1, #0
 8002646:	a807      	add	r0, sp, #28
 8002648:	f006 fb89 	bl	8008d5e <memset>
 800264c:	6822      	ldr	r2, [r4, #0]
 800264e:	4b32      	ldr	r3, [pc, #200]	; (8002718 <HAL_ETH_MspInit+0xdc>)
 8002650:	429a      	cmp	r2, r3
 8002652:	d15f      	bne.n	8002714 <HAL_ETH_MspInit+0xd8>
 8002654:	f5a3 4390 	sub.w	r3, r3, #18432	; 0x4800
 8002658:	2400      	movs	r4, #0
 800265a:	9401      	str	r4, [sp, #4]
 800265c:	6b1a      	ldr	r2, [r3, #48]	; 0x30
 800265e:	482f      	ldr	r0, [pc, #188]	; (800271c <HAL_ETH_MspInit+0xe0>)
 8002660:	f042 7200 	orr.w	r2, r2, #33554432	; 0x2000000
 8002664:	631a      	str	r2, [r3, #48]	; 0x30
 8002666:	6b1a      	ldr	r2, [r3, #48]	; 0x30
 8002668:	f002 7200 	and.w	r2, r2, #33554432	; 0x2000000
 800266c:	9201      	str	r2, [sp, #4]
 800266e:	9a01      	ldr	r2, [sp, #4]
 8002670:	9402      	str	r4, [sp, #8]
 8002672:	6b1a      	ldr	r2, [r3, #48]	; 0x30
 8002674:	f042 6280 	orr.w	r2, r2, #67108864	; 0x4000000
 8002678:	631a      	str	r2, [r3, #48]	; 0x30
 800267a:	6b1a      	ldr	r2, [r3, #48]	; 0x30
 800267c:	f002 6280 	and.w	r2, r2, #67108864	; 0x4000000
 8002680:	9202      	str	r2, [sp, #8]
 8002682:	9a02      	ldr	r2, [sp, #8]
 8002684:	9403      	str	r4, [sp, #12]
 8002686:	6b1a      	ldr	r2, [r3, #48]	; 0x30
 8002688:	f042 6200 	orr.w	r2, r2, #134217728	; 0x8000000
 800268c:	631a      	str	r2, [r3, #48]	; 0x30
 800268e:	6b1a      	ldr	r2, [r3, #48]	; 0x30
 8002690:	f002 6200 	and.w	r2, r2, #134217728	; 0x8000000
 8002694:	9203      	str	r2, [sp, #12]
 8002696:	9a03      	ldr	r2, [sp, #12]
 8002698:	9404      	str	r4, [sp, #16]
 800269a:	6b1a      	ldr	r2, [r3, #48]	; 0x30
 800269c:	f042 0204 	orr.w	r2, r2, #4
 80026a0:	631a      	str	r2, [r3, #48]	; 0x30
 80026a2:	6b1a      	ldr	r2, [r3, #48]	; 0x30
 80026a4:	f002 0204 	and.w	r2, r2, #4
 80026a8:	9204      	str	r2, [sp, #16]
 80026aa:	9a04      	ldr	r2, [sp, #16]
 80026ac:	9405      	str	r4, [sp, #20]
 80026ae:	6b1a      	ldr	r2, [r3, #48]	; 0x30
 80026b0:	f042 0201 	orr.w	r2, r2, #1
 80026b4:	631a      	str	r2, [r3, #48]	; 0x30
 80026b6:	6b1a      	ldr	r2, [r3, #48]	; 0x30
 80026b8:	f002 0201 	and.w	r2, r2, #1
 80026bc:	9205      	str	r2, [sp, #20]
 80026be:	9a05      	ldr	r2, [sp, #20]
 80026c0:	9406      	str	r4, [sp, #24]
 80026c2:	6b1a      	ldr	r2, [r3, #48]	; 0x30
 80026c4:	f042 0202 	orr.w	r2, r2, #2
 80026c8:	631a      	str	r2, [r3, #48]	; 0x30
 80026ca:	6b1b      	ldr	r3, [r3, #48]	; 0x30
 80026cc:	f003 0302 	and.w	r3, r3, #2
 80026d0:	9306      	str	r3, [sp, #24]
 80026d2:	2702      	movs	r7, #2
 80026d4:	2603      	movs	r6, #3
 80026d6:	250b      	movs	r5, #11
 80026d8:	9b06      	ldr	r3, [sp, #24]
 80026da:	a907      	add	r1, sp, #28
 80026dc:	2332      	movs	r3, #50	; 0x32
 80026de:	e9cd 3707 	strd	r3, r7, [sp, #28]
 80026e2:	e9cd 650a 	strd	r6, r5, [sp, #40]	; 0x28
 80026e6:	f7ff f883 	bl	80017f0 <HAL_GPIO_Init>
 80026ea:	2386      	movs	r3, #134	; 0x86
 80026ec:	480c      	ldr	r0, [pc, #48]	; (8002720 <HAL_ETH_MspInit+0xe4>)
 80026ee:	950b      	str	r5, [sp, #44]	; 0x2c
 80026f0:	a907      	add	r1, sp, #28
 80026f2:	e9cd 3707 	strd	r3, r7, [sp, #28]
 80026f6:	e9cd 4609 	strd	r4, r6, [sp, #36]	; 0x24
 80026fa:	f7ff f879 	bl	80017f0 <HAL_GPIO_Init>
 80026fe:	f44f 5360 	mov.w	r3, #14336	; 0x3800
 8002702:	4808      	ldr	r0, [pc, #32]	; (8002724 <HAL_ETH_MspInit+0xe8>)
 8002704:	950b      	str	r5, [sp, #44]	; 0x2c
 8002706:	a907      	add	r1, sp, #28
 8002708:	e9cd 3707 	strd	r3, r7, [sp, #28]
 800270c:	e9cd 4609 	strd	r4, r6, [sp, #36]	; 0x24
 8002710:	f7ff f86e 	bl	80017f0 <HAL_GPIO_Init>
 8002714:	b00d      	add	sp, #52	; 0x34
 8002716:	bdf0      	pop	{r4, r5, r6, r7, pc}
 8002718:	40028000 	.word	0x40028000
 800271c:	40020800 	.word	0x40020800
 8002720:	40020000 	.word	0x40020000
 8002724:	40020400 	.word	0x40020400

08002728 <ethernet_link_check_state>:
 8002728:	b570      	push	{r4, r5, r6, lr}
 800272a:	b09a      	sub	sp, #104	; 0x68
 800272c:	2264      	movs	r2, #100	; 0x64
 800272e:	2100      	movs	r1, #0
 8002730:	4604      	mov	r4, r0
 8002732:	a801      	add	r0, sp, #4
 8002734:	f006 fb13 	bl	8008d5e <memset>
 8002738:	481a      	ldr	r0, [pc, #104]	; (80027a4 <ethernet_link_check_state+0x7c>)
 800273a:	f7fe fa0d 	bl	8000b58 <LAN8742_GetLinkState>
 800273e:	f894 202d 	ldrb.w	r2, [r4, #45]	; 0x2d
 8002742:	0751      	lsls	r1, r2, #29
 8002744:	4603      	mov	r3, r0
 8002746:	d50e      	bpl.n	8002766 <ethernet_link_check_state+0x3e>
 8002748:	2801      	cmp	r0, #1
 800274a:	dc0a      	bgt.n	8002762 <ethernet_link_check_state+0x3a>
 800274c:	4816      	ldr	r0, [pc, #88]	; (80027a8 <ethernet_link_check_state+0x80>)
 800274e:	f7fe fe55 	bl	80013fc <HAL_ETH_Stop>
 8002752:	4620      	mov	r0, r4
 8002754:	f000 fd06 	bl	8003164 <netif_set_down>
 8002758:	4620      	mov	r0, r4
 800275a:	f000 fd43 	bl	80031e4 <netif_set_link_down>
 800275e:	b01a      	add	sp, #104	; 0x68
 8002760:	bd70      	pop	{r4, r5, r6, pc}
 8002762:	0752      	lsls	r2, r2, #29
 8002764:	d4fb      	bmi.n	800275e <ethernet_link_check_state+0x36>
 8002766:	2b01      	cmp	r3, #1
 8002768:	ddf9      	ble.n	800275e <ethernet_link_check_state+0x36>
 800276a:	3b02      	subs	r3, #2
 800276c:	2b03      	cmp	r3, #3
 800276e:	d8f6      	bhi.n	800275e <ethernet_link_check_state+0x36>
 8002770:	4a0e      	ldr	r2, [pc, #56]	; (80027ac <ethernet_link_check_state+0x84>)
 8002772:	480d      	ldr	r0, [pc, #52]	; (80027a8 <ethernet_link_check_state+0x80>)
 8002774:	f832 5013 	ldrh.w	r5, [r2, r3, lsl #1]
 8002778:	4a0d      	ldr	r2, [pc, #52]	; (80027b0 <ethernet_link_check_state+0x88>)
 800277a:	a901      	add	r1, sp, #4
 800277c:	f832 6013 	ldrh.w	r6, [r2, r3, lsl #1]
 8002780:	f7fe ff8e 	bl	80016a0 <HAL_ETH_GetMACConfig>
 8002784:	a901      	add	r1, sp, #4
 8002786:	4808      	ldr	r0, [pc, #32]	; (80027a8 <ethernet_link_check_state+0x80>)
 8002788:	e9cd 5606 	strd	r5, r6, [sp, #24]
 800278c:	f7fe ffea 	bl	8001764 <HAL_ETH_SetMACConfig>
 8002790:	4805      	ldr	r0, [pc, #20]	; (80027a8 <ethernet_link_check_state+0x80>)
 8002792:	f7fe fdfd 	bl	8001390 <HAL_ETH_Start>
 8002796:	4620      	mov	r0, r4
 8002798:	f000 fcca 	bl	8003130 <netif_set_up>
 800279c:	4620      	mov	r0, r4
 800279e:	f000 fcfd 	bl	800319c <netif_set_link_up>
 80027a2:	e7dc      	b.n	800275e <ethernet_link_check_state+0x36>
 80027a4:	20000294 	.word	0x20000294
 80027a8:	200002f0 	.word	0x200002f0
 80027ac:	08009b62 	.word	0x08009b62
 80027b0:	08009b6a 	.word	0x08009b6a

080027b4 <ethernetif_init>:
 80027b4:	e92d 41f3 	stmdb	sp!, {r0, r1, r4, r5, r6, r7, r8, lr}
 80027b8:	4604      	mov	r4, r0
 80027ba:	b930      	cbnz	r0, 80027ca <ethernetif_init+0x16>
 80027bc:	4b32      	ldr	r3, [pc, #200]	; (8002888 <ethernetif_init+0xd4>)
 80027be:	4933      	ldr	r1, [pc, #204]	; (800288c <ethernetif_init+0xd8>)
 80027c0:	4833      	ldr	r0, [pc, #204]	; (8002890 <ethernetif_init+0xdc>)
 80027c2:	f44f 72b5 	mov.w	r2, #362	; 0x16a
 80027c6:	f006 fa65 	bl	8008c94 <iprintf>
 80027ca:	f247 4373 	movw	r3, #29811	; 0x7473
 80027ce:	85e3      	strh	r3, [r4, #46]	; 0x2e
 80027d0:	4b30      	ldr	r3, [pc, #192]	; (8002894 <ethernetif_init+0xe0>)
 80027d2:	4d31      	ldr	r5, [pc, #196]	; (8002898 <ethernetif_init+0xe4>)
 80027d4:	6163      	str	r3, [r4, #20]
 80027d6:	4b31      	ldr	r3, [pc, #196]	; (800289c <ethernetif_init+0xe8>)
 80027d8:	61a3      	str	r3, [r4, #24]
 80027da:	4b31      	ldr	r3, [pc, #196]	; (80028a0 <ethernetif_init+0xec>)
 80027dc:	602b      	str	r3, [r5, #0]
 80027de:	4b31      	ldr	r3, [pc, #196]	; (80028a4 <ethernetif_init+0xf0>)
 80027e0:	9300      	str	r3, [sp, #0]
 80027e2:	f44f 0300 	mov.w	r3, #8388608	; 0x800000
 80027e6:	60ab      	str	r3, [r5, #8]
 80027e8:	4b2f      	ldr	r3, [pc, #188]	; (80028a8 <ethernetif_init+0xf4>)
 80027ea:	60eb      	str	r3, [r5, #12]
 80027ec:	4b2f      	ldr	r3, [pc, #188]	; (80028ac <ethernetif_init+0xf8>)
 80027ee:	612b      	str	r3, [r5, #16]
 80027f0:	f04f 0800 	mov.w	r8, #0
 80027f4:	f44f 63c0 	mov.w	r3, #1536	; 0x600
 80027f8:	4628      	mov	r0, r5
 80027fa:	616b      	str	r3, [r5, #20]
 80027fc:	f8ad 8004 	strh.w	r8, [sp, #4]
 8002800:	f8c5 d004 	str.w	sp, [r5, #4]
 8002804:	f7fe fcda 	bl	80011bc <HAL_ETH_Init>
 8002808:	4f29      	ldr	r7, [pc, #164]	; (80028b0 <ethernetif_init+0xfc>)
 800280a:	2234      	movs	r2, #52	; 0x34
 800280c:	4641      	mov	r1, r8
 800280e:	4606      	mov	r6, r0
 8002810:	1d38      	adds	r0, r7, #4
 8002812:	f006 faa4 	bl	8008d5e <memset>
 8002816:	2321      	movs	r3, #33	; 0x21
 8002818:	4826      	ldr	r0, [pc, #152]	; (80028b4 <ethernetif_init+0x100>)
 800281a:	603b      	str	r3, [r7, #0]
 800281c:	f44f 0340 	mov.w	r3, #12582912	; 0xc00000
 8002820:	617b      	str	r3, [r7, #20]
 8002822:	f000 faeb 	bl	8002dfc <memp_init_pool>
 8002826:	2306      	movs	r3, #6
 8002828:	f884 302c 	strb.w	r3, [r4, #44]	; 0x2c
 800282c:	686b      	ldr	r3, [r5, #4]
 800282e:	4922      	ldr	r1, [pc, #136]	; (80028b8 <ethernetif_init+0x104>)
 8002830:	781a      	ldrb	r2, [r3, #0]
 8002832:	f884 2026 	strb.w	r2, [r4, #38]	; 0x26
 8002836:	785a      	ldrb	r2, [r3, #1]
 8002838:	f884 2027 	strb.w	r2, [r4, #39]	; 0x27
 800283c:	789a      	ldrb	r2, [r3, #2]
 800283e:	f884 2028 	strb.w	r2, [r4, #40]	; 0x28
 8002842:	78da      	ldrb	r2, [r3, #3]
 8002844:	f884 2029 	strb.w	r2, [r4, #41]	; 0x29
 8002848:	791a      	ldrb	r2, [r3, #4]
 800284a:	f884 202a 	strb.w	r2, [r4, #42]	; 0x2a
 800284e:	795b      	ldrb	r3, [r3, #5]
 8002850:	f884 302b 	strb.w	r3, [r4, #43]	; 0x2b
 8002854:	f240 53dc 	movw	r3, #1500	; 0x5dc
 8002858:	84a3      	strh	r3, [r4, #36]	; 0x24
 800285a:	f894 302d 	ldrb.w	r3, [r4, #45]	; 0x2d
 800285e:	4817      	ldr	r0, [pc, #92]	; (80028bc <ethernetif_init+0x108>)
 8002860:	f043 030a 	orr.w	r3, r3, #10
 8002864:	f884 302d 	strb.w	r3, [r4, #45]	; 0x2d
 8002868:	f7fe f901 	bl	8000a6e <LAN8742_RegisterBusIO>
 800286c:	4813      	ldr	r0, [pc, #76]	; (80028bc <ethernetif_init+0x108>)
 800286e:	f7fe f912 	bl	8000a96 <LAN8742_Init>
 8002872:	b936      	cbnz	r6, 8002882 <ethernetif_init+0xce>
 8002874:	4620      	mov	r0, r4
 8002876:	f7ff ff57 	bl	8002728 <ethernet_link_check_state>
 800287a:	2000      	movs	r0, #0
 800287c:	b002      	add	sp, #8
 800287e:	e8bd 81f0 	ldmia.w	sp!, {r4, r5, r6, r7, r8, pc}
 8002882:	f7fd ff7d 	bl	8000780 <Error_Handler>
 8002886:	e7f8      	b.n	800287a <ethernetif_init+0xc6>
 8002888:	08009b10 	.word	0x08009b10
 800288c:	08009b2c 	.word	0x08009b2c
 8002890:	08009b3a 	.word	0x08009b3a
 8002894:	08007b79 	.word	0x08007b79
 8002898:	200002f0 	.word	0x200002f0
 800289c:	08002529 	.word	0x08002529
 80028a0:	40028000 	.word	0x40028000
 80028a4:	00e18000 	.word	0x00e18000
 80028a8:	200001f4 	.word	0x200001f4
 80028ac:	20000154 	.word	0x20000154
 80028b0:	200002b8 	.word	0x200002b8
 80028b4:	08009b74 	.word	0x08009b74
 80028b8:	2000000c 	.word	0x2000000c
 80028bc:	20000294 	.word	0x20000294

080028c0 <HAL_ETH_RxAllocateCallback>:
 80028c0:	b513      	push	{r0, r1, r4, lr}
 80028c2:	4604      	mov	r4, r0
 80028c4:	480c      	ldr	r0, [pc, #48]	; (80028f8 <HAL_ETH_RxAllocateCallback+0x38>)
 80028c6:	f000 fabb 	bl	8002e40 <memp_malloc_pool>
 80028ca:	4603      	mov	r3, r0
 80028cc:	b178      	cbz	r0, 80028ee <HAL_ETH_RxAllocateCallback+0x2e>
 80028ce:	f100 0220 	add.w	r2, r0, #32
 80028d2:	490a      	ldr	r1, [pc, #40]	; (80028fc <HAL_ETH_RxAllocateCallback+0x3c>)
 80028d4:	6022      	str	r2, [r4, #0]
 80028d6:	6101      	str	r1, [r0, #16]
 80028d8:	f44f 61c0 	mov.w	r1, #1536	; 0x600
 80028dc:	e9cd 2100 	strd	r2, r1, [sp]
 80028e0:	2100      	movs	r1, #0
 80028e2:	2241      	movs	r2, #65	; 0x41
 80028e4:	4608      	mov	r0, r1
 80028e6:	f000 fd13 	bl	8003310 <pbuf_alloced_custom>
 80028ea:	b002      	add	sp, #8
 80028ec:	bd10      	pop	{r4, pc}
 80028ee:	4a04      	ldr	r2, [pc, #16]	; (8002900 <HAL_ETH_RxAllocateCallback+0x40>)
 80028f0:	6020      	str	r0, [r4, #0]
 80028f2:	2101      	movs	r1, #1
 80028f4:	7011      	strb	r1, [r2, #0]
 80028f6:	e7f8      	b.n	80028ea <HAL_ETH_RxAllocateCallback+0x2a>
 80028f8:	08009b74 	.word	0x08009b74
 80028fc:	08002589 	.word	0x08002589
 8002900:	200002b4 	.word	0x200002b4

08002904 <HAL_ETH_RxLinkCallback>:
 8002904:	b530      	push	{r4, r5, lr}
 8002906:	2500      	movs	r5, #0
 8002908:	f842 5c20 	str.w	r5, [r2, #-32]
 800290c:	f1a2 0420 	sub.w	r4, r2, #32
 8002910:	f822 5c18 	strh.w	r5, [r2, #-24]
 8002914:	f822 3c16 	strh.w	r3, [r2, #-22]
 8002918:	6802      	ldr	r2, [r0, #0]
 800291a:	b922      	cbnz	r2, 8002926 <HAL_ETH_RxLinkCallback+0x22>
 800291c:	6004      	str	r4, [r0, #0]
 800291e:	600c      	str	r4, [r1, #0]
 8002920:	6802      	ldr	r2, [r0, #0]
 8002922:	b91a      	cbnz	r2, 800292c <HAL_ETH_RxLinkCallback+0x28>
 8002924:	bd30      	pop	{r4, r5, pc}
 8002926:	680a      	ldr	r2, [r1, #0]
 8002928:	6014      	str	r4, [r2, #0]
 800292a:	e7f8      	b.n	800291e <HAL_ETH_RxLinkCallback+0x1a>
 800292c:	8911      	ldrh	r1, [r2, #8]
 800292e:	4419      	add	r1, r3
 8002930:	8111      	strh	r1, [r2, #8]
 8002932:	6812      	ldr	r2, [r2, #0]
 8002934:	e7f5      	b.n	8002922 <HAL_ETH_RxLinkCallback+0x1e>

08002936 <lwip_htons>:
 8002936:	ba40      	rev16	r0, r0
 8002938:	b280      	uxth	r0, r0
 800293a:	4770      	bx	lr

0800293c <lwip_htonl>:
 800293c:	ba00      	rev	r0, r0
 800293e:	4770      	bx	lr

08002940 <lwip_init>:
 8002940:	b508      	push	{r3, lr}
 8002942:	f000 f80d 	bl	8002960 <mem_init>
 8002946:	f000 fa6d 	bl	8002e24 <memp_init>
 800294a:	f000 fb27 	bl	8002f9c <netif_init>
 800294e:	f004 fd1d 	bl	800738c <udp_init>
 8002952:	f000 fffd 	bl	8003950 <tcp_init>
 8002956:	e8bd 4008 	ldmia.w	sp!, {r3, lr}
 800295a:	f004 bcd5 	b.w	8007308 <sys_timeouts_init>
	...

08002960 <mem_init>:
 8002960:	4b0b      	ldr	r3, [pc, #44]	; (8002990 <mem_init+0x30>)
 8002962:	4a0c      	ldr	r2, [pc, #48]	; (8002994 <mem_init+0x34>)
 8002964:	f023 0303 	bic.w	r3, r3, #3
 8002968:	6013      	str	r3, [r2, #0]
 800296a:	f44f 62c8 	mov.w	r2, #1600	; 0x640
 800296e:	601a      	str	r2, [r3, #0]
 8002970:	2200      	movs	r2, #0
 8002972:	711a      	strb	r2, [r3, #4]
 8002974:	4a08      	ldr	r2, [pc, #32]	; (8002998 <mem_init+0x38>)
 8002976:	f503 61c8 	add.w	r1, r3, #1600	; 0x640
 800297a:	6011      	str	r1, [r2, #0]
 800297c:	4a07      	ldr	r2, [pc, #28]	; (800299c <mem_init+0x3c>)
 800297e:	f8c3 2640 	str.w	r2, [r3, #1600]	; 0x640
 8002982:	2201      	movs	r2, #1
 8002984:	f883 2644 	strb.w	r2, [r3, #1604]	; 0x644
 8002988:	4a05      	ldr	r2, [pc, #20]	; (80029a0 <mem_init+0x40>)
 800298a:	6013      	str	r3, [r2, #0]
 800298c:	4770      	bx	lr
 800298e:	bf00      	nop
 8002990:	20004d4f 	.word	0x20004d4f
 8002994:	20004d44 	.word	0x20004d44
 8002998:	20004d48 	.word	0x20004d48
 800299c:	06400640 	.word	0x06400640
 80029a0:	20004d40 	.word	0x20004d40

080029a4 <mem_free>:
 80029a4:	e92d 41f0 	stmdb	sp!, {r4, r5, r6, r7, r8, lr}
 80029a8:	4604      	mov	r4, r0
 80029aa:	2800      	cmp	r0, #0
 80029ac:	f000 8098 	beq.w	8002ae0 <mem_free+0x13c>
 80029b0:	0783      	lsls	r3, r0, #30
 80029b2:	d008      	beq.n	80029c6 <mem_free+0x22>
 80029b4:	4b4b      	ldr	r3, [pc, #300]	; (8002ae4 <mem_free+0x140>)
 80029b6:	494c      	ldr	r1, [pc, #304]	; (8002ae8 <mem_free+0x144>)
 80029b8:	f240 2273 	movw	r2, #627	; 0x273
 80029bc:	e8bd 41f0 	ldmia.w	sp!, {r4, r5, r6, r7, r8, lr}
 80029c0:	484a      	ldr	r0, [pc, #296]	; (8002aec <mem_free+0x148>)
 80029c2:	f006 b967 	b.w	8008c94 <iprintf>
 80029c6:	f8df 8148 	ldr.w	r8, [pc, #328]	; 8002b10 <mem_free+0x16c>
 80029ca:	f8d8 3000 	ldr.w	r3, [r8]
 80029ce:	f1a0 0508 	sub.w	r5, r0, #8
 80029d2:	42ab      	cmp	r3, r5
 80029d4:	d805      	bhi.n	80029e2 <mem_free+0x3e>
 80029d6:	4f46      	ldr	r7, [pc, #280]	; (8002af0 <mem_free+0x14c>)
 80029d8:	6839      	ldr	r1, [r7, #0]
 80029da:	f100 020c 	add.w	r2, r0, #12
 80029de:	4291      	cmp	r1, r2
 80029e0:	d204      	bcs.n	80029ec <mem_free+0x48>
 80029e2:	4b40      	ldr	r3, [pc, #256]	; (8002ae4 <mem_free+0x140>)
 80029e4:	4943      	ldr	r1, [pc, #268]	; (8002af4 <mem_free+0x150>)
 80029e6:	f240 227f 	movw	r2, #639	; 0x27f
 80029ea:	e7e7      	b.n	80029bc <mem_free+0x18>
 80029ec:	f810 2c04 	ldrb.w	r2, [r0, #-4]
 80029f0:	b922      	cbnz	r2, 80029fc <mem_free+0x58>
 80029f2:	4b3c      	ldr	r3, [pc, #240]	; (8002ae4 <mem_free+0x140>)
 80029f4:	4940      	ldr	r1, [pc, #256]	; (8002af8 <mem_free+0x154>)
 80029f6:	f44f 7223 	mov.w	r2, #652	; 0x28c
 80029fa:	e7df      	b.n	80029bc <mem_free+0x18>
 80029fc:	f830 6c08 	ldrh.w	r6, [r0, #-8]
 8002a00:	f830 0c06 	ldrh.w	r0, [r0, #-6]
 8002a04:	f5b6 6fc8 	cmp.w	r6, #1600	; 0x640
 8002a08:	d80f      	bhi.n	8002a2a <mem_free+0x86>
 8002a0a:	f5b0 6fc8 	cmp.w	r0, #1600	; 0x640
 8002a0e:	d80c      	bhi.n	8002a2a <mem_free+0x86>
 8002a10:	1aea      	subs	r2, r5, r3
 8002a12:	b292      	uxth	r2, r2
 8002a14:	4282      	cmp	r2, r0
 8002a16:	d002      	beq.n	8002a1e <mem_free+0x7a>
 8002a18:	5a18      	ldrh	r0, [r3, r0]
 8002a1a:	4290      	cmp	r0, r2
 8002a1c:	d105      	bne.n	8002a2a <mem_free+0x86>
 8002a1e:	4433      	add	r3, r6
 8002a20:	4299      	cmp	r1, r3
 8002a22:	d007      	beq.n	8002a34 <mem_free+0x90>
 8002a24:	885b      	ldrh	r3, [r3, #2]
 8002a26:	4293      	cmp	r3, r2
 8002a28:	d004      	beq.n	8002a34 <mem_free+0x90>
 8002a2a:	4b2e      	ldr	r3, [pc, #184]	; (8002ae4 <mem_free+0x140>)
 8002a2c:	4933      	ldr	r1, [pc, #204]	; (8002afc <mem_free+0x158>)
 8002a2e:	f240 2295 	movw	r2, #661	; 0x295
 8002a32:	e7c3      	b.n	80029bc <mem_free+0x18>
 8002a34:	4e32      	ldr	r6, [pc, #200]	; (8002b00 <mem_free+0x15c>)
 8002a36:	2300      	movs	r3, #0
 8002a38:	f804 3c04 	strb.w	r3, [r4, #-4]
 8002a3c:	6833      	ldr	r3, [r6, #0]
 8002a3e:	42ab      	cmp	r3, r5
 8002a40:	bf88      	it	hi
 8002a42:	6035      	strhi	r5, [r6, #0]
 8002a44:	42a9      	cmp	r1, r5
 8002a46:	d81c      	bhi.n	8002a82 <mem_free+0xde>
 8002a48:	4b26      	ldr	r3, [pc, #152]	; (8002ae4 <mem_free+0x140>)
 8002a4a:	492e      	ldr	r1, [pc, #184]	; (8002b04 <mem_free+0x160>)
 8002a4c:	4827      	ldr	r0, [pc, #156]	; (8002aec <mem_free+0x148>)
 8002a4e:	f44f 72f0 	mov.w	r2, #480	; 0x1e0
 8002a52:	f006 f91f 	bl	8008c94 <iprintf>
 8002a56:	f814 3c04 	ldrb.w	r3, [r4, #-4]
 8002a5a:	b133      	cbz	r3, 8002a6a <mem_free+0xc6>
 8002a5c:	4b21      	ldr	r3, [pc, #132]	; (8002ae4 <mem_free+0x140>)
 8002a5e:	492a      	ldr	r1, [pc, #168]	; (8002b08 <mem_free+0x164>)
 8002a60:	4822      	ldr	r0, [pc, #136]	; (8002aec <mem_free+0x148>)
 8002a62:	f240 12e1 	movw	r2, #481	; 0x1e1
 8002a66:	f006 f915 	bl	8008c94 <iprintf>
 8002a6a:	f834 3c08 	ldrh.w	r3, [r4, #-8]
 8002a6e:	f5b3 6fc8 	cmp.w	r3, #1600	; 0x640
 8002a72:	d906      	bls.n	8002a82 <mem_free+0xde>
 8002a74:	4b1b      	ldr	r3, [pc, #108]	; (8002ae4 <mem_free+0x140>)
 8002a76:	4925      	ldr	r1, [pc, #148]	; (8002b0c <mem_free+0x168>)
 8002a78:	481c      	ldr	r0, [pc, #112]	; (8002aec <mem_free+0x148>)
 8002a7a:	f44f 72f2 	mov.w	r2, #484	; 0x1e4
 8002a7e:	f006 f909 	bl	8008c94 <iprintf>
 8002a82:	f8d8 3000 	ldr.w	r3, [r8]
 8002a86:	f834 1c08 	ldrh.w	r1, [r4, #-8]
 8002a8a:	185a      	adds	r2, r3, r1
 8002a8c:	4295      	cmp	r5, r2
 8002a8e:	d012      	beq.n	8002ab6 <mem_free+0x112>
 8002a90:	7910      	ldrb	r0, [r2, #4]
 8002a92:	b980      	cbnz	r0, 8002ab6 <mem_free+0x112>
 8002a94:	6838      	ldr	r0, [r7, #0]
 8002a96:	4282      	cmp	r2, r0
 8002a98:	d00d      	beq.n	8002ab6 <mem_free+0x112>
 8002a9a:	6830      	ldr	r0, [r6, #0]
 8002a9c:	4282      	cmp	r2, r0
 8002a9e:	5a5a      	ldrh	r2, [r3, r1]
 8002aa0:	f824 2c08 	strh.w	r2, [r4, #-8]
 8002aa4:	5a5a      	ldrh	r2, [r3, r1]
 8002aa6:	bf08      	it	eq
 8002aa8:	6035      	streq	r5, [r6, #0]
 8002aaa:	f5b2 6fc8 	cmp.w	r2, #1600	; 0x640
 8002aae:	bf1e      	ittt	ne
 8002ab0:	18d2      	addne	r2, r2, r3
 8002ab2:	1ae9      	subne	r1, r5, r3
 8002ab4:	8051      	strhne	r1, [r2, #2]
 8002ab6:	f834 2c06 	ldrh.w	r2, [r4, #-6]
 8002aba:	1899      	adds	r1, r3, r2
 8002abc:	428d      	cmp	r5, r1
 8002abe:	d00f      	beq.n	8002ae0 <mem_free+0x13c>
 8002ac0:	7908      	ldrb	r0, [r1, #4]
 8002ac2:	b968      	cbnz	r0, 8002ae0 <mem_free+0x13c>
 8002ac4:	6830      	ldr	r0, [r6, #0]
 8002ac6:	4285      	cmp	r5, r0
 8002ac8:	bf08      	it	eq
 8002aca:	6031      	streq	r1, [r6, #0]
 8002acc:	f834 1c08 	ldrh.w	r1, [r4, #-8]
 8002ad0:	5299      	strh	r1, [r3, r2]
 8002ad2:	f834 1c08 	ldrh.w	r1, [r4, #-8]
 8002ad6:	f5b1 6fc8 	cmp.w	r1, #1600	; 0x640
 8002ada:	bf1c      	itt	ne
 8002adc:	185b      	addne	r3, r3, r1
 8002ade:	805a      	strhne	r2, [r3, #2]
 8002ae0:	e8bd 81f0 	ldmia.w	sp!, {r4, r5, r6, r7, r8, pc}
 8002ae4:	08009b80 	.word	0x08009b80
 8002ae8:	08009baf 	.word	0x08009baf
 8002aec:	08009b3a 	.word	0x08009b3a
 8002af0:	20004d48 	.word	0x20004d48
 8002af4:	08009bd0 	.word	0x08009bd0
 8002af8:	08009be9 	.word	0x08009be9
 8002afc:	08009c0f 	.word	0x08009c0f
 8002b00:	20004d40 	.word	0x20004d40
 8002b04:	08009c41 	.word	0x08009c41
 8002b08:	08009c5b 	.word	0x08009c5b
 8002b0c:	08009c76 	.word	0x08009c76
 8002b10:	20004d44 	.word	0x20004d44

08002b14 <mem_trim>:
 8002b14:	e92d 47f0 	stmdb	sp!, {r4, r5, r6, r7, r8, r9, sl, lr}
 8002b18:	1ccc      	adds	r4, r1, #3
 8002b1a:	f024 0403 	bic.w	r4, r4, #3
 8002b1e:	b2a4      	uxth	r4, r4
 8002b20:	2c0b      	cmp	r4, #11
 8002b22:	4605      	mov	r5, r0
 8002b24:	d904      	bls.n	8002b30 <mem_trim+0x1c>
 8002b26:	f5b4 6fc8 	cmp.w	r4, #1600	; 0x640
 8002b2a:	d902      	bls.n	8002b32 <mem_trim+0x1e>
 8002b2c:	2500      	movs	r5, #0
 8002b2e:	e059      	b.n	8002be4 <mem_trim+0xd0>
 8002b30:	240c      	movs	r4, #12
 8002b32:	42a1      	cmp	r1, r4
 8002b34:	d8fa      	bhi.n	8002b2c <mem_trim+0x18>
 8002b36:	4f41      	ldr	r7, [pc, #260]	; (8002c3c <mem_trim+0x128>)
 8002b38:	683b      	ldr	r3, [r7, #0]
 8002b3a:	42ab      	cmp	r3, r5
 8002b3c:	d803      	bhi.n	8002b46 <mem_trim+0x32>
 8002b3e:	4b40      	ldr	r3, [pc, #256]	; (8002c40 <mem_trim+0x12c>)
 8002b40:	681b      	ldr	r3, [r3, #0]
 8002b42:	42ab      	cmp	r3, r5
 8002b44:	d806      	bhi.n	8002b54 <mem_trim+0x40>
 8002b46:	4b3f      	ldr	r3, [pc, #252]	; (8002c44 <mem_trim+0x130>)
 8002b48:	493f      	ldr	r1, [pc, #252]	; (8002c48 <mem_trim+0x134>)
 8002b4a:	4840      	ldr	r0, [pc, #256]	; (8002c4c <mem_trim+0x138>)
 8002b4c:	f240 22d1 	movw	r2, #721	; 0x2d1
 8002b50:	f006 f8a0 	bl	8008c94 <iprintf>
 8002b54:	f8d7 a000 	ldr.w	sl, [r7]
 8002b58:	45aa      	cmp	sl, r5
 8002b5a:	d843      	bhi.n	8002be4 <mem_trim+0xd0>
 8002b5c:	4b38      	ldr	r3, [pc, #224]	; (8002c40 <mem_trim+0x12c>)
 8002b5e:	681b      	ldr	r3, [r3, #0]
 8002b60:	42ab      	cmp	r3, r5
 8002b62:	d93f      	bls.n	8002be4 <mem_trim+0xd0>
 8002b64:	f835 9c08 	ldrh.w	r9, [r5, #-8]
 8002b68:	f1a5 0608 	sub.w	r6, r5, #8
 8002b6c:	eba6 060a 	sub.w	r6, r6, sl
 8002b70:	b2b6      	uxth	r6, r6
 8002b72:	f1a9 0308 	sub.w	r3, r9, #8
 8002b76:	1b9b      	subs	r3, r3, r6
 8002b78:	b29b      	uxth	r3, r3
 8002b7a:	42a3      	cmp	r3, r4
 8002b7c:	d207      	bcs.n	8002b8e <mem_trim+0x7a>
 8002b7e:	4b31      	ldr	r3, [pc, #196]	; (8002c44 <mem_trim+0x130>)
 8002b80:	4933      	ldr	r1, [pc, #204]	; (8002c50 <mem_trim+0x13c>)
 8002b82:	4832      	ldr	r0, [pc, #200]	; (8002c4c <mem_trim+0x138>)
 8002b84:	f44f 7239 	mov.w	r2, #740	; 0x2e4
 8002b88:	f006 f884 	bl	8008c94 <iprintf>
 8002b8c:	e7ce      	b.n	8002b2c <mem_trim+0x18>
 8002b8e:	d029      	beq.n	8002be4 <mem_trim+0xd0>
 8002b90:	eb0a 0809 	add.w	r8, sl, r9
 8002b94:	f898 2004 	ldrb.w	r2, [r8, #4]
 8002b98:	bb3a      	cbnz	r2, 8002bea <mem_trim+0xd6>
 8002b9a:	f5b9 6fc8 	cmp.w	r9, #1600	; 0x640
 8002b9e:	d106      	bne.n	8002bae <mem_trim+0x9a>
 8002ba0:	4b28      	ldr	r3, [pc, #160]	; (8002c44 <mem_trim+0x130>)
 8002ba2:	492c      	ldr	r1, [pc, #176]	; (8002c54 <mem_trim+0x140>)
 8002ba4:	4829      	ldr	r0, [pc, #164]	; (8002c4c <mem_trim+0x138>)
 8002ba6:	f240 22f5 	movw	r2, #757	; 0x2f5
 8002baa:	f006 f873 	bl	8008c94 <iprintf>
 8002bae:	482a      	ldr	r0, [pc, #168]	; (8002c58 <mem_trim+0x144>)
 8002bb0:	683a      	ldr	r2, [r7, #0]
 8002bb2:	f83a c009 	ldrh.w	ip, [sl, r9]
 8002bb6:	f106 0308 	add.w	r3, r6, #8
 8002bba:	4423      	add	r3, r4
 8002bbc:	6804      	ldr	r4, [r0, #0]
 8002bbe:	b299      	uxth	r1, r3
 8002bc0:	4544      	cmp	r4, r8
 8002bc2:	fa12 f383 	uxtah	r3, r2, r3
 8002bc6:	bf08      	it	eq
 8002bc8:	6003      	streq	r3, [r0, #0]
 8002bca:	2000      	movs	r0, #0
 8002bcc:	7118      	strb	r0, [r3, #4]
 8002bce:	f822 c001 	strh.w	ip, [r2, r1]
 8002bd2:	805e      	strh	r6, [r3, #2]
 8002bd4:	f825 1c08 	strh.w	r1, [r5, #-8]
 8002bd8:	5a53      	ldrh	r3, [r2, r1]
 8002bda:	f5b3 6fc8 	cmp.w	r3, #1600	; 0x640
 8002bde:	d001      	beq.n	8002be4 <mem_trim+0xd0>
 8002be0:	441a      	add	r2, r3
 8002be2:	8051      	strh	r1, [r2, #2]
 8002be4:	4628      	mov	r0, r5
 8002be6:	e8bd 87f0 	ldmia.w	sp!, {r4, r5, r6, r7, r8, r9, sl, pc}
 8002bea:	f104 0214 	add.w	r2, r4, #20
 8002bee:	b292      	uxth	r2, r2
 8002bf0:	429a      	cmp	r2, r3
 8002bf2:	d8f7      	bhi.n	8002be4 <mem_trim+0xd0>
 8002bf4:	f106 0308 	add.w	r3, r6, #8
 8002bf8:	441c      	add	r4, r3
 8002bfa:	f5b9 6fc8 	cmp.w	r9, #1600	; 0x640
 8002bfe:	b2a4      	uxth	r4, r4
 8002c00:	d106      	bne.n	8002c10 <mem_trim+0xfc>
 8002c02:	4b10      	ldr	r3, [pc, #64]	; (8002c44 <mem_trim+0x130>)
 8002c04:	4913      	ldr	r1, [pc, #76]	; (8002c54 <mem_trim+0x140>)
 8002c06:	4811      	ldr	r0, [pc, #68]	; (8002c4c <mem_trim+0x138>)
 8002c08:	f240 3216 	movw	r2, #790	; 0x316
 8002c0c:	f006 f842 	bl	8008c94 <iprintf>
 8002c10:	4911      	ldr	r1, [pc, #68]	; (8002c58 <mem_trim+0x144>)
 8002c12:	683b      	ldr	r3, [r7, #0]
 8002c14:	6808      	ldr	r0, [r1, #0]
 8002c16:	191a      	adds	r2, r3, r4
 8002c18:	4290      	cmp	r0, r2
 8002c1a:	bf88      	it	hi
 8002c1c:	600a      	strhi	r2, [r1, #0]
 8002c1e:	2100      	movs	r1, #0
 8002c20:	7111      	strb	r1, [r2, #4]
 8002c22:	f835 1c08 	ldrh.w	r1, [r5, #-8]
 8002c26:	5319      	strh	r1, [r3, r4]
 8002c28:	8056      	strh	r6, [r2, #2]
 8002c2a:	f825 4c08 	strh.w	r4, [r5, #-8]
 8002c2e:	5b1a      	ldrh	r2, [r3, r4]
 8002c30:	f5b2 6fc8 	cmp.w	r2, #1600	; 0x640
 8002c34:	d0d6      	beq.n	8002be4 <mem_trim+0xd0>
 8002c36:	4413      	add	r3, r2
 8002c38:	805c      	strh	r4, [r3, #2]
 8002c3a:	e7d3      	b.n	8002be4 <mem_trim+0xd0>
 8002c3c:	20004d44 	.word	0x20004d44
 8002c40:	20004d48 	.word	0x20004d48
 8002c44:	08009b80 	.word	0x08009b80
 8002c48:	08009ca0 	.word	0x08009ca0
 8002c4c:	08009b3a 	.word	0x08009b3a
 8002c50:	08009cb7 	.word	0x08009cb7
 8002c54:	08009cd7 	.word	0x08009cd7
 8002c58:	20004d40 	.word	0x20004d40

08002c5c <mem_malloc>:
 8002c5c:	e92d 43f8 	stmdb	sp!, {r3, r4, r5, r6, r7, r8, r9, lr}
 8002c60:	2800      	cmp	r0, #0
 8002c62:	d07f      	beq.n	8002d64 <mem_malloc+0x108>
 8002c64:	1cc5      	adds	r5, r0, #3
 8002c66:	f025 0503 	bic.w	r5, r5, #3
 8002c6a:	b2ad      	uxth	r5, r5
 8002c6c:	2d0b      	cmp	r5, #11
 8002c6e:	d904      	bls.n	8002c7a <mem_malloc+0x1e>
 8002c70:	f5b5 6fc8 	cmp.w	r5, #1600	; 0x640
 8002c74:	d902      	bls.n	8002c7c <mem_malloc+0x20>
 8002c76:	2000      	movs	r0, #0
 8002c78:	e074      	b.n	8002d64 <mem_malloc+0x108>
 8002c7a:	250c      	movs	r5, #12
 8002c7c:	42a8      	cmp	r0, r5
 8002c7e:	d8fa      	bhi.n	8002c76 <mem_malloc+0x1a>
 8002c80:	f8df 9114 	ldr.w	r9, [pc, #276]	; 8002d98 <mem_malloc+0x13c>
 8002c84:	f8df 8114 	ldr.w	r8, [pc, #276]	; 8002d9c <mem_malloc+0x140>
 8002c88:	f8d9 2000 	ldr.w	r2, [r9]
 8002c8c:	f8d8 6000 	ldr.w	r6, [r8]
 8002c90:	1ab6      	subs	r6, r6, r2
 8002c92:	b2b6      	uxth	r6, r6
 8002c94:	f5c5 60c8 	rsb	r0, r5, #1600	; 0x640
 8002c98:	f06f 0707 	mvn.w	r7, #7
 8002c9c:	4286      	cmp	r6, r0
 8002c9e:	d2ea      	bcs.n	8002c76 <mem_malloc+0x1a>
 8002ca0:	1994      	adds	r4, r2, r6
 8002ca2:	5b91      	ldrh	r1, [r2, r6]
 8002ca4:	7923      	ldrb	r3, [r4, #4]
 8002ca6:	2b00      	cmp	r3, #0
 8002ca8:	d164      	bne.n	8002d74 <mem_malloc+0x118>
 8002caa:	1bbb      	subs	r3, r7, r6
 8002cac:	440b      	add	r3, r1
 8002cae:	42ab      	cmp	r3, r5
 8002cb0:	d360      	bcc.n	8002d74 <mem_malloc+0x118>
 8002cb2:	f105 0214 	add.w	r2, r5, #20
 8002cb6:	4293      	cmp	r3, r2
 8002cb8:	d356      	bcc.n	8002d68 <mem_malloc+0x10c>
 8002cba:	f105 0708 	add.w	r7, r5, #8
 8002cbe:	4437      	add	r7, r6
 8002cc0:	b2bf      	uxth	r7, r7
 8002cc2:	f5b7 6fc8 	cmp.w	r7, #1600	; 0x640
 8002cc6:	d106      	bne.n	8002cd6 <mem_malloc+0x7a>
 8002cc8:	4b2b      	ldr	r3, [pc, #172]	; (8002d78 <mem_malloc+0x11c>)
 8002cca:	492c      	ldr	r1, [pc, #176]	; (8002d7c <mem_malloc+0x120>)
 8002ccc:	482c      	ldr	r0, [pc, #176]	; (8002d80 <mem_malloc+0x124>)
 8002cce:	f240 3287 	movw	r2, #903	; 0x387
 8002cd2:	f005 ffdf 	bl	8008c94 <iprintf>
 8002cd6:	f8d9 3000 	ldr.w	r3, [r9]
 8002cda:	19da      	adds	r2, r3, r7
 8002cdc:	2100      	movs	r1, #0
 8002cde:	7111      	strb	r1, [r2, #4]
 8002ce0:	8821      	ldrh	r1, [r4, #0]
 8002ce2:	53d9      	strh	r1, [r3, r7]
 8002ce4:	8056      	strh	r6, [r2, #2]
 8002ce6:	2201      	movs	r2, #1
 8002ce8:	8027      	strh	r7, [r4, #0]
 8002cea:	7122      	strb	r2, [r4, #4]
 8002cec:	5bda      	ldrh	r2, [r3, r7]
 8002cee:	f5b2 6fc8 	cmp.w	r2, #1600	; 0x640
 8002cf2:	d001      	beq.n	8002cf8 <mem_malloc+0x9c>
 8002cf4:	4413      	add	r3, r2
 8002cf6:	805f      	strh	r7, [r3, #2]
 8002cf8:	f8d8 3000 	ldr.w	r3, [r8]
 8002cfc:	4e21      	ldr	r6, [pc, #132]	; (8002d84 <mem_malloc+0x128>)
 8002cfe:	42a3      	cmp	r3, r4
 8002d00:	6831      	ldr	r1, [r6, #0]
 8002d02:	d111      	bne.n	8002d28 <mem_malloc+0xcc>
 8002d04:	f8d9 0000 	ldr.w	r0, [r9]
 8002d08:	791a      	ldrb	r2, [r3, #4]
 8002d0a:	b10a      	cbz	r2, 8002d10 <mem_malloc+0xb4>
 8002d0c:	4299      	cmp	r1, r3
 8002d0e:	d12e      	bne.n	8002d6e <mem_malloc+0x112>
 8002d10:	4299      	cmp	r1, r3
 8002d12:	f8c8 3000 	str.w	r3, [r8]
 8002d16:	d007      	beq.n	8002d28 <mem_malloc+0xcc>
 8002d18:	b132      	cbz	r2, 8002d28 <mem_malloc+0xcc>
 8002d1a:	4b17      	ldr	r3, [pc, #92]	; (8002d78 <mem_malloc+0x11c>)
 8002d1c:	491a      	ldr	r1, [pc, #104]	; (8002d88 <mem_malloc+0x12c>)
 8002d1e:	4818      	ldr	r0, [pc, #96]	; (8002d80 <mem_malloc+0x124>)
 8002d20:	f240 32b5 	movw	r2, #949	; 0x3b5
 8002d24:	f005 ffb6 	bl	8008c94 <iprintf>
 8002d28:	6833      	ldr	r3, [r6, #0]
 8002d2a:	3508      	adds	r5, #8
 8002d2c:	4425      	add	r5, r4
 8002d2e:	42ab      	cmp	r3, r5
 8002d30:	d206      	bcs.n	8002d40 <mem_malloc+0xe4>
 8002d32:	4b11      	ldr	r3, [pc, #68]	; (8002d78 <mem_malloc+0x11c>)
 8002d34:	4915      	ldr	r1, [pc, #84]	; (8002d8c <mem_malloc+0x130>)
 8002d36:	4812      	ldr	r0, [pc, #72]	; (8002d80 <mem_malloc+0x124>)
 8002d38:	f240 32b9 	movw	r2, #953	; 0x3b9
 8002d3c:	f005 ffaa 	bl	8008c94 <iprintf>
 8002d40:	07a3      	lsls	r3, r4, #30
 8002d42:	d00d      	beq.n	8002d60 <mem_malloc+0x104>
 8002d44:	4b0c      	ldr	r3, [pc, #48]	; (8002d78 <mem_malloc+0x11c>)
 8002d46:	4912      	ldr	r1, [pc, #72]	; (8002d90 <mem_malloc+0x134>)
 8002d48:	480d      	ldr	r0, [pc, #52]	; (8002d80 <mem_malloc+0x124>)
 8002d4a:	f240 32bb 	movw	r2, #955	; 0x3bb
 8002d4e:	f005 ffa1 	bl	8008c94 <iprintf>
 8002d52:	4b09      	ldr	r3, [pc, #36]	; (8002d78 <mem_malloc+0x11c>)
 8002d54:	490f      	ldr	r1, [pc, #60]	; (8002d94 <mem_malloc+0x138>)
 8002d56:	480a      	ldr	r0, [pc, #40]	; (8002d80 <mem_malloc+0x124>)
 8002d58:	f240 32bd 	movw	r2, #957	; 0x3bd
 8002d5c:	f005 ff9a 	bl	8008c94 <iprintf>
 8002d60:	f104 0008 	add.w	r0, r4, #8
 8002d64:	e8bd 83f8 	ldmia.w	sp!, {r3, r4, r5, r6, r7, r8, r9, pc}
 8002d68:	2301      	movs	r3, #1
 8002d6a:	7123      	strb	r3, [r4, #4]
 8002d6c:	e7c4      	b.n	8002cf8 <mem_malloc+0x9c>
 8002d6e:	881b      	ldrh	r3, [r3, #0]
 8002d70:	4403      	add	r3, r0
 8002d72:	e7c9      	b.n	8002d08 <mem_malloc+0xac>
 8002d74:	460e      	mov	r6, r1
 8002d76:	e791      	b.n	8002c9c <mem_malloc+0x40>
 8002d78:	08009b80 	.word	0x08009b80
 8002d7c:	08009cd7 	.word	0x08009cd7
 8002d80:	08009b3a 	.word	0x08009b3a
 8002d84:	20004d48 	.word	0x20004d48
 8002d88:	08009ce8 	.word	0x08009ce8
 8002d8c:	08009d01 	.word	0x08009d01
 8002d90:	08009d31 	.word	0x08009d31
 8002d94:	08009d60 	.word	0x08009d60
 8002d98:	20004d44 	.word	0x20004d44
 8002d9c:	20004d40 	.word	0x20004d40

08002da0 <do_memp_free_pool>:
 8002da0:	b538      	push	{r3, r4, r5, lr}
 8002da2:	078b      	lsls	r3, r1, #30
 8002da4:	4605      	mov	r5, r0
 8002da6:	460c      	mov	r4, r1
 8002da8:	d006      	beq.n	8002db8 <do_memp_free_pool+0x18>
 8002daa:	4b06      	ldr	r3, [pc, #24]	; (8002dc4 <do_memp_free_pool+0x24>)
 8002dac:	4906      	ldr	r1, [pc, #24]	; (8002dc8 <do_memp_free_pool+0x28>)
 8002dae:	4807      	ldr	r0, [pc, #28]	; (8002dcc <do_memp_free_pool+0x2c>)
 8002db0:	f44f 72b6 	mov.w	r2, #364	; 0x16c
 8002db4:	f005 ff6e 	bl	8008c94 <iprintf>
 8002db8:	68ab      	ldr	r3, [r5, #8]
 8002dba:	681a      	ldr	r2, [r3, #0]
 8002dbc:	6022      	str	r2, [r4, #0]
 8002dbe:	601c      	str	r4, [r3, #0]
 8002dc0:	bd38      	pop	{r3, r4, r5, pc}
 8002dc2:	bf00      	nop
 8002dc4:	08009d83 	.word	0x08009d83
 8002dc8:	08009db3 	.word	0x08009db3
 8002dcc:	08009b3a 	.word	0x08009b3a

08002dd0 <do_memp_malloc_pool.isra.0>:
 8002dd0:	b510      	push	{r4, lr}
 8002dd2:	6804      	ldr	r4, [r0, #0]
 8002dd4:	b154      	cbz	r4, 8002dec <do_memp_malloc_pool.isra.0+0x1c>
 8002dd6:	6823      	ldr	r3, [r4, #0]
 8002dd8:	6003      	str	r3, [r0, #0]
 8002dda:	07a3      	lsls	r3, r4, #30
 8002ddc:	d006      	beq.n	8002dec <do_memp_malloc_pool.isra.0+0x1c>
 8002dde:	4b04      	ldr	r3, [pc, #16]	; (8002df0 <do_memp_malloc_pool.isra.0+0x20>)
 8002de0:	4904      	ldr	r1, [pc, #16]	; (8002df4 <do_memp_malloc_pool.isra.0+0x24>)
 8002de2:	4805      	ldr	r0, [pc, #20]	; (8002df8 <do_memp_malloc_pool.isra.0+0x28>)
 8002de4:	f44f 728c 	mov.w	r2, #280	; 0x118
 8002de8:	f005 ff54 	bl	8008c94 <iprintf>
 8002dec:	4620      	mov	r0, r4
 8002dee:	bd10      	pop	{r4, pc}
 8002df0:	08009d83 	.word	0x08009d83
 8002df4:	08009dd3 	.word	0x08009dd3
 8002df8:	08009b3a 	.word	0x08009b3a

08002dfc <memp_init_pool>:
 8002dfc:	6843      	ldr	r3, [r0, #4]
 8002dfe:	6881      	ldr	r1, [r0, #8]
 8002e00:	b530      	push	{r4, r5, lr}
 8002e02:	2200      	movs	r2, #0
 8002e04:	3303      	adds	r3, #3
 8002e06:	8844      	ldrh	r4, [r0, #2]
 8002e08:	600a      	str	r2, [r1, #0]
 8002e0a:	f023 0303 	bic.w	r3, r3, #3
 8002e0e:	4294      	cmp	r4, r2
 8002e10:	dc00      	bgt.n	8002e14 <memp_init_pool+0x18>
 8002e12:	bd30      	pop	{r4, r5, pc}
 8002e14:	680d      	ldr	r5, [r1, #0]
 8002e16:	601d      	str	r5, [r3, #0]
 8002e18:	8805      	ldrh	r5, [r0, #0]
 8002e1a:	600b      	str	r3, [r1, #0]
 8002e1c:	3201      	adds	r2, #1
 8002e1e:	442b      	add	r3, r5
 8002e20:	e7f5      	b.n	8002e0e <memp_init_pool+0x12>
	...

08002e24 <memp_init>:
 8002e24:	b538      	push	{r3, r4, r5, lr}
 8002e26:	4d05      	ldr	r5, [pc, #20]	; (8002e3c <memp_init+0x18>)
 8002e28:	2409      	movs	r4, #9
 8002e2a:	3c01      	subs	r4, #1
 8002e2c:	f855 0b04 	ldr.w	r0, [r5], #4
 8002e30:	b2a4      	uxth	r4, r4
 8002e32:	f7ff ffe3 	bl	8002dfc <memp_init_pool>
 8002e36:	2c00      	cmp	r4, #0
 8002e38:	d1f7      	bne.n	8002e2a <memp_init+0x6>
 8002e3a:	bd38      	pop	{r3, r4, r5, pc}
 8002e3c:	08009eac 	.word	0x08009eac

08002e40 <memp_malloc_pool>:
 8002e40:	b510      	push	{r4, lr}
 8002e42:	4604      	mov	r4, r0
 8002e44:	b120      	cbz	r0, 8002e50 <memp_malloc_pool+0x10>
 8002e46:	e8bd 4010 	ldmia.w	sp!, {r4, lr}
 8002e4a:	6880      	ldr	r0, [r0, #8]
 8002e4c:	f7ff bfc0 	b.w	8002dd0 <do_memp_malloc_pool.isra.0>
 8002e50:	4b04      	ldr	r3, [pc, #16]	; (8002e64 <memp_malloc_pool+0x24>)
 8002e52:	4905      	ldr	r1, [pc, #20]	; (8002e68 <memp_malloc_pool+0x28>)
 8002e54:	4805      	ldr	r0, [pc, #20]	; (8002e6c <memp_malloc_pool+0x2c>)
 8002e56:	f44f 729e 	mov.w	r2, #316	; 0x13c
 8002e5a:	f005 ff1b 	bl	8008c94 <iprintf>
 8002e5e:	4620      	mov	r0, r4
 8002e60:	bd10      	pop	{r4, pc}
 8002e62:	bf00      	nop
 8002e64:	08009d83 	.word	0x08009d83
 8002e68:	08009df6 	.word	0x08009df6
 8002e6c:	08009b3a 	.word	0x08009b3a

08002e70 <memp_malloc>:
 8002e70:	2808      	cmp	r0, #8
 8002e72:	b508      	push	{r3, lr}
 8002e74:	d807      	bhi.n	8002e86 <memp_malloc+0x16>
 8002e76:	4b08      	ldr	r3, [pc, #32]	; (8002e98 <memp_malloc+0x28>)
 8002e78:	f853 3020 	ldr.w	r3, [r3, r0, lsl #2]
 8002e7c:	6898      	ldr	r0, [r3, #8]
 8002e7e:	e8bd 4008 	ldmia.w	sp!, {r3, lr}
 8002e82:	f7ff bfa5 	b.w	8002dd0 <do_memp_malloc_pool.isra.0>
 8002e86:	4b05      	ldr	r3, [pc, #20]	; (8002e9c <memp_malloc+0x2c>)
 8002e88:	4905      	ldr	r1, [pc, #20]	; (8002ea0 <memp_malloc+0x30>)
 8002e8a:	4806      	ldr	r0, [pc, #24]	; (8002ea4 <memp_malloc+0x34>)
 8002e8c:	f240 1257 	movw	r2, #343	; 0x157
 8002e90:	f005 ff00 	bl	8008c94 <iprintf>
 8002e94:	2000      	movs	r0, #0
 8002e96:	bd08      	pop	{r3, pc}
 8002e98:	08009eac 	.word	0x08009eac
 8002e9c:	08009d83 	.word	0x08009d83
 8002ea0:	08009e08 	.word	0x08009e08
 8002ea4:	08009b3a 	.word	0x08009b3a

08002ea8 <memp_free_pool>:
 8002ea8:	b940      	cbnz	r0, 8002ebc <memp_free_pool+0x14>
 8002eaa:	4b06      	ldr	r3, [pc, #24]	; (8002ec4 <memp_free_pool+0x1c>)
 8002eac:	4906      	ldr	r1, [pc, #24]	; (8002ec8 <memp_free_pool+0x20>)
 8002eae:	4807      	ldr	r0, [pc, #28]	; (8002ecc <memp_free_pool+0x24>)
 8002eb0:	f240 1295 	movw	r2, #405	; 0x195
 8002eb4:	f005 beee 	b.w	8008c94 <iprintf>
 8002eb8:	f7ff bf72 	b.w	8002da0 <do_memp_free_pool>
 8002ebc:	2900      	cmp	r1, #0
 8002ebe:	d1fb      	bne.n	8002eb8 <memp_free_pool+0x10>
 8002ec0:	4770      	bx	lr
 8002ec2:	bf00      	nop
 8002ec4:	08009d83 	.word	0x08009d83
 8002ec8:	08009df6 	.word	0x08009df6
 8002ecc:	08009b3a 	.word	0x08009b3a

08002ed0 <memp_free>:
 8002ed0:	2808      	cmp	r0, #8
 8002ed2:	d906      	bls.n	8002ee2 <memp_free+0x12>
 8002ed4:	4b06      	ldr	r3, [pc, #24]	; (8002ef0 <memp_free+0x20>)
 8002ed6:	4907      	ldr	r1, [pc, #28]	; (8002ef4 <memp_free+0x24>)
 8002ed8:	4807      	ldr	r0, [pc, #28]	; (8002ef8 <memp_free+0x28>)
 8002eda:	f44f 72d5 	mov.w	r2, #426	; 0x1aa
 8002ede:	f005 bed9 	b.w	8008c94 <iprintf>
 8002ee2:	b121      	cbz	r1, 8002eee <memp_free+0x1e>
 8002ee4:	4b05      	ldr	r3, [pc, #20]	; (8002efc <memp_free+0x2c>)
 8002ee6:	f853 0020 	ldr.w	r0, [r3, r0, lsl #2]
 8002eea:	f7ff bf59 	b.w	8002da0 <do_memp_free_pool>
 8002eee:	4770      	bx	lr
 8002ef0:	08009d83 	.word	0x08009d83
 8002ef4:	08009e25 	.word	0x08009e25
 8002ef8:	08009b3a 	.word	0x08009b3a
 8002efc:	08009eac 	.word	0x08009eac

08002f00 <netif_null_output_ip4>:
 8002f00:	f06f 000b 	mvn.w	r0, #11
 8002f04:	4770      	bx	lr
	...

08002f08 <netif_issue_reports>:
 8002f08:	b510      	push	{r4, lr}
 8002f0a:	4604      	mov	r4, r0
 8002f0c:	b930      	cbnz	r0, 8002f1c <netif_issue_reports+0x14>
 8002f0e:	4b0c      	ldr	r3, [pc, #48]	; (8002f40 <netif_issue_reports+0x38>)
 8002f10:	490c      	ldr	r1, [pc, #48]	; (8002f44 <netif_issue_reports+0x3c>)
 8002f12:	480d      	ldr	r0, [pc, #52]	; (8002f48 <netif_issue_reports+0x40>)
 8002f14:	f240 326d 	movw	r2, #877	; 0x36d
 8002f18:	f005 febc 	bl	8008c94 <iprintf>
 8002f1c:	f894 302d 	ldrb.w	r3, [r4, #45]	; 0x2d
 8002f20:	f003 0205 	and.w	r2, r3, #5
 8002f24:	2a05      	cmp	r2, #5
 8002f26:	d109      	bne.n	8002f3c <netif_issue_reports+0x34>
 8002f28:	6862      	ldr	r2, [r4, #4]
 8002f2a:	b13a      	cbz	r2, 8002f3c <netif_issue_reports+0x34>
 8002f2c:	071b      	lsls	r3, r3, #28
 8002f2e:	d505      	bpl.n	8002f3c <netif_issue_reports+0x34>
 8002f30:	1d21      	adds	r1, r4, #4
 8002f32:	4620      	mov	r0, r4
 8002f34:	e8bd 4010 	ldmia.w	sp!, {r4, lr}
 8002f38:	f004 bcee 	b.w	8007918 <etharp_request>
 8002f3c:	bd10      	pop	{r4, pc}
 8002f3e:	bf00      	nop
 8002f40:	08009ed0 	.word	0x08009ed0
 8002f44:	08009f01 	.word	0x08009f01
 8002f48:	08009b3a 	.word	0x08009b3a

08002f4c <netif_do_set_ipaddr.isra.0>:
 8002f4c:	b573      	push	{r0, r1, r4, r5, r6, lr}
 8002f4e:	4605      	mov	r5, r0
 8002f50:	4616      	mov	r6, r2
 8002f52:	460c      	mov	r4, r1
 8002f54:	b931      	cbnz	r1, 8002f64 <netif_do_set_ipaddr.isra.0+0x18>
 8002f56:	4b0e      	ldr	r3, [pc, #56]	; (8002f90 <netif_do_set_ipaddr.isra.0+0x44>)
 8002f58:	490e      	ldr	r1, [pc, #56]	; (8002f94 <netif_do_set_ipaddr.isra.0+0x48>)
 8002f5a:	480f      	ldr	r0, [pc, #60]	; (8002f98 <netif_do_set_ipaddr.isra.0+0x4c>)
 8002f5c:	f240 12cb 	movw	r2, #459	; 0x1cb
 8002f60:	f005 fe98 	bl	8008c94 <iprintf>
 8002f64:	686b      	ldr	r3, [r5, #4]
 8002f66:	6822      	ldr	r2, [r4, #0]
 8002f68:	429a      	cmp	r2, r3
 8002f6a:	d00f      	beq.n	8002f8c <netif_do_set_ipaddr.isra.0+0x40>
 8002f6c:	6033      	str	r3, [r6, #0]
 8002f6e:	a901      	add	r1, sp, #4
 8002f70:	4630      	mov	r0, r6
 8002f72:	9201      	str	r2, [sp, #4]
 8002f74:	f001 f858 	bl	8004028 <tcp_netif_ip_addr_changed>
 8002f78:	a901      	add	r1, sp, #4
 8002f7a:	4630      	mov	r0, r6
 8002f7c:	f004 faea 	bl	8007554 <udp_netif_ip_addr_changed>
 8002f80:	6823      	ldr	r3, [r4, #0]
 8002f82:	606b      	str	r3, [r5, #4]
 8002f84:	2101      	movs	r1, #1
 8002f86:	4628      	mov	r0, r5
 8002f88:	f7ff ffbe 	bl	8002f08 <netif_issue_reports>
 8002f8c:	b002      	add	sp, #8
 8002f8e:	bd70      	pop	{r4, r5, r6, pc}
 8002f90:	08009ed0 	.word	0x08009ed0
 8002f94:	08009f24 	.word	0x08009f24
 8002f98:	08009b3a 	.word	0x08009b3a

08002f9c <netif_init>:
 8002f9c:	4770      	bx	lr
	...

08002fa0 <netif_set_addr>:
 8002fa0:	b5f7      	push	{r0, r1, r2, r4, r5, r6, r7, lr}
 8002fa2:	4d14      	ldr	r5, [pc, #80]	; (8002ff4 <netif_set_addr+0x54>)
 8002fa4:	2900      	cmp	r1, #0
 8002fa6:	bf14      	ite	ne
 8002fa8:	460e      	movne	r6, r1
 8002faa:	462e      	moveq	r6, r5
 8002fac:	2a00      	cmp	r2, #0
 8002fae:	bf14      	ite	ne
 8002fb0:	4617      	movne	r7, r2
 8002fb2:	462f      	moveq	r7, r5
 8002fb4:	2b00      	cmp	r3, #0
 8002fb6:	bf18      	it	ne
 8002fb8:	461d      	movne	r5, r3
 8002fba:	6833      	ldr	r3, [r6, #0]
 8002fbc:	4604      	mov	r4, r0
 8002fbe:	b9b3      	cbnz	r3, 8002fee <netif_set_addr+0x4e>
 8002fc0:	aa01      	add	r2, sp, #4
 8002fc2:	4631      	mov	r1, r6
 8002fc4:	f7ff ffc2 	bl	8002f4c <netif_do_set_ipaddr.isra.0>
 8002fc8:	2301      	movs	r3, #1
 8002fca:	683a      	ldr	r2, [r7, #0]
 8002fcc:	68a1      	ldr	r1, [r4, #8]
 8002fce:	428a      	cmp	r2, r1
 8002fd0:	bf18      	it	ne
 8002fd2:	60a2      	strne	r2, [r4, #8]
 8002fd4:	682a      	ldr	r2, [r5, #0]
 8002fd6:	68e1      	ldr	r1, [r4, #12]
 8002fd8:	428a      	cmp	r2, r1
 8002fda:	bf18      	it	ne
 8002fdc:	60e2      	strne	r2, [r4, #12]
 8002fde:	b923      	cbnz	r3, 8002fea <netif_set_addr+0x4a>
 8002fe0:	aa01      	add	r2, sp, #4
 8002fe2:	4631      	mov	r1, r6
 8002fe4:	4620      	mov	r0, r4
 8002fe6:	f7ff ffb1 	bl	8002f4c <netif_do_set_ipaddr.isra.0>
 8002fea:	b003      	add	sp, #12
 8002fec:	bdf0      	pop	{r4, r5, r6, r7, pc}
 8002fee:	2300      	movs	r3, #0
 8002ff0:	e7eb      	b.n	8002fca <netif_set_addr+0x2a>
 8002ff2:	bf00      	nop
 8002ff4:	0800b768 	.word	0x0800b768

08002ff8 <netif_add>:
 8002ff8:	e92d 4ff8 	stmdb	sp!, {r3, r4, r5, r6, r7, r8, r9, sl, fp, lr}
 8002ffc:	f8dd 802c 	ldr.w	r8, [sp, #44]	; 0x2c
 8003000:	4604      	mov	r4, r0
 8003002:	b948      	cbnz	r0, 8003018 <netif_add+0x20>
 8003004:	4b3d      	ldr	r3, [pc, #244]	; (80030fc <netif_add+0x104>)
 8003006:	493e      	ldr	r1, [pc, #248]	; (8003100 <netif_add+0x108>)
 8003008:	483e      	ldr	r0, [pc, #248]	; (8003104 <netif_add+0x10c>)
 800300a:	f240 1227 	movw	r2, #295	; 0x127
 800300e:	f005 fe41 	bl	8008c94 <iprintf>
 8003012:	4620      	mov	r0, r4
 8003014:	e8bd 8ff8 	ldmia.w	sp!, {r3, r4, r5, r6, r7, r8, r9, sl, fp, pc}
 8003018:	f1b8 0f00 	cmp.w	r8, #0
 800301c:	d108      	bne.n	8003030 <netif_add+0x38>
 800301e:	4b37      	ldr	r3, [pc, #220]	; (80030fc <netif_add+0x104>)
 8003020:	4939      	ldr	r1, [pc, #228]	; (8003108 <netif_add+0x110>)
 8003022:	4838      	ldr	r0, [pc, #224]	; (8003104 <netif_add+0x10c>)
 8003024:	f44f 7294 	mov.w	r2, #296	; 0x128
 8003028:	f005 fe34 	bl	8008c94 <iprintf>
 800302c:	4644      	mov	r4, r8
 800302e:	e7f0      	b.n	8003012 <netif_add+0x1a>
 8003030:	4e36      	ldr	r6, [pc, #216]	; (800310c <netif_add+0x114>)
 8003032:	6146      	str	r6, [r0, #20]
 8003034:	9e0a      	ldr	r6, [sp, #40]	; 0x28
 8003036:	6206      	str	r6, [r0, #32]
 8003038:	4e35      	ldr	r6, [pc, #212]	; (8003110 <netif_add+0x118>)
 800303a:	f8df c0e0 	ldr.w	ip, [pc, #224]	; 800311c <netif_add+0x124>
 800303e:	7837      	ldrb	r7, [r6, #0]
 8003040:	f880 7030 	strb.w	r7, [r0, #48]	; 0x30
 8003044:	2500      	movs	r5, #0
 8003046:	9f0c      	ldr	r7, [sp, #48]	; 0x30
 8003048:	60c5      	str	r5, [r0, #12]
 800304a:	e9c0 5501 	strd	r5, r5, [r0, #4]
 800304e:	8485      	strh	r5, [r0, #36]	; 0x24
 8003050:	f880 502d 	strb.w	r5, [r0, #45]	; 0x2d
 8003054:	61c5      	str	r5, [r0, #28]
 8003056:	6107      	str	r7, [r0, #16]
 8003058:	42ab      	cmp	r3, r5
 800305a:	bf08      	it	eq
 800305c:	4663      	moveq	r3, ip
 800305e:	42aa      	cmp	r2, r5
 8003060:	bf08      	it	eq
 8003062:	4662      	moveq	r2, ip
 8003064:	42a9      	cmp	r1, r5
 8003066:	bf08      	it	eq
 8003068:	4661      	moveq	r1, ip
 800306a:	f7ff ff99 	bl	8002fa0 <netif_set_addr>
 800306e:	4620      	mov	r0, r4
 8003070:	47c0      	blx	r8
 8003072:	2800      	cmp	r0, #0
 8003074:	d13f      	bne.n	80030f6 <netif_add+0xfe>
 8003076:	4f27      	ldr	r7, [pc, #156]	; (8003114 <netif_add+0x11c>)
 8003078:	f8df b080 	ldr.w	fp, [pc, #128]	; 80030fc <netif_add+0x104>
 800307c:	f894 3030 	ldrb.w	r3, [r4, #48]	; 0x30
 8003080:	683d      	ldr	r5, [r7, #0]
 8003082:	f8df a09c 	ldr.w	sl, [pc, #156]	; 8003120 <netif_add+0x128>
 8003086:	f8df 907c 	ldr.w	r9, [pc, #124]	; 8003104 <netif_add+0x10c>
 800308a:	2bff      	cmp	r3, #255	; 0xff
 800308c:	bf04      	itt	eq
 800308e:	2300      	moveq	r3, #0
 8003090:	f884 3030 	strbeq.w	r3, [r4, #48]	; 0x30
 8003094:	f04f 0800 	mov.w	r8, #0
 8003098:	b92d      	cbnz	r5, 80030a6 <netif_add+0xae>
 800309a:	f894 3030 	ldrb.w	r3, [r4, #48]	; 0x30
 800309e:	2bfe      	cmp	r3, #254	; 0xfe
 80030a0:	d122      	bne.n	80030e8 <netif_add+0xf0>
 80030a2:	462b      	mov	r3, r5
 80030a4:	e022      	b.n	80030ec <netif_add+0xf4>
 80030a6:	42a5      	cmp	r5, r4
 80030a8:	d106      	bne.n	80030b8 <netif_add+0xc0>
 80030aa:	465b      	mov	r3, fp
 80030ac:	f240 128b 	movw	r2, #395	; 0x18b
 80030b0:	4651      	mov	r1, sl
 80030b2:	4648      	mov	r0, r9
 80030b4:	f005 fdee 	bl	8008c94 <iprintf>
 80030b8:	f108 0801 	add.w	r8, r8, #1
 80030bc:	f1b8 0fff 	cmp.w	r8, #255	; 0xff
 80030c0:	dd06      	ble.n	80030d0 <netif_add+0xd8>
 80030c2:	4915      	ldr	r1, [pc, #84]	; (8003118 <netif_add+0x120>)
 80030c4:	465b      	mov	r3, fp
 80030c6:	f240 128d 	movw	r2, #397	; 0x18d
 80030ca:	4648      	mov	r0, r9
 80030cc:	f005 fde2 	bl	8008c94 <iprintf>
 80030d0:	f894 3030 	ldrb.w	r3, [r4, #48]	; 0x30
 80030d4:	f895 2030 	ldrb.w	r2, [r5, #48]	; 0x30
 80030d8:	429a      	cmp	r2, r3
 80030da:	d103      	bne.n	80030e4 <netif_add+0xec>
 80030dc:	3201      	adds	r2, #1
 80030de:	f884 2030 	strb.w	r2, [r4, #48]	; 0x30
 80030e2:	e7cb      	b.n	800307c <netif_add+0x84>
 80030e4:	682d      	ldr	r5, [r5, #0]
 80030e6:	e7d7      	b.n	8003098 <netif_add+0xa0>
 80030e8:	3301      	adds	r3, #1
 80030ea:	b2db      	uxtb	r3, r3
 80030ec:	7033      	strb	r3, [r6, #0]
 80030ee:	683b      	ldr	r3, [r7, #0]
 80030f0:	6023      	str	r3, [r4, #0]
 80030f2:	603c      	str	r4, [r7, #0]
 80030f4:	e78d      	b.n	8003012 <netif_add+0x1a>
 80030f6:	462c      	mov	r4, r5
 80030f8:	e78b      	b.n	8003012 <netif_add+0x1a>
 80030fa:	bf00      	nop
 80030fc:	08009ed0 	.word	0x08009ed0
 8003100:	08009f34 	.word	0x08009f34
 8003104:	08009b3a 	.word	0x08009b3a
 8003108:	08009f4d 	.word	0x08009f4d
 800310c:	08002f01 	.word	0x08002f01
 8003110:	2000828c 	.word	0x2000828c
 8003114:	20008288 	.word	0x20008288
 8003118:	08009f83 	.word	0x08009f83
 800311c:	0800b768 	.word	0x0800b768
 8003120:	08009f6f 	.word	0x08009f6f

08003124 <netif_set_default>:
 8003124:	4b01      	ldr	r3, [pc, #4]	; (800312c <netif_set_default+0x8>)
 8003126:	6018      	str	r0, [r3, #0]
 8003128:	4770      	bx	lr
 800312a:	bf00      	nop
 800312c:	20008284 	.word	0x20008284

08003130 <netif_set_up>:
 8003130:	b930      	cbnz	r0, 8003140 <netif_set_up+0x10>
 8003132:	4b09      	ldr	r3, [pc, #36]	; (8003158 <netif_set_up+0x28>)
 8003134:	4909      	ldr	r1, [pc, #36]	; (800315c <netif_set_up+0x2c>)
 8003136:	480a      	ldr	r0, [pc, #40]	; (8003160 <netif_set_up+0x30>)
 8003138:	f44f 7254 	mov.w	r2, #848	; 0x350
 800313c:	f005 bdaa 	b.w	8008c94 <iprintf>
 8003140:	f890 202d 	ldrb.w	r2, [r0, #45]	; 0x2d
 8003144:	07d1      	lsls	r1, r2, #31
 8003146:	d406      	bmi.n	8003156 <netif_set_up+0x26>
 8003148:	f042 0201 	orr.w	r2, r2, #1
 800314c:	f880 202d 	strb.w	r2, [r0, #45]	; 0x2d
 8003150:	2103      	movs	r1, #3
 8003152:	f7ff bed9 	b.w	8002f08 <netif_issue_reports>
 8003156:	4770      	bx	lr
 8003158:	08009ed0 	.word	0x08009ed0
 800315c:	08009fb1 	.word	0x08009fb1
 8003160:	08009b3a 	.word	0x08009b3a

08003164 <netif_set_down>:
 8003164:	b930      	cbnz	r0, 8003174 <netif_set_down+0x10>
 8003166:	4b0a      	ldr	r3, [pc, #40]	; (8003190 <netif_set_down+0x2c>)
 8003168:	490a      	ldr	r1, [pc, #40]	; (8003194 <netif_set_down+0x30>)
 800316a:	480b      	ldr	r0, [pc, #44]	; (8003198 <netif_set_down+0x34>)
 800316c:	f240 329b 	movw	r2, #923	; 0x39b
 8003170:	f005 bd90 	b.w	8008c94 <iprintf>
 8003174:	f890 202d 	ldrb.w	r2, [r0, #45]	; 0x2d
 8003178:	07d1      	lsls	r1, r2, #31
 800317a:	d507      	bpl.n	800318c <netif_set_down+0x28>
 800317c:	f022 0101 	bic.w	r1, r2, #1
 8003180:	0713      	lsls	r3, r2, #28
 8003182:	f880 102d 	strb.w	r1, [r0, #45]	; 0x2d
 8003186:	d501      	bpl.n	800318c <netif_set_down+0x28>
 8003188:	f004 bb10 	b.w	80077ac <etharp_cleanup_netif>
 800318c:	4770      	bx	lr
 800318e:	bf00      	nop
 8003190:	08009ed0 	.word	0x08009ed0
 8003194:	08009fcd 	.word	0x08009fcd
 8003198:	08009b3a 	.word	0x08009b3a

0800319c <netif_set_link_up>:
 800319c:	b510      	push	{r4, lr}
 800319e:	4604      	mov	r4, r0
 80031a0:	b940      	cbnz	r0, 80031b4 <netif_set_link_up+0x18>
 80031a2:	e8bd 4010 	ldmia.w	sp!, {r4, lr}
 80031a6:	4b0c      	ldr	r3, [pc, #48]	; (80031d8 <netif_set_link_up+0x3c>)
 80031a8:	490c      	ldr	r1, [pc, #48]	; (80031dc <netif_set_link_up+0x40>)
 80031aa:	480d      	ldr	r0, [pc, #52]	; (80031e0 <netif_set_link_up+0x44>)
 80031ac:	f44f 7278 	mov.w	r2, #992	; 0x3e0
 80031b0:	f005 bd70 	b.w	8008c94 <iprintf>
 80031b4:	f890 302d 	ldrb.w	r3, [r0, #45]	; 0x2d
 80031b8:	075a      	lsls	r2, r3, #29
 80031ba:	d40c      	bmi.n	80031d6 <netif_set_link_up+0x3a>
 80031bc:	f043 0304 	orr.w	r3, r3, #4
 80031c0:	f880 302d 	strb.w	r3, [r0, #45]	; 0x2d
 80031c4:	2103      	movs	r1, #3
 80031c6:	f7ff fe9f 	bl	8002f08 <netif_issue_reports>
 80031ca:	69e3      	ldr	r3, [r4, #28]
 80031cc:	b11b      	cbz	r3, 80031d6 <netif_set_link_up+0x3a>
 80031ce:	4620      	mov	r0, r4
 80031d0:	e8bd 4010 	ldmia.w	sp!, {r4, lr}
 80031d4:	4718      	bx	r3
 80031d6:	bd10      	pop	{r4, pc}
 80031d8:	08009ed0 	.word	0x08009ed0
 80031dc:	08009feb 	.word	0x08009feb
 80031e0:	08009b3a 	.word	0x08009b3a

080031e4 <netif_set_link_down>:
 80031e4:	b930      	cbnz	r0, 80031f4 <netif_set_link_down+0x10>
 80031e6:	4b09      	ldr	r3, [pc, #36]	; (800320c <netif_set_link_down+0x28>)
 80031e8:	4909      	ldr	r1, [pc, #36]	; (8003210 <netif_set_link_down+0x2c>)
 80031ea:	480a      	ldr	r0, [pc, #40]	; (8003214 <netif_set_link_down+0x30>)
 80031ec:	f240 4206 	movw	r2, #1030	; 0x406
 80031f0:	f005 bd50 	b.w	8008c94 <iprintf>
 80031f4:	f890 202d 	ldrb.w	r2, [r0, #45]	; 0x2d
 80031f8:	0751      	lsls	r1, r2, #29
 80031fa:	d506      	bpl.n	800320a <netif_set_link_down+0x26>
 80031fc:	69c3      	ldr	r3, [r0, #28]
 80031fe:	f022 0204 	bic.w	r2, r2, #4
 8003202:	f880 202d 	strb.w	r2, [r0, #45]	; 0x2d
 8003206:	b103      	cbz	r3, 800320a <netif_set_link_down+0x26>
 8003208:	4718      	bx	r3
 800320a:	4770      	bx	lr
 800320c:	08009ed0 	.word	0x08009ed0
 8003210:	0800a00c 	.word	0x0800a00c
 8003214:	08009b3a 	.word	0x08009b3a

08003218 <netif_set_link_callback>:
 8003218:	b100      	cbz	r0, 800321c <netif_set_link_callback+0x4>
 800321a:	61c1      	str	r1, [r0, #28]
 800321c:	4770      	bx	lr
	...

08003220 <netif_get_by_index>:
 8003220:	b150      	cbz	r0, 8003238 <netif_get_by_index+0x18>
 8003222:	4b06      	ldr	r3, [pc, #24]	; (800323c <netif_get_by_index+0x1c>)
 8003224:	681b      	ldr	r3, [r3, #0]
 8003226:	b12b      	cbz	r3, 8003234 <netif_get_by_index+0x14>
 8003228:	f893 2030 	ldrb.w	r2, [r3, #48]	; 0x30
 800322c:	3201      	adds	r2, #1
 800322e:	b2d2      	uxtb	r2, r2
 8003230:	4282      	cmp	r2, r0
 8003232:	d1f7      	bne.n	8003224 <netif_get_by_index+0x4>
 8003234:	4618      	mov	r0, r3
 8003236:	4770      	bx	lr
 8003238:	4603      	mov	r3, r0
 800323a:	e7fb      	b.n	8003234 <netif_get_by_index+0x14>
 800323c:	20008288 	.word	0x20008288

08003240 <pbuf_add_header_impl>:
 8003240:	b538      	push	{r3, r4, r5, lr}
 8003242:	b968      	cbnz	r0, 8003260 <pbuf_add_header_impl+0x20>
 8003244:	4b14      	ldr	r3, [pc, #80]	; (8003298 <pbuf_add_header_impl+0x58>)
 8003246:	4915      	ldr	r1, [pc, #84]	; (800329c <pbuf_add_header_impl+0x5c>)
 8003248:	4815      	ldr	r0, [pc, #84]	; (80032a0 <pbuf_add_header_impl+0x60>)
 800324a:	f240 12df 	movw	r2, #479	; 0x1df
 800324e:	f005 fd21 	bl	8008c94 <iprintf>
 8003252:	2001      	movs	r0, #1
 8003254:	e01f      	b.n	8003296 <pbuf_add_header_impl+0x56>
 8003256:	2a00      	cmp	r2, #0
 8003258:	d0fb      	beq.n	8003252 <pbuf_add_header_impl+0x12>
 800325a:	6842      	ldr	r2, [r0, #4]
 800325c:	1a51      	subs	r1, r2, r1
 800325e:	e014      	b.n	800328a <pbuf_add_header_impl+0x4a>
 8003260:	f5b1 3f80 	cmp.w	r1, #65536	; 0x10000
 8003264:	d2f5      	bcs.n	8003252 <pbuf_add_header_impl+0x12>
 8003266:	b1a9      	cbz	r1, 8003294 <pbuf_add_header_impl+0x54>
 8003268:	8903      	ldrh	r3, [r0, #8]
 800326a:	fa13 f381 	uxtah	r3, r3, r1
 800326e:	b28c      	uxth	r4, r1
 8003270:	b29b      	uxth	r3, r3
 8003272:	429c      	cmp	r4, r3
 8003274:	d8ed      	bhi.n	8003252 <pbuf_add_header_impl+0x12>
 8003276:	f990 500c 	ldrsb.w	r5, [r0, #12]
 800327a:	2d00      	cmp	r5, #0
 800327c:	daeb      	bge.n	8003256 <pbuf_add_header_impl+0x16>
 800327e:	6842      	ldr	r2, [r0, #4]
 8003280:	1a51      	subs	r1, r2, r1
 8003282:	f100 0210 	add.w	r2, r0, #16
 8003286:	4291      	cmp	r1, r2
 8003288:	d3e3      	bcc.n	8003252 <pbuf_add_header_impl+0x12>
 800328a:	8942      	ldrh	r2, [r0, #10]
 800328c:	6041      	str	r1, [r0, #4]
 800328e:	4414      	add	r4, r2
 8003290:	8144      	strh	r4, [r0, #10]
 8003292:	8103      	strh	r3, [r0, #8]
 8003294:	2000      	movs	r0, #0
 8003296:	bd38      	pop	{r3, r4, r5, pc}
 8003298:	0800a02f 	.word	0x0800a02f
 800329c:	0800a101 	.word	0x0800a101
 80032a0:	08009b3a 	.word	0x08009b3a

080032a4 <pbuf_free_ooseq>:
 80032a4:	4b06      	ldr	r3, [pc, #24]	; (80032c0 <pbuf_free_ooseq+0x1c>)
 80032a6:	2200      	movs	r2, #0
 80032a8:	701a      	strb	r2, [r3, #0]
 80032aa:	4b06      	ldr	r3, [pc, #24]	; (80032c4 <pbuf_free_ooseq+0x20>)
 80032ac:	6818      	ldr	r0, [r3, #0]
 80032ae:	b900      	cbnz	r0, 80032b2 <pbuf_free_ooseq+0xe>
 80032b0:	4770      	bx	lr
 80032b2:	6f43      	ldr	r3, [r0, #116]	; 0x74
 80032b4:	b10b      	cbz	r3, 80032ba <pbuf_free_ooseq+0x16>
 80032b6:	f000 bd5b 	b.w	8003d70 <tcp_free_ooseq>
 80032ba:	68c0      	ldr	r0, [r0, #12]
 80032bc:	e7f7      	b.n	80032ae <pbuf_free_ooseq+0xa>
 80032be:	bf00      	nop
 80032c0:	2000828d 	.word	0x2000828d
 80032c4:	20008290 	.word	0x20008290

080032c8 <pbuf_alloc_reference>:
 80032c8:	f022 0340 	bic.w	r3, r2, #64	; 0x40
 80032cc:	2b01      	cmp	r3, #1
 80032ce:	b570      	push	{r4, r5, r6, lr}
 80032d0:	4606      	mov	r6, r0
 80032d2:	460d      	mov	r5, r1
 80032d4:	4614      	mov	r4, r2
 80032d6:	d006      	beq.n	80032e6 <pbuf_alloc_reference+0x1e>
 80032d8:	4b0a      	ldr	r3, [pc, #40]	; (8003304 <pbuf_alloc_reference+0x3c>)
 80032da:	490b      	ldr	r1, [pc, #44]	; (8003308 <pbuf_alloc_reference+0x40>)
 80032dc:	480b      	ldr	r0, [pc, #44]	; (800330c <pbuf_alloc_reference+0x44>)
 80032de:	f44f 72a5 	mov.w	r2, #330	; 0x14a
 80032e2:	f005 fcd7 	bl	8008c94 <iprintf>
 80032e6:	2007      	movs	r0, #7
 80032e8:	f7ff fdc2 	bl	8002e70 <memp_malloc>
 80032ec:	b140      	cbz	r0, 8003300 <pbuf_alloc_reference+0x38>
 80032ee:	2300      	movs	r3, #0
 80032f0:	e9c0 3600 	strd	r3, r6, [r0]
 80032f4:	7343      	strb	r3, [r0, #13]
 80032f6:	2301      	movs	r3, #1
 80032f8:	8105      	strh	r5, [r0, #8]
 80032fa:	8145      	strh	r5, [r0, #10]
 80032fc:	7304      	strb	r4, [r0, #12]
 80032fe:	81c3      	strh	r3, [r0, #14]
 8003300:	bd70      	pop	{r4, r5, r6, pc}
 8003302:	bf00      	nop
 8003304:	0800a02f 	.word	0x0800a02f
 8003308:	0800a05f 	.word	0x0800a05f
 800330c:	08009b3a 	.word	0x08009b3a

08003310 <pbuf_alloced_custom>:
 8003310:	b570      	push	{r4, r5, r6, lr}
 8003312:	3003      	adds	r0, #3
 8003314:	f8bd 5014 	ldrh.w	r5, [sp, #20]
 8003318:	9c04      	ldr	r4, [sp, #16]
 800331a:	f020 0003 	bic.w	r0, r0, #3
 800331e:	180e      	adds	r6, r1, r0
 8003320:	42ae      	cmp	r6, r5
 8003322:	d80d      	bhi.n	8003340 <pbuf_alloced_custom+0x30>
 8003324:	b104      	cbz	r4, 8003328 <pbuf_alloced_custom+0x18>
 8003326:	4404      	add	r4, r0
 8003328:	4618      	mov	r0, r3
 800332a:	2300      	movs	r3, #0
 800332c:	e9c0 3400 	strd	r3, r4, [r0]
 8003330:	2302      	movs	r3, #2
 8003332:	7343      	strb	r3, [r0, #13]
 8003334:	2301      	movs	r3, #1
 8003336:	8101      	strh	r1, [r0, #8]
 8003338:	8141      	strh	r1, [r0, #10]
 800333a:	7302      	strb	r2, [r0, #12]
 800333c:	81c3      	strh	r3, [r0, #14]
 800333e:	bd70      	pop	{r4, r5, r6, pc}
 8003340:	2000      	movs	r0, #0
 8003342:	e7fc      	b.n	800333e <pbuf_alloced_custom+0x2e>

08003344 <pbuf_add_header>:
 8003344:	2200      	movs	r2, #0
 8003346:	f7ff bf7b 	b.w	8003240 <pbuf_add_header_impl>
	...

0800334c <pbuf_remove_header>:
 800334c:	b510      	push	{r4, lr}
 800334e:	b990      	cbnz	r0, 8003376 <pbuf_remove_header+0x2a>
 8003350:	4b10      	ldr	r3, [pc, #64]	; (8003394 <pbuf_remove_header+0x48>)
 8003352:	4911      	ldr	r1, [pc, #68]	; (8003398 <pbuf_remove_header+0x4c>)
 8003354:	f240 224b 	movw	r2, #587	; 0x24b
 8003358:	4810      	ldr	r0, [pc, #64]	; (800339c <pbuf_remove_header+0x50>)
 800335a:	f005 fc9b 	bl	8008c94 <iprintf>
 800335e:	2001      	movs	r0, #1
 8003360:	e008      	b.n	8003374 <pbuf_remove_header+0x28>
 8003362:	1a9b      	subs	r3, r3, r2
 8003364:	6844      	ldr	r4, [r0, #4]
 8003366:	8143      	strh	r3, [r0, #10]
 8003368:	8903      	ldrh	r3, [r0, #8]
 800336a:	440c      	add	r4, r1
 800336c:	1a9b      	subs	r3, r3, r2
 800336e:	6044      	str	r4, [r0, #4]
 8003370:	8103      	strh	r3, [r0, #8]
 8003372:	2000      	movs	r0, #0
 8003374:	bd10      	pop	{r4, pc}
 8003376:	f5b1 3f80 	cmp.w	r1, #65536	; 0x10000
 800337a:	d2f0      	bcs.n	800335e <pbuf_remove_header+0x12>
 800337c:	2900      	cmp	r1, #0
 800337e:	d0f8      	beq.n	8003372 <pbuf_remove_header+0x26>
 8003380:	8943      	ldrh	r3, [r0, #10]
 8003382:	b28a      	uxth	r2, r1
 8003384:	429a      	cmp	r2, r3
 8003386:	d9ec      	bls.n	8003362 <pbuf_remove_header+0x16>
 8003388:	4b02      	ldr	r3, [pc, #8]	; (8003394 <pbuf_remove_header+0x48>)
 800338a:	4905      	ldr	r1, [pc, #20]	; (80033a0 <pbuf_remove_header+0x54>)
 800338c:	f240 2255 	movw	r2, #597	; 0x255
 8003390:	e7e2      	b.n	8003358 <pbuf_remove_header+0xc>
 8003392:	bf00      	nop
 8003394:	0800a02f 	.word	0x0800a02f
 8003398:	0800a101 	.word	0x0800a101
 800339c:	08009b3a 	.word	0x08009b3a
 80033a0:	0800a071 	.word	0x0800a071

080033a4 <pbuf_header_force>:
 80033a4:	1e0b      	subs	r3, r1, #0
 80033a6:	da02      	bge.n	80033ae <pbuf_header_force+0xa>
 80033a8:	4259      	negs	r1, r3
 80033aa:	f7ff bfcf 	b.w	800334c <pbuf_remove_header>
 80033ae:	2201      	movs	r2, #1
 80033b0:	f7ff bf46 	b.w	8003240 <pbuf_add_header_impl>

080033b4 <pbuf_free>:
 80033b4:	e92d 43f8 	stmdb	sp!, {r3, r4, r5, r6, r7, r8, r9, lr}
 80033b8:	4604      	mov	r4, r0
 80033ba:	b950      	cbnz	r0, 80033d2 <pbuf_free+0x1e>
 80033bc:	4b29      	ldr	r3, [pc, #164]	; (8003464 <pbuf_free+0xb0>)
 80033be:	492a      	ldr	r1, [pc, #168]	; (8003468 <pbuf_free+0xb4>)
 80033c0:	482a      	ldr	r0, [pc, #168]	; (800346c <pbuf_free+0xb8>)
 80033c2:	f44f 7237 	mov.w	r2, #732	; 0x2dc
 80033c6:	f005 fc65 	bl	8008c94 <iprintf>
 80033ca:	4625      	mov	r5, r4
 80033cc:	4628      	mov	r0, r5
 80033ce:	e8bd 83f8 	ldmia.w	sp!, {r3, r4, r5, r6, r7, r8, r9, pc}
 80033d2:	4e24      	ldr	r6, [pc, #144]	; (8003464 <pbuf_free+0xb0>)
 80033d4:	f8df 80a0 	ldr.w	r8, [pc, #160]	; 8003478 <pbuf_free+0xc4>
 80033d8:	4f24      	ldr	r7, [pc, #144]	; (800346c <pbuf_free+0xb8>)
 80033da:	2500      	movs	r5, #0
 80033dc:	7ba3      	ldrb	r3, [r4, #14]
 80033de:	b933      	cbnz	r3, 80033ee <pbuf_free+0x3a>
 80033e0:	4633      	mov	r3, r6
 80033e2:	f240 22f1 	movw	r2, #753	; 0x2f1
 80033e6:	4641      	mov	r1, r8
 80033e8:	4638      	mov	r0, r7
 80033ea:	f005 fc53 	bl	8008c94 <iprintf>
 80033ee:	7ba3      	ldrb	r3, [r4, #14]
 80033f0:	3b01      	subs	r3, #1
 80033f2:	b2db      	uxtb	r3, r3
 80033f4:	73a3      	strb	r3, [r4, #14]
 80033f6:	2b00      	cmp	r3, #0
 80033f8:	d1e8      	bne.n	80033cc <pbuf_free+0x18>
 80033fa:	7b62      	ldrb	r2, [r4, #13]
 80033fc:	f8d4 9000 	ldr.w	r9, [r4]
 8003400:	7b23      	ldrb	r3, [r4, #12]
 8003402:	0792      	lsls	r2, r2, #30
 8003404:	d512      	bpl.n	800342c <pbuf_free+0x78>
 8003406:	6923      	ldr	r3, [r4, #16]
 8003408:	b933      	cbnz	r3, 8003418 <pbuf_free+0x64>
 800340a:	4919      	ldr	r1, [pc, #100]	; (8003470 <pbuf_free+0xbc>)
 800340c:	4633      	mov	r3, r6
 800340e:	f240 22ff 	movw	r2, #767	; 0x2ff
 8003412:	4638      	mov	r0, r7
 8003414:	f005 fc3e 	bl	8008c94 <iprintf>
 8003418:	6923      	ldr	r3, [r4, #16]
 800341a:	4620      	mov	r0, r4
 800341c:	4798      	blx	r3
 800341e:	3501      	adds	r5, #1
 8003420:	b2ed      	uxtb	r5, r5
 8003422:	f1b9 0f00 	cmp.w	r9, #0
 8003426:	d0d1      	beq.n	80033cc <pbuf_free+0x18>
 8003428:	464c      	mov	r4, r9
 800342a:	e7d7      	b.n	80033dc <pbuf_free+0x28>
 800342c:	f003 030f 	and.w	r3, r3, #15
 8003430:	2b02      	cmp	r3, #2
 8003432:	d104      	bne.n	800343e <pbuf_free+0x8a>
 8003434:	4621      	mov	r1, r4
 8003436:	2008      	movs	r0, #8
 8003438:	f7ff fd4a 	bl	8002ed0 <memp_free>
 800343c:	e7ef      	b.n	800341e <pbuf_free+0x6a>
 800343e:	2b01      	cmp	r3, #1
 8003440:	d102      	bne.n	8003448 <pbuf_free+0x94>
 8003442:	4621      	mov	r1, r4
 8003444:	2007      	movs	r0, #7
 8003446:	e7f7      	b.n	8003438 <pbuf_free+0x84>
 8003448:	b91b      	cbnz	r3, 8003452 <pbuf_free+0x9e>
 800344a:	4620      	mov	r0, r4
 800344c:	f7ff faaa 	bl	80029a4 <mem_free>
 8003450:	e7e5      	b.n	800341e <pbuf_free+0x6a>
 8003452:	4908      	ldr	r1, [pc, #32]	; (8003474 <pbuf_free+0xc0>)
 8003454:	4633      	mov	r3, r6
 8003456:	f240 320f 	movw	r2, #783	; 0x30f
 800345a:	4638      	mov	r0, r7
 800345c:	f005 fc1a 	bl	8008c94 <iprintf>
 8003460:	e7dd      	b.n	800341e <pbuf_free+0x6a>
 8003462:	bf00      	nop
 8003464:	0800a02f 	.word	0x0800a02f
 8003468:	0800a101 	.word	0x0800a101
 800346c:	08009b3a 	.word	0x08009b3a
 8003470:	0800a0a5 	.word	0x0800a0a5
 8003474:	0800a0c6 	.word	0x0800a0c6
 8003478:	0800a08f 	.word	0x0800a08f

0800347c <pbuf_alloc>:
 800347c:	f5b2 7fc1 	cmp.w	r2, #386	; 0x182
 8003480:	e92d 47f0 	stmdb	sp!, {r4, r5, r6, r7, r8, r9, sl, lr}
 8003484:	4606      	mov	r6, r0
 8003486:	460f      	mov	r7, r1
 8003488:	b284      	uxth	r4, r0
 800348a:	d014      	beq.n	80034b6 <pbuf_alloc+0x3a>
 800348c:	d808      	bhi.n	80034a0 <pbuf_alloc+0x24>
 800348e:	f022 0340 	bic.w	r3, r2, #64	; 0x40
 8003492:	2b01      	cmp	r3, #1
 8003494:	d107      	bne.n	80034a6 <pbuf_alloc+0x2a>
 8003496:	e8bd 47f0 	ldmia.w	sp!, {r4, r5, r6, r7, r8, r9, sl, lr}
 800349a:	2000      	movs	r0, #0
 800349c:	f7ff bf14 	b.w	80032c8 <pbuf_alloc_reference>
 80034a0:	f5b2 7f20 	cmp.w	r2, #640	; 0x280
 80034a4:	d03e      	beq.n	8003524 <pbuf_alloc+0xa8>
 80034a6:	4b2f      	ldr	r3, [pc, #188]	; (8003564 <pbuf_alloc+0xe8>)
 80034a8:	492f      	ldr	r1, [pc, #188]	; (8003568 <pbuf_alloc+0xec>)
 80034aa:	4830      	ldr	r0, [pc, #192]	; (800356c <pbuf_alloc+0xf0>)
 80034ac:	f240 1227 	movw	r2, #295	; 0x127
 80034b0:	f005 fbf0 	bl	8008c94 <iprintf>
 80034b4:	e00e      	b.n	80034d4 <pbuf_alloc+0x58>
 80034b6:	2600      	movs	r6, #0
 80034b8:	f8df 90bc 	ldr.w	r9, [pc, #188]	; 8003578 <pbuf_alloc+0xfc>
 80034bc:	4635      	mov	r5, r6
 80034be:	46b0      	mov	r8, r6
 80034c0:	2008      	movs	r0, #8
 80034c2:	f7ff fcd5 	bl	8002e70 <memp_malloc>
 80034c6:	46b2      	mov	sl, r6
 80034c8:	4606      	mov	r6, r0
 80034ca:	b948      	cbnz	r0, 80034e0 <pbuf_alloc+0x64>
 80034cc:	4b28      	ldr	r3, [pc, #160]	; (8003570 <pbuf_alloc+0xf4>)
 80034ce:	2201      	movs	r2, #1
 80034d0:	701a      	strb	r2, [r3, #0]
 80034d2:	b90d      	cbnz	r5, 80034d8 <pbuf_alloc+0x5c>
 80034d4:	2500      	movs	r5, #0
 80034d6:	e020      	b.n	800351a <pbuf_alloc+0x9e>
 80034d8:	4628      	mov	r0, r5
 80034da:	f7ff ff6b 	bl	80033b4 <pbuf_free>
 80034de:	e7f9      	b.n	80034d4 <pbuf_alloc+0x58>
 80034e0:	1ce3      	adds	r3, r4, #3
 80034e2:	f023 0303 	bic.w	r3, r3, #3
 80034e6:	f5c3 7314 	rsb	r3, r3, #592	; 0x250
 80034ea:	b29b      	uxth	r3, r3
 80034ec:	4404      	add	r4, r0
 80034ee:	42bb      	cmp	r3, r7
 80034f0:	f104 0413 	add.w	r4, r4, #19
 80034f4:	bf28      	it	cs
 80034f6:	463b      	movcs	r3, r7
 80034f8:	f024 0403 	bic.w	r4, r4, #3
 80034fc:	f8c0 8000 	str.w	r8, [r0]
 8003500:	6044      	str	r4, [r0, #4]
 8003502:	8107      	strh	r7, [r0, #8]
 8003504:	8143      	strh	r3, [r0, #10]
 8003506:	f8c0 900c 	str.w	r9, [r0, #12]
 800350a:	b14d      	cbz	r5, 8003520 <pbuf_alloc+0xa4>
 800350c:	f8ca 0000 	str.w	r0, [sl]
 8003510:	1af9      	subs	r1, r7, r3
 8003512:	b28f      	uxth	r7, r1
 8003514:	2400      	movs	r4, #0
 8003516:	2f00      	cmp	r7, #0
 8003518:	d1d2      	bne.n	80034c0 <pbuf_alloc+0x44>
 800351a:	4628      	mov	r0, r5
 800351c:	e8bd 87f0 	ldmia.w	sp!, {r4, r5, r6, r7, r8, r9, sl, pc}
 8003520:	4605      	mov	r5, r0
 8003522:	e7f5      	b.n	8003510 <pbuf_alloc+0x94>
 8003524:	3403      	adds	r4, #3
 8003526:	1ccb      	adds	r3, r1, #3
 8003528:	f023 0303 	bic.w	r3, r3, #3
 800352c:	f024 0403 	bic.w	r4, r4, #3
 8003530:	441c      	add	r4, r3
 8003532:	b2a4      	uxth	r4, r4
 8003534:	f104 0010 	add.w	r0, r4, #16
 8003538:	429c      	cmp	r4, r3
 800353a:	b280      	uxth	r0, r0
 800353c:	d3ca      	bcc.n	80034d4 <pbuf_alloc+0x58>
 800353e:	4283      	cmp	r3, r0
 8003540:	d8c8      	bhi.n	80034d4 <pbuf_alloc+0x58>
 8003542:	f7ff fb8b 	bl	8002c5c <mem_malloc>
 8003546:	4605      	mov	r5, r0
 8003548:	2800      	cmp	r0, #0
 800354a:	d0e6      	beq.n	800351a <pbuf_alloc+0x9e>
 800354c:	4406      	add	r6, r0
 800354e:	2300      	movs	r3, #0
 8003550:	3613      	adds	r6, #19
 8003552:	6003      	str	r3, [r0, #0]
 8003554:	f026 0603 	bic.w	r6, r6, #3
 8003558:	4b06      	ldr	r3, [pc, #24]	; (8003574 <pbuf_alloc+0xf8>)
 800355a:	6046      	str	r6, [r0, #4]
 800355c:	8107      	strh	r7, [r0, #8]
 800355e:	8147      	strh	r7, [r0, #10]
 8003560:	60c3      	str	r3, [r0, #12]
 8003562:	e7da      	b.n	800351a <pbuf_alloc+0x9e>
 8003564:	0800a02f 	.word	0x0800a02f
 8003568:	0800a0d8 	.word	0x0800a0d8
 800356c:	08009b3a 	.word	0x08009b3a
 8003570:	2000828d 	.word	0x2000828d
 8003574:	00010080 	.word	0x00010080
 8003578:	00010082 	.word	0x00010082

0800357c <pbuf_realloc>:
 800357c:	e92d 47f0 	stmdb	sp!, {r4, r5, r6, r7, r8, r9, sl, lr}
 8003580:	460e      	mov	r6, r1
 8003582:	4604      	mov	r4, r0
 8003584:	b930      	cbnz	r0, 8003594 <pbuf_realloc+0x18>
 8003586:	4b24      	ldr	r3, [pc, #144]	; (8003618 <pbuf_realloc+0x9c>)
 8003588:	4924      	ldr	r1, [pc, #144]	; (800361c <pbuf_realloc+0xa0>)
 800358a:	4825      	ldr	r0, [pc, #148]	; (8003620 <pbuf_realloc+0xa4>)
 800358c:	f44f 72cc 	mov.w	r2, #408	; 0x198
 8003590:	f005 fb80 	bl	8008c94 <iprintf>
 8003594:	8927      	ldrh	r7, [r4, #8]
 8003596:	42b7      	cmp	r7, r6
 8003598:	d93c      	bls.n	8003614 <pbuf_realloc+0x98>
 800359a:	f8df 807c 	ldr.w	r8, [pc, #124]	; 8003618 <pbuf_realloc+0x9c>
 800359e:	f8df a088 	ldr.w	sl, [pc, #136]	; 8003628 <pbuf_realloc+0xac>
 80035a2:	f8df 907c 	ldr.w	r9, [pc, #124]	; 8003620 <pbuf_realloc+0xa4>
 80035a6:	4635      	mov	r5, r6
 80035a8:	8962      	ldrh	r2, [r4, #10]
 80035aa:	42aa      	cmp	r2, r5
 80035ac:	d319      	bcc.n	80035e2 <pbuf_realloc+0x66>
 80035ae:	7b23      	ldrb	r3, [r4, #12]
 80035b0:	0719      	lsls	r1, r3, #28
 80035b2:	d127      	bne.n	8003604 <pbuf_realloc+0x88>
 80035b4:	42aa      	cmp	r2, r5
 80035b6:	d025      	beq.n	8003604 <pbuf_realloc+0x88>
 80035b8:	7b63      	ldrb	r3, [r4, #13]
 80035ba:	079b      	lsls	r3, r3, #30
 80035bc:	d422      	bmi.n	8003604 <pbuf_realloc+0x88>
 80035be:	6861      	ldr	r1, [r4, #4]
 80035c0:	1b09      	subs	r1, r1, r4
 80035c2:	4429      	add	r1, r5
 80035c4:	4620      	mov	r0, r4
 80035c6:	b289      	uxth	r1, r1
 80035c8:	f7ff faa4 	bl	8002b14 <mem_trim>
 80035cc:	4604      	mov	r4, r0
 80035ce:	b9c8      	cbnz	r0, 8003604 <pbuf_realloc+0x88>
 80035d0:	4b11      	ldr	r3, [pc, #68]	; (8003618 <pbuf_realloc+0x9c>)
 80035d2:	4914      	ldr	r1, [pc, #80]	; (8003624 <pbuf_realloc+0xa8>)
 80035d4:	4812      	ldr	r0, [pc, #72]	; (8003620 <pbuf_realloc+0xa4>)
 80035d6:	f240 12bd 	movw	r2, #445	; 0x1bd
 80035da:	f005 fb5b 	bl	8008c94 <iprintf>
 80035de:	8164      	strh	r4, [r4, #10]
 80035e0:	deff      	udf	#255	; 0xff
 80035e2:	1aaa      	subs	r2, r5, r2
 80035e4:	b295      	uxth	r5, r2
 80035e6:	8922      	ldrh	r2, [r4, #8]
 80035e8:	1bf3      	subs	r3, r6, r7
 80035ea:	4413      	add	r3, r2
 80035ec:	8123      	strh	r3, [r4, #8]
 80035ee:	6824      	ldr	r4, [r4, #0]
 80035f0:	2c00      	cmp	r4, #0
 80035f2:	d1d9      	bne.n	80035a8 <pbuf_realloc+0x2c>
 80035f4:	4643      	mov	r3, r8
 80035f6:	f240 12af 	movw	r2, #431	; 0x1af
 80035fa:	4651      	mov	r1, sl
 80035fc:	4648      	mov	r0, r9
 80035fe:	f005 fb49 	bl	8008c94 <iprintf>
 8003602:	e7d1      	b.n	80035a8 <pbuf_realloc+0x2c>
 8003604:	6820      	ldr	r0, [r4, #0]
 8003606:	8165      	strh	r5, [r4, #10]
 8003608:	8125      	strh	r5, [r4, #8]
 800360a:	b108      	cbz	r0, 8003610 <pbuf_realloc+0x94>
 800360c:	f7ff fed2 	bl	80033b4 <pbuf_free>
 8003610:	2300      	movs	r3, #0
 8003612:	6023      	str	r3, [r4, #0]
 8003614:	e8bd 87f0 	ldmia.w	sp!, {r4, r5, r6, r7, r8, r9, sl, pc}
 8003618:	0800a02f 	.word	0x0800a02f
 800361c:	0800a0f3 	.word	0x0800a0f3
 8003620:	08009b3a 	.word	0x08009b3a
 8003624:	0800a123 	.word	0x0800a123
 8003628:	0800a10b 	.word	0x0800a10b

0800362c <pbuf_clen>:
 800362c:	4603      	mov	r3, r0
 800362e:	2200      	movs	r2, #0
 8003630:	b290      	uxth	r0, r2
 8003632:	3201      	adds	r2, #1
 8003634:	b903      	cbnz	r3, 8003638 <pbuf_clen+0xc>
 8003636:	4770      	bx	lr
 8003638:	681b      	ldr	r3, [r3, #0]
 800363a:	e7f9      	b.n	8003630 <pbuf_clen+0x4>

0800363c <pbuf_ref>:
 800363c:	b158      	cbz	r0, 8003656 <pbuf_ref+0x1a>
 800363e:	7b83      	ldrb	r3, [r0, #14]
 8003640:	3301      	adds	r3, #1
 8003642:	b2db      	uxtb	r3, r3
 8003644:	7383      	strb	r3, [r0, #14]
 8003646:	b933      	cbnz	r3, 8003656 <pbuf_ref+0x1a>
 8003648:	4b03      	ldr	r3, [pc, #12]	; (8003658 <pbuf_ref+0x1c>)
 800364a:	4904      	ldr	r1, [pc, #16]	; (800365c <pbuf_ref+0x20>)
 800364c:	4804      	ldr	r0, [pc, #16]	; (8003660 <pbuf_ref+0x24>)
 800364e:	f240 3242 	movw	r2, #834	; 0x342
 8003652:	f005 bb1f 	b.w	8008c94 <iprintf>
 8003656:	4770      	bx	lr
 8003658:	0800a02f 	.word	0x0800a02f
 800365c:	0800a13f 	.word	0x0800a13f
 8003660:	08009b3a 	.word	0x08009b3a

08003664 <pbuf_cat>:
 8003664:	b570      	push	{r4, r5, r6, lr}
 8003666:	460d      	mov	r5, r1
 8003668:	4604      	mov	r4, r0
 800366a:	b100      	cbz	r0, 800366e <pbuf_cat+0xa>
 800366c:	b961      	cbnz	r1, 8003688 <pbuf_cat+0x24>
 800366e:	e8bd 4070 	ldmia.w	sp!, {r4, r5, r6, lr}
 8003672:	4b14      	ldr	r3, [pc, #80]	; (80036c4 <pbuf_cat+0x60>)
 8003674:	4914      	ldr	r1, [pc, #80]	; (80036c8 <pbuf_cat+0x64>)
 8003676:	4815      	ldr	r0, [pc, #84]	; (80036cc <pbuf_cat+0x68>)
 8003678:	f240 3259 	movw	r2, #857	; 0x359
 800367c:	f005 bb0a 	b.w	8008c94 <iprintf>
 8003680:	8929      	ldrh	r1, [r5, #8]
 8003682:	440b      	add	r3, r1
 8003684:	8123      	strh	r3, [r4, #8]
 8003686:	4614      	mov	r4, r2
 8003688:	6822      	ldr	r2, [r4, #0]
 800368a:	8923      	ldrh	r3, [r4, #8]
 800368c:	2a00      	cmp	r2, #0
 800368e:	d1f7      	bne.n	8003680 <pbuf_cat+0x1c>
 8003690:	8962      	ldrh	r2, [r4, #10]
 8003692:	429a      	cmp	r2, r3
 8003694:	d00f      	beq.n	80036b6 <pbuf_cat+0x52>
 8003696:	4b0b      	ldr	r3, [pc, #44]	; (80036c4 <pbuf_cat+0x60>)
 8003698:	490d      	ldr	r1, [pc, #52]	; (80036d0 <pbuf_cat+0x6c>)
 800369a:	480c      	ldr	r0, [pc, #48]	; (80036cc <pbuf_cat+0x68>)
 800369c:	f240 3262 	movw	r2, #866	; 0x362
 80036a0:	f005 faf8 	bl	8008c94 <iprintf>
 80036a4:	6823      	ldr	r3, [r4, #0]
 80036a6:	b133      	cbz	r3, 80036b6 <pbuf_cat+0x52>
 80036a8:	4b06      	ldr	r3, [pc, #24]	; (80036c4 <pbuf_cat+0x60>)
 80036aa:	490a      	ldr	r1, [pc, #40]	; (80036d4 <pbuf_cat+0x70>)
 80036ac:	4807      	ldr	r0, [pc, #28]	; (80036cc <pbuf_cat+0x68>)
 80036ae:	f240 3263 	movw	r2, #867	; 0x363
 80036b2:	f005 faef 	bl	8008c94 <iprintf>
 80036b6:	892a      	ldrh	r2, [r5, #8]
 80036b8:	8923      	ldrh	r3, [r4, #8]
 80036ba:	6025      	str	r5, [r4, #0]
 80036bc:	4413      	add	r3, r2
 80036be:	8123      	strh	r3, [r4, #8]
 80036c0:	bd70      	pop	{r4, r5, r6, pc}
 80036c2:	bf00      	nop
 80036c4:	0800a02f 	.word	0x0800a02f
 80036c8:	0800a151 	.word	0x0800a151
 80036cc:	08009b3a 	.word	0x08009b3a
 80036d0:	0800a186 	.word	0x0800a186
 80036d4:	0800a1b3 	.word	0x0800a1b3

080036d8 <pbuf_copy>:
 80036d8:	e92d 4ff8 	stmdb	sp!, {r3, r4, r5, r6, r7, r8, r9, sl, fp, lr}
 80036dc:	460c      	mov	r4, r1
 80036de:	4605      	mov	r5, r0
 80036e0:	b120      	cbz	r0, 80036ec <pbuf_copy+0x14>
 80036e2:	b119      	cbz	r1, 80036ec <pbuf_copy+0x14>
 80036e4:	8902      	ldrh	r2, [r0, #8]
 80036e6:	890b      	ldrh	r3, [r1, #8]
 80036e8:	429a      	cmp	r2, r3
 80036ea:	d20a      	bcs.n	8003702 <pbuf_copy+0x2a>
 80036ec:	4b34      	ldr	r3, [pc, #208]	; (80037c0 <pbuf_copy+0xe8>)
 80036ee:	4935      	ldr	r1, [pc, #212]	; (80037c4 <pbuf_copy+0xec>)
 80036f0:	f240 32c9 	movw	r2, #969	; 0x3c9
 80036f4:	4834      	ldr	r0, [pc, #208]	; (80037c8 <pbuf_copy+0xf0>)
 80036f6:	f005 facd 	bl	8008c94 <iprintf>
 80036fa:	f06f 000f 	mvn.w	r0, #15
 80036fe:	e8bd 8ff8 	ldmia.w	sp!, {r3, r4, r5, r6, r7, r8, r9, sl, fp, pc}
 8003702:	2600      	movs	r6, #0
 8003704:	f8df b0b8 	ldr.w	fp, [pc, #184]	; 80037c0 <pbuf_copy+0xe8>
 8003708:	f8df a0cc 	ldr.w	sl, [pc, #204]	; 80037d8 <pbuf_copy+0x100>
 800370c:	f8df 90b8 	ldr.w	r9, [pc, #184]	; 80037c8 <pbuf_copy+0xf0>
 8003710:	4637      	mov	r7, r6
 8003712:	f8b5 800a 	ldrh.w	r8, [r5, #10]
 8003716:	8963      	ldrh	r3, [r4, #10]
 8003718:	6868      	ldr	r0, [r5, #4]
 800371a:	6861      	ldr	r1, [r4, #4]
 800371c:	eba8 0807 	sub.w	r8, r8, r7
 8003720:	1b9b      	subs	r3, r3, r6
 8003722:	4598      	cmp	r8, r3
 8003724:	bf28      	it	cs
 8003726:	4698      	movcs	r8, r3
 8003728:	4431      	add	r1, r6
 800372a:	4438      	add	r0, r7
 800372c:	4642      	mov	r2, r8
 800372e:	f005 fb8c 	bl	8008e4a <memcpy>
 8003732:	896b      	ldrh	r3, [r5, #10]
 8003734:	4447      	add	r7, r8
 8003736:	429f      	cmp	r7, r3
 8003738:	4446      	add	r6, r8
 800373a:	d906      	bls.n	800374a <pbuf_copy+0x72>
 800373c:	465b      	mov	r3, fp
 800373e:	f240 32d9 	movw	r2, #985	; 0x3d9
 8003742:	4651      	mov	r1, sl
 8003744:	4648      	mov	r0, r9
 8003746:	f005 faa5 	bl	8008c94 <iprintf>
 800374a:	8963      	ldrh	r3, [r4, #10]
 800374c:	429e      	cmp	r6, r3
 800374e:	d906      	bls.n	800375e <pbuf_copy+0x86>
 8003750:	491e      	ldr	r1, [pc, #120]	; (80037cc <pbuf_copy+0xf4>)
 8003752:	465b      	mov	r3, fp
 8003754:	f240 32da 	movw	r2, #986	; 0x3da
 8003758:	4648      	mov	r0, r9
 800375a:	f005 fa9b 	bl	8008c94 <iprintf>
 800375e:	8963      	ldrh	r3, [r4, #10]
 8003760:	429e      	cmp	r6, r3
 8003762:	896b      	ldrh	r3, [r5, #10]
 8003764:	bf24      	itt	cs
 8003766:	6824      	ldrcs	r4, [r4, #0]
 8003768:	2600      	movcs	r6, #0
 800376a:	429f      	cmp	r7, r3
 800376c:	d108      	bne.n	8003780 <pbuf_copy+0xa8>
 800376e:	682d      	ldr	r5, [r5, #0]
 8003770:	b92d      	cbnz	r5, 800377e <pbuf_copy+0xa6>
 8003772:	b314      	cbz	r4, 80037ba <pbuf_copy+0xe2>
 8003774:	4b12      	ldr	r3, [pc, #72]	; (80037c0 <pbuf_copy+0xe8>)
 8003776:	4916      	ldr	r1, [pc, #88]	; (80037d0 <pbuf_copy+0xf8>)
 8003778:	f44f 7279 	mov.w	r2, #996	; 0x3e4
 800377c:	e7ba      	b.n	80036f4 <pbuf_copy+0x1c>
 800377e:	2700      	movs	r7, #0
 8003780:	b17c      	cbz	r4, 80037a2 <pbuf_copy+0xca>
 8003782:	8962      	ldrh	r2, [r4, #10]
 8003784:	8923      	ldrh	r3, [r4, #8]
 8003786:	429a      	cmp	r2, r3
 8003788:	d10b      	bne.n	80037a2 <pbuf_copy+0xca>
 800378a:	6823      	ldr	r3, [r4, #0]
 800378c:	b14b      	cbz	r3, 80037a2 <pbuf_copy+0xca>
 800378e:	4b0c      	ldr	r3, [pc, #48]	; (80037c0 <pbuf_copy+0xe8>)
 8003790:	f240 32e9 	movw	r2, #1001	; 0x3e9
 8003794:	490f      	ldr	r1, [pc, #60]	; (80037d4 <pbuf_copy+0xfc>)
 8003796:	480c      	ldr	r0, [pc, #48]	; (80037c8 <pbuf_copy+0xf0>)
 8003798:	f005 fa7c 	bl	8008c94 <iprintf>
 800379c:	f06f 0005 	mvn.w	r0, #5
 80037a0:	e7ad      	b.n	80036fe <pbuf_copy+0x26>
 80037a2:	896a      	ldrh	r2, [r5, #10]
 80037a4:	892b      	ldrh	r3, [r5, #8]
 80037a6:	429a      	cmp	r2, r3
 80037a8:	d105      	bne.n	80037b6 <pbuf_copy+0xde>
 80037aa:	682b      	ldr	r3, [r5, #0]
 80037ac:	b11b      	cbz	r3, 80037b6 <pbuf_copy+0xde>
 80037ae:	4b04      	ldr	r3, [pc, #16]	; (80037c0 <pbuf_copy+0xe8>)
 80037b0:	f240 32ee 	movw	r2, #1006	; 0x3ee
 80037b4:	e7ee      	b.n	8003794 <pbuf_copy+0xbc>
 80037b6:	2c00      	cmp	r4, #0
 80037b8:	d1ab      	bne.n	8003712 <pbuf_copy+0x3a>
 80037ba:	4620      	mov	r0, r4
 80037bc:	e79f      	b.n	80036fe <pbuf_copy+0x26>
 80037be:	bf00      	nop
 80037c0:	0800a02f 	.word	0x0800a02f
 80037c4:	0800a1c3 	.word	0x0800a1c3
 80037c8:	08009b3a 	.word	0x08009b3a
 80037cc:	0800a20a 	.word	0x0800a20a
 80037d0:	0800a225 	.word	0x0800a225
 80037d4:	0800a232 	.word	0x0800a232
 80037d8:	0800a1f3 	.word	0x0800a1f3

080037dc <pbuf_copy_partial>:
 80037dc:	e92d 41f0 	stmdb	sp!, {r4, r5, r6, r7, r8, lr}
 80037e0:	460f      	mov	r7, r1
 80037e2:	4690      	mov	r8, r2
 80037e4:	4605      	mov	r5, r0
 80037e6:	b950      	cbnz	r0, 80037fe <pbuf_copy_partial+0x22>
 80037e8:	4b1b      	ldr	r3, [pc, #108]	; (8003858 <pbuf_copy_partial+0x7c>)
 80037ea:	491c      	ldr	r1, [pc, #112]	; (800385c <pbuf_copy_partial+0x80>)
 80037ec:	481c      	ldr	r0, [pc, #112]	; (8003860 <pbuf_copy_partial+0x84>)
 80037ee:	f240 420a 	movw	r2, #1034	; 0x40a
 80037f2:	f005 fa4f 	bl	8008c94 <iprintf>
 80037f6:	462e      	mov	r6, r5
 80037f8:	4630      	mov	r0, r6
 80037fa:	e8bd 81f0 	ldmia.w	sp!, {r4, r5, r6, r7, r8, pc}
 80037fe:	bb41      	cbnz	r1, 8003852 <pbuf_copy_partial+0x76>
 8003800:	4b15      	ldr	r3, [pc, #84]	; (8003858 <pbuf_copy_partial+0x7c>)
 8003802:	4918      	ldr	r1, [pc, #96]	; (8003864 <pbuf_copy_partial+0x88>)
 8003804:	4816      	ldr	r0, [pc, #88]	; (8003860 <pbuf_copy_partial+0x84>)
 8003806:	f240 420b 	movw	r2, #1035	; 0x40b
 800380a:	f005 fa43 	bl	8008c94 <iprintf>
 800380e:	463e      	mov	r6, r7
 8003810:	e7f2      	b.n	80037f8 <pbuf_copy_partial+0x1c>
 8003812:	896c      	ldrh	r4, [r5, #10]
 8003814:	b153      	cbz	r3, 800382c <pbuf_copy_partial+0x50>
 8003816:	42a3      	cmp	r3, r4
 8003818:	d308      	bcc.n	800382c <pbuf_copy_partial+0x50>
 800381a:	1b1b      	subs	r3, r3, r4
 800381c:	b29b      	uxth	r3, r3
 800381e:	682d      	ldr	r5, [r5, #0]
 8003820:	f1b8 0f00 	cmp.w	r8, #0
 8003824:	d0e8      	beq.n	80037f8 <pbuf_copy_partial+0x1c>
 8003826:	2d00      	cmp	r5, #0
 8003828:	d1f3      	bne.n	8003812 <pbuf_copy_partial+0x36>
 800382a:	e7e5      	b.n	80037f8 <pbuf_copy_partial+0x1c>
 800382c:	1ae4      	subs	r4, r4, r3
 800382e:	b2a4      	uxth	r4, r4
 8003830:	4544      	cmp	r4, r8
 8003832:	6869      	ldr	r1, [r5, #4]
 8003834:	bf28      	it	cs
 8003836:	4644      	movcs	r4, r8
 8003838:	4622      	mov	r2, r4
 800383a:	4419      	add	r1, r3
 800383c:	19b8      	adds	r0, r7, r6
 800383e:	f005 fb04 	bl	8008e4a <memcpy>
 8003842:	4426      	add	r6, r4
 8003844:	eba8 0204 	sub.w	r2, r8, r4
 8003848:	b2b6      	uxth	r6, r6
 800384a:	fa1f f882 	uxth.w	r8, r2
 800384e:	2300      	movs	r3, #0
 8003850:	e7e5      	b.n	800381e <pbuf_copy_partial+0x42>
 8003852:	2600      	movs	r6, #0
 8003854:	e7e4      	b.n	8003820 <pbuf_copy_partial+0x44>
 8003856:	bf00      	nop
 8003858:	0800a02f 	.word	0x0800a02f
 800385c:	0800a25c 	.word	0x0800a25c
 8003860:	08009b3a 	.word	0x08009b3a
 8003864:	0800a27b 	.word	0x0800a27b

08003868 <pbuf_clone>:
 8003868:	b538      	push	{r3, r4, r5, lr}
 800386a:	4615      	mov	r5, r2
 800386c:	460a      	mov	r2, r1
 800386e:	8929      	ldrh	r1, [r5, #8]
 8003870:	f7ff fe04 	bl	800347c <pbuf_alloc>
 8003874:	4604      	mov	r4, r0
 8003876:	b150      	cbz	r0, 800388e <pbuf_clone+0x26>
 8003878:	4629      	mov	r1, r5
 800387a:	f7ff ff2d 	bl	80036d8 <pbuf_copy>
 800387e:	b130      	cbz	r0, 800388e <pbuf_clone+0x26>
 8003880:	4b04      	ldr	r3, [pc, #16]	; (8003894 <pbuf_clone+0x2c>)
 8003882:	4905      	ldr	r1, [pc, #20]	; (8003898 <pbuf_clone+0x30>)
 8003884:	4805      	ldr	r0, [pc, #20]	; (800389c <pbuf_clone+0x34>)
 8003886:	f240 5224 	movw	r2, #1316	; 0x524
 800388a:	f005 fa03 	bl	8008c94 <iprintf>
 800388e:	4620      	mov	r0, r4
 8003890:	bd38      	pop	{r3, r4, r5, pc}
 8003892:	bf00      	nop
 8003894:	0800a02f 	.word	0x0800a02f
 8003898:	0800a29e 	.word	0x0800a29e
 800389c:	08009b3a 	.word	0x08009b3a

080038a0 <tcp_new_port>:
 80038a0:	b5f0      	push	{r4, r5, r6, r7, lr}
 80038a2:	4c11      	ldr	r4, [pc, #68]	; (80038e8 <tcp_new_port+0x48>)
 80038a4:	8823      	ldrh	r3, [r4, #0]
 80038a6:	f44f 4080 	mov.w	r0, #16384	; 0x4000
 80038aa:	f64f 76ff 	movw	r6, #65535	; 0xffff
 80038ae:	3301      	adds	r3, #1
 80038b0:	b29b      	uxth	r3, r3
 80038b2:	4d0e      	ldr	r5, [pc, #56]	; (80038ec <tcp_new_port+0x4c>)
 80038b4:	42b3      	cmp	r3, r6
 80038b6:	bf08      	it	eq
 80038b8:	f44f 4340 	moveq.w	r3, #49152	; 0xc000
 80038bc:	2200      	movs	r2, #0
 80038be:	f855 1b04 	ldr.w	r1, [r5], #4
 80038c2:	6809      	ldr	r1, [r1, #0]
 80038c4:	b929      	cbnz	r1, 80038d2 <tcp_new_port+0x32>
 80038c6:	3201      	adds	r2, #1
 80038c8:	b2d2      	uxtb	r2, r2
 80038ca:	2a04      	cmp	r2, #4
 80038cc:	d1f7      	bne.n	80038be <tcp_new_port+0x1e>
 80038ce:	4618      	mov	r0, r3
 80038d0:	e006      	b.n	80038e0 <tcp_new_port+0x40>
 80038d2:	8acf      	ldrh	r7, [r1, #22]
 80038d4:	429f      	cmp	r7, r3
 80038d6:	d105      	bne.n	80038e4 <tcp_new_port+0x44>
 80038d8:	3801      	subs	r0, #1
 80038da:	b280      	uxth	r0, r0
 80038dc:	2800      	cmp	r0, #0
 80038de:	d1e6      	bne.n	80038ae <tcp_new_port+0xe>
 80038e0:	8023      	strh	r3, [r4, #0]
 80038e2:	bdf0      	pop	{r4, r5, r6, r7, pc}
 80038e4:	68c9      	ldr	r1, [r1, #12]
 80038e6:	e7ed      	b.n	80038c4 <tcp_new_port+0x24>
 80038e8:	20000024 	.word	0x20000024
 80038ec:	0800a884 	.word	0x0800a884

080038f0 <tcp_close_shutdown_fin>:
 80038f0:	b510      	push	{r4, lr}
 80038f2:	4604      	mov	r4, r0
 80038f4:	b930      	cbnz	r0, 8003904 <tcp_close_shutdown_fin+0x14>
 80038f6:	4b13      	ldr	r3, [pc, #76]	; (8003944 <tcp_close_shutdown_fin+0x54>)
 80038f8:	4913      	ldr	r1, [pc, #76]	; (8003948 <tcp_close_shutdown_fin+0x58>)
 80038fa:	4814      	ldr	r0, [pc, #80]	; (800394c <tcp_close_shutdown_fin+0x5c>)
 80038fc:	f44f 72ce 	mov.w	r2, #412	; 0x19c
 8003900:	f005 f9c8 	bl	8008c94 <iprintf>
 8003904:	7d23      	ldrb	r3, [r4, #20]
 8003906:	2b04      	cmp	r3, #4
 8003908:	d003      	beq.n	8003912 <tcp_close_shutdown_fin+0x22>
 800390a:	2b07      	cmp	r3, #7
 800390c:	d00c      	beq.n	8003928 <tcp_close_shutdown_fin+0x38>
 800390e:	2b03      	cmp	r3, #3
 8003910:	d108      	bne.n	8003924 <tcp_close_shutdown_fin+0x34>
 8003912:	4620      	mov	r0, r4
 8003914:	f003 f88a 	bl	8006a2c <tcp_send_fin>
 8003918:	b960      	cbnz	r0, 8003934 <tcp_close_shutdown_fin+0x44>
 800391a:	2305      	movs	r3, #5
 800391c:	7523      	strb	r3, [r4, #20]
 800391e:	4620      	mov	r0, r4
 8003920:	f003 f9e6 	bl	8006cf0 <tcp_output>
 8003924:	2000      	movs	r0, #0
 8003926:	bd10      	pop	{r4, pc}
 8003928:	4620      	mov	r0, r4
 800392a:	f003 f87f 	bl	8006a2c <tcp_send_fin>
 800392e:	b908      	cbnz	r0, 8003934 <tcp_close_shutdown_fin+0x44>
 8003930:	2309      	movs	r3, #9
 8003932:	e7f3      	b.n	800391c <tcp_close_shutdown_fin+0x2c>
 8003934:	1c43      	adds	r3, r0, #1
 8003936:	d1f6      	bne.n	8003926 <tcp_close_shutdown_fin+0x36>
 8003938:	8b63      	ldrh	r3, [r4, #26]
 800393a:	f043 0308 	orr.w	r3, r3, #8
 800393e:	8363      	strh	r3, [r4, #26]
 8003940:	e7f0      	b.n	8003924 <tcp_close_shutdown_fin+0x34>
 8003942:	bf00      	nop
 8003944:	0800a2af 	.word	0x0800a2af
 8003948:	0800a2de 	.word	0x0800a2de
 800394c:	08009b3a 	.word	0x08009b3a

08003950 <tcp_init>:
 8003950:	b508      	push	{r3, lr}
 8003952:	f005 f89f 	bl	8008a94 <rand>
 8003956:	4b03      	ldr	r3, [pc, #12]	; (8003964 <tcp_init+0x14>)
 8003958:	ea6f 4080 	mvn.w	r0, r0, lsl #18
 800395c:	ea6f 4090 	mvn.w	r0, r0, lsr #18
 8003960:	8018      	strh	r0, [r3, #0]
 8003962:	bd08      	pop	{r3, pc}
 8003964:	20000024 	.word	0x20000024

08003968 <tcp_free>:
 8003968:	b510      	push	{r4, lr}
 800396a:	7d03      	ldrb	r3, [r0, #20]
 800396c:	2b01      	cmp	r3, #1
 800396e:	4604      	mov	r4, r0
 8003970:	d105      	bne.n	800397e <tcp_free+0x16>
 8003972:	4b06      	ldr	r3, [pc, #24]	; (800398c <tcp_free+0x24>)
 8003974:	4906      	ldr	r1, [pc, #24]	; (8003990 <tcp_free+0x28>)
 8003976:	4807      	ldr	r0, [pc, #28]	; (8003994 <tcp_free+0x2c>)
 8003978:	22d4      	movs	r2, #212	; 0xd4
 800397a:	f005 f98b 	bl	8008c94 <iprintf>
 800397e:	4621      	mov	r1, r4
 8003980:	2001      	movs	r0, #1
 8003982:	e8bd 4010 	ldmia.w	sp!, {r4, lr}
 8003986:	f7ff baa3 	b.w	8002ed0 <memp_free>
 800398a:	bf00      	nop
 800398c:	0800a2af 	.word	0x0800a2af
 8003990:	0800a2ea 	.word	0x0800a2ea
 8003994:	08009b3a 	.word	0x08009b3a

08003998 <tcp_bind>:
 8003998:	b5f8      	push	{r3, r4, r5, r6, r7, lr}
 800399a:	4d23      	ldr	r5, [pc, #140]	; (8003a28 <tcp_bind+0x90>)
 800399c:	4604      	mov	r4, r0
 800399e:	2900      	cmp	r1, #0
 80039a0:	bf18      	it	ne
 80039a2:	460d      	movne	r5, r1
 80039a4:	b948      	cbnz	r0, 80039ba <tcp_bind+0x22>
 80039a6:	4b21      	ldr	r3, [pc, #132]	; (8003a2c <tcp_bind+0x94>)
 80039a8:	4921      	ldr	r1, [pc, #132]	; (8003a30 <tcp_bind+0x98>)
 80039aa:	4822      	ldr	r0, [pc, #136]	; (8003a34 <tcp_bind+0x9c>)
 80039ac:	f240 22a9 	movw	r2, #681	; 0x2a9
 80039b0:	f005 f970 	bl	8008c94 <iprintf>
 80039b4:	f06f 000f 	mvn.w	r0, #15
 80039b8:	bdf8      	pop	{r3, r4, r5, r6, r7, pc}
 80039ba:	7d03      	ldrb	r3, [r0, #20]
 80039bc:	b14b      	cbz	r3, 80039d2 <tcp_bind+0x3a>
 80039be:	4b1b      	ldr	r3, [pc, #108]	; (8003a2c <tcp_bind+0x94>)
 80039c0:	491d      	ldr	r1, [pc, #116]	; (8003a38 <tcp_bind+0xa0>)
 80039c2:	481c      	ldr	r0, [pc, #112]	; (8003a34 <tcp_bind+0x9c>)
 80039c4:	f240 22ab 	movw	r2, #683	; 0x2ab
 80039c8:	f005 f964 	bl	8008c94 <iprintf>
 80039cc:	f06f 0005 	mvn.w	r0, #5
 80039d0:	e7f2      	b.n	80039b8 <tcp_bind+0x20>
 80039d2:	b932      	cbnz	r2, 80039e2 <tcp_bind+0x4a>
 80039d4:	f7ff ff64 	bl	80038a0 <tcp_new_port>
 80039d8:	4602      	mov	r2, r0
 80039da:	b950      	cbnz	r0, 80039f2 <tcp_bind+0x5a>
 80039dc:	f06f 0001 	mvn.w	r0, #1
 80039e0:	e7ea      	b.n	80039b8 <tcp_bind+0x20>
 80039e2:	4816      	ldr	r0, [pc, #88]	; (8003a3c <tcp_bind+0xa4>)
 80039e4:	f850 1b04 	ldr.w	r1, [r0], #4
 80039e8:	6809      	ldr	r1, [r1, #0]
 80039ea:	b971      	cbnz	r1, 8003a0a <tcp_bind+0x72>
 80039ec:	3301      	adds	r3, #1
 80039ee:	2b04      	cmp	r3, #4
 80039f0:	d1f8      	bne.n	80039e4 <tcp_bind+0x4c>
 80039f2:	682b      	ldr	r3, [r5, #0]
 80039f4:	b103      	cbz	r3, 80039f8 <tcp_bind+0x60>
 80039f6:	6023      	str	r3, [r4, #0]
 80039f8:	4b11      	ldr	r3, [pc, #68]	; (8003a40 <tcp_bind+0xa8>)
 80039fa:	82e2      	strh	r2, [r4, #22]
 80039fc:	681a      	ldr	r2, [r3, #0]
 80039fe:	60e2      	str	r2, [r4, #12]
 8003a00:	601c      	str	r4, [r3, #0]
 8003a02:	f003 fc4b 	bl	800729c <tcp_timer_needed>
 8003a06:	2000      	movs	r0, #0
 8003a08:	e7d6      	b.n	80039b8 <tcp_bind+0x20>
 8003a0a:	8ace      	ldrh	r6, [r1, #22]
 8003a0c:	4296      	cmp	r6, r2
 8003a0e:	d105      	bne.n	8003a1c <tcp_bind+0x84>
 8003a10:	680f      	ldr	r7, [r1, #0]
 8003a12:	b12f      	cbz	r7, 8003a20 <tcp_bind+0x88>
 8003a14:	682e      	ldr	r6, [r5, #0]
 8003a16:	b11e      	cbz	r6, 8003a20 <tcp_bind+0x88>
 8003a18:	42b7      	cmp	r7, r6
 8003a1a:	d001      	beq.n	8003a20 <tcp_bind+0x88>
 8003a1c:	68c9      	ldr	r1, [r1, #12]
 8003a1e:	e7e4      	b.n	80039ea <tcp_bind+0x52>
 8003a20:	f06f 0007 	mvn.w	r0, #7
 8003a24:	e7c8      	b.n	80039b8 <tcp_bind+0x20>
 8003a26:	bf00      	nop
 8003a28:	0800b768 	.word	0x0800b768
 8003a2c:	0800a2af 	.word	0x0800a2af
 8003a30:	0800a2fb 	.word	0x0800a2fb
 8003a34:	08009b3a 	.word	0x08009b3a
 8003a38:	0800a311 	.word	0x0800a311
 8003a3c:	0800a884 	.word	0x0800a884
 8003a40:	20008298 	.word	0x20008298

08003a44 <tcp_listen_with_backlog_and_err>:
 8003a44:	b5f8      	push	{r3, r4, r5, r6, r7, lr}
 8003a46:	4616      	mov	r6, r2
 8003a48:	4605      	mov	r5, r0
 8003a4a:	b968      	cbnz	r0, 8003a68 <tcp_listen_with_backlog_and_err+0x24>
 8003a4c:	4b29      	ldr	r3, [pc, #164]	; (8003af4 <tcp_listen_with_backlog_and_err+0xb0>)
 8003a4e:	492a      	ldr	r1, [pc, #168]	; (8003af8 <tcp_listen_with_backlog_and_err+0xb4>)
 8003a50:	482a      	ldr	r0, [pc, #168]	; (8003afc <tcp_listen_with_backlog_and_err+0xb8>)
 8003a52:	f240 3259 	movw	r2, #857	; 0x359
 8003a56:	f005 f91d 	bl	8008c94 <iprintf>
 8003a5a:	462c      	mov	r4, r5
 8003a5c:	f06f 030f 	mvn.w	r3, #15
 8003a60:	b106      	cbz	r6, 8003a64 <tcp_listen_with_backlog_and_err+0x20>
 8003a62:	7033      	strb	r3, [r6, #0]
 8003a64:	4620      	mov	r0, r4
 8003a66:	bdf8      	pop	{r3, r4, r5, r6, r7, pc}
 8003a68:	7d07      	ldrb	r7, [r0, #20]
 8003a6a:	b157      	cbz	r7, 8003a82 <tcp_listen_with_backlog_and_err+0x3e>
 8003a6c:	4b21      	ldr	r3, [pc, #132]	; (8003af4 <tcp_listen_with_backlog_and_err+0xb0>)
 8003a6e:	4924      	ldr	r1, [pc, #144]	; (8003b00 <tcp_listen_with_backlog_and_err+0xbc>)
 8003a70:	4822      	ldr	r0, [pc, #136]	; (8003afc <tcp_listen_with_backlog_and_err+0xb8>)
 8003a72:	f240 325a 	movw	r2, #858	; 0x35a
 8003a76:	f005 f90d 	bl	8008c94 <iprintf>
 8003a7a:	2400      	movs	r4, #0
 8003a7c:	f06f 030e 	mvn.w	r3, #14
 8003a80:	e7ee      	b.n	8003a60 <tcp_listen_with_backlog_and_err+0x1c>
 8003a82:	2002      	movs	r0, #2
 8003a84:	f7ff f9f4 	bl	8002e70 <memp_malloc>
 8003a88:	4604      	mov	r4, r0
 8003a8a:	2800      	cmp	r0, #0
 8003a8c:	d02f      	beq.n	8003aee <tcp_listen_with_backlog_and_err+0xaa>
 8003a8e:	692b      	ldr	r3, [r5, #16]
 8003a90:	6103      	str	r3, [r0, #16]
 8003a92:	2201      	movs	r2, #1
 8003a94:	8aeb      	ldrh	r3, [r5, #22]
 8003a96:	82c3      	strh	r3, [r0, #22]
 8003a98:	7502      	strb	r2, [r0, #20]
 8003a9a:	7d6a      	ldrb	r2, [r5, #21]
 8003a9c:	7542      	strb	r2, [r0, #21]
 8003a9e:	7a6a      	ldrb	r2, [r5, #9]
 8003aa0:	7242      	strb	r2, [r0, #9]
 8003aa2:	7207      	strb	r7, [r0, #8]
 8003aa4:	7aea      	ldrb	r2, [r5, #11]
 8003aa6:	72c2      	strb	r2, [r0, #11]
 8003aa8:	7aaa      	ldrb	r2, [r5, #10]
 8003aaa:	7282      	strb	r2, [r0, #10]
 8003aac:	682a      	ldr	r2, [r5, #0]
 8003aae:	6002      	str	r2, [r0, #0]
 8003ab0:	b13b      	cbz	r3, 8003ac2 <tcp_listen_with_backlog_and_err+0x7e>
 8003ab2:	4a14      	ldr	r2, [pc, #80]	; (8003b04 <tcp_listen_with_backlog_and_err+0xc0>)
 8003ab4:	6813      	ldr	r3, [r2, #0]
 8003ab6:	42ab      	cmp	r3, r5
 8003ab8:	d111      	bne.n	8003ade <tcp_listen_with_backlog_and_err+0x9a>
 8003aba:	68eb      	ldr	r3, [r5, #12]
 8003abc:	6013      	str	r3, [r2, #0]
 8003abe:	2300      	movs	r3, #0
 8003ac0:	60eb      	str	r3, [r5, #12]
 8003ac2:	4628      	mov	r0, r5
 8003ac4:	f7ff ff50 	bl	8003968 <tcp_free>
 8003ac8:	4b0f      	ldr	r3, [pc, #60]	; (8003b08 <tcp_listen_with_backlog_and_err+0xc4>)
 8003aca:	61a3      	str	r3, [r4, #24]
 8003acc:	4b0f      	ldr	r3, [pc, #60]	; (8003b0c <tcp_listen_with_backlog_and_err+0xc8>)
 8003ace:	681a      	ldr	r2, [r3, #0]
 8003ad0:	60e2      	str	r2, [r4, #12]
 8003ad2:	601c      	str	r4, [r3, #0]
 8003ad4:	f003 fbe2 	bl	800729c <tcp_timer_needed>
 8003ad8:	2300      	movs	r3, #0
 8003ada:	e7c1      	b.n	8003a60 <tcp_listen_with_backlog_and_err+0x1c>
 8003adc:	4613      	mov	r3, r2
 8003ade:	2b00      	cmp	r3, #0
 8003ae0:	d0ed      	beq.n	8003abe <tcp_listen_with_backlog_and_err+0x7a>
 8003ae2:	68da      	ldr	r2, [r3, #12]
 8003ae4:	42aa      	cmp	r2, r5
 8003ae6:	d1f9      	bne.n	8003adc <tcp_listen_with_backlog_and_err+0x98>
 8003ae8:	68ea      	ldr	r2, [r5, #12]
 8003aea:	60da      	str	r2, [r3, #12]
 8003aec:	e7e7      	b.n	8003abe <tcp_listen_with_backlog_and_err+0x7a>
 8003aee:	f04f 33ff 	mov.w	r3, #4294967295
 8003af2:	e7b5      	b.n	8003a60 <tcp_listen_with_backlog_and_err+0x1c>
 8003af4:	0800a2af 	.word	0x0800a2af
 8003af8:	0800a339 	.word	0x0800a339
 8003afc:	08009b3a 	.word	0x08009b3a
 8003b00:	0800a366 	.word	0x0800a366
 8003b04:	20008298 	.word	0x20008298
 8003b08:	08003fc1 	.word	0x08003fc1
 8003b0c:	2000829c 	.word	0x2000829c

08003b10 <tcp_listen_with_backlog>:
 8003b10:	2200      	movs	r2, #0
 8003b12:	f7ff bf97 	b.w	8003a44 <tcp_listen_with_backlog_and_err>
	...

08003b18 <tcp_update_rcv_ann_wnd>:
 8003b18:	b570      	push	{r4, r5, r6, lr}
 8003b1a:	4604      	mov	r4, r0
 8003b1c:	b930      	cbnz	r0, 8003b2c <tcp_update_rcv_ann_wnd+0x14>
 8003b1e:	4b15      	ldr	r3, [pc, #84]	; (8003b74 <tcp_update_rcv_ann_wnd+0x5c>)
 8003b20:	4915      	ldr	r1, [pc, #84]	; (8003b78 <tcp_update_rcv_ann_wnd+0x60>)
 8003b22:	4816      	ldr	r0, [pc, #88]	; (8003b7c <tcp_update_rcv_ann_wnd+0x64>)
 8003b24:	f240 32a6 	movw	r2, #934	; 0x3a6
 8003b28:	f005 f8b4 	bl	8008c94 <iprintf>
 8003b2c:	8d23      	ldrh	r3, [r4, #40]	; 0x28
 8003b2e:	6ae1      	ldr	r1, [r4, #44]	; 0x2c
 8003b30:	8e66      	ldrh	r6, [r4, #50]	; 0x32
 8003b32:	6a62      	ldr	r2, [r4, #36]	; 0x24
 8003b34:	1a58      	subs	r0, r3, r1
 8003b36:	f5b6 6f86 	cmp.w	r6, #1072	; 0x430
 8003b3a:	4410      	add	r0, r2
 8003b3c:	bf94      	ite	ls
 8003b3e:	1b85      	subls	r5, r0, r6
 8003b40:	f5a0 6586 	subhi.w	r5, r0, #1072	; 0x430
 8003b44:	2d00      	cmp	r5, #0
 8003b46:	da0f      	bge.n	8003b68 <tcp_update_rcv_ann_wnd+0x50>
 8003b48:	1a53      	subs	r3, r2, r1
 8003b4a:	2b00      	cmp	r3, #0
 8003b4c:	dc0e      	bgt.n	8003b6c <tcp_update_rcv_ann_wnd+0x54>
 8003b4e:	1a8d      	subs	r5, r1, r2
 8003b50:	f5b5 3f80 	cmp.w	r5, #65536	; 0x10000
 8003b54:	d306      	bcc.n	8003b64 <tcp_update_rcv_ann_wnd+0x4c>
 8003b56:	4b07      	ldr	r3, [pc, #28]	; (8003b74 <tcp_update_rcv_ann_wnd+0x5c>)
 8003b58:	4909      	ldr	r1, [pc, #36]	; (8003b80 <tcp_update_rcv_ann_wnd+0x68>)
 8003b5a:	4808      	ldr	r0, [pc, #32]	; (8003b7c <tcp_update_rcv_ann_wnd+0x64>)
 8003b5c:	f240 32b6 	movw	r2, #950	; 0x3b6
 8003b60:	f005 f898 	bl	8008c94 <iprintf>
 8003b64:	b2ab      	uxth	r3, r5
 8003b66:	2000      	movs	r0, #0
 8003b68:	8563      	strh	r3, [r4, #42]	; 0x2a
 8003b6a:	bd70      	pop	{r4, r5, r6, pc}
 8003b6c:	2300      	movs	r3, #0
 8003b6e:	4618      	mov	r0, r3
 8003b70:	e7fa      	b.n	8003b68 <tcp_update_rcv_ann_wnd+0x50>
 8003b72:	bf00      	nop
 8003b74:	0800a2af 	.word	0x0800a2af
 8003b78:	0800a39d 	.word	0x0800a39d
 8003b7c:	08009b3a 	.word	0x08009b3a
 8003b80:	0800a3c1 	.word	0x0800a3c1

08003b84 <tcp_recved>:
 8003b84:	b570      	push	{r4, r5, r6, lr}
 8003b86:	460c      	mov	r4, r1
 8003b88:	4605      	mov	r5, r0
 8003b8a:	b940      	cbnz	r0, 8003b9e <tcp_recved+0x1a>
 8003b8c:	e8bd 4070 	ldmia.w	sp!, {r4, r5, r6, lr}
 8003b90:	4b17      	ldr	r3, [pc, #92]	; (8003bf0 <tcp_recved+0x6c>)
 8003b92:	4918      	ldr	r1, [pc, #96]	; (8003bf4 <tcp_recved+0x70>)
 8003b94:	4818      	ldr	r0, [pc, #96]	; (8003bf8 <tcp_recved+0x74>)
 8003b96:	f240 32cf 	movw	r2, #975	; 0x3cf
 8003b9a:	f005 b87b 	b.w	8008c94 <iprintf>
 8003b9e:	7d03      	ldrb	r3, [r0, #20]
 8003ba0:	2b01      	cmp	r3, #1
 8003ba2:	d106      	bne.n	8003bb2 <tcp_recved+0x2e>
 8003ba4:	4b12      	ldr	r3, [pc, #72]	; (8003bf0 <tcp_recved+0x6c>)
 8003ba6:	4915      	ldr	r1, [pc, #84]	; (8003bfc <tcp_recved+0x78>)
 8003ba8:	4813      	ldr	r0, [pc, #76]	; (8003bf8 <tcp_recved+0x74>)
 8003baa:	f240 32d2 	movw	r2, #978	; 0x3d2
 8003bae:	f005 f871 	bl	8008c94 <iprintf>
 8003bb2:	8d2b      	ldrh	r3, [r5, #40]	; 0x28
 8003bb4:	1919      	adds	r1, r3, r4
 8003bb6:	b289      	uxth	r1, r1
 8003bb8:	f5b1 6f06 	cmp.w	r1, #2144	; 0x860
 8003bbc:	d813      	bhi.n	8003be6 <tcp_recved+0x62>
 8003bbe:	428b      	cmp	r3, r1
 8003bc0:	bf88      	it	hi
 8003bc2:	f44f 6106 	movhi.w	r1, #2144	; 0x860
 8003bc6:	8529      	strh	r1, [r5, #40]	; 0x28
 8003bc8:	4628      	mov	r0, r5
 8003bca:	f7ff ffa5 	bl	8003b18 <tcp_update_rcv_ann_wnd>
 8003bce:	f5b0 7f06 	cmp.w	r0, #536	; 0x218
 8003bd2:	d30b      	bcc.n	8003bec <tcp_recved+0x68>
 8003bd4:	8b6b      	ldrh	r3, [r5, #26]
 8003bd6:	f043 0302 	orr.w	r3, r3, #2
 8003bda:	836b      	strh	r3, [r5, #26]
 8003bdc:	4628      	mov	r0, r5
 8003bde:	e8bd 4070 	ldmia.w	sp!, {r4, r5, r6, lr}
 8003be2:	f003 b885 	b.w	8006cf0 <tcp_output>
 8003be6:	f44f 6106 	mov.w	r1, #2144	; 0x860
 8003bea:	e7ec      	b.n	8003bc6 <tcp_recved+0x42>
 8003bec:	bd70      	pop	{r4, r5, r6, pc}
 8003bee:	bf00      	nop
 8003bf0:	0800a2af 	.word	0x0800a2af
 8003bf4:	0800a3db 	.word	0x0800a3db
 8003bf8:	08009b3a 	.word	0x08009b3a
 8003bfc:	0800a3f3 	.word	0x0800a3f3

08003c00 <tcp_seg_free>:
 8003c00:	b510      	push	{r4, lr}
 8003c02:	4604      	mov	r4, r0
 8003c04:	b148      	cbz	r0, 8003c1a <tcp_seg_free+0x1a>
 8003c06:	6840      	ldr	r0, [r0, #4]
 8003c08:	b108      	cbz	r0, 8003c0e <tcp_seg_free+0xe>
 8003c0a:	f7ff fbd3 	bl	80033b4 <pbuf_free>
 8003c0e:	4621      	mov	r1, r4
 8003c10:	2003      	movs	r0, #3
 8003c12:	e8bd 4010 	ldmia.w	sp!, {r4, lr}
 8003c16:	f7ff b95b 	b.w	8002ed0 <memp_free>
 8003c1a:	bd10      	pop	{r4, pc}

08003c1c <tcp_segs_free>:
 8003c1c:	b510      	push	{r4, lr}
 8003c1e:	b900      	cbnz	r0, 8003c22 <tcp_segs_free+0x6>
 8003c20:	bd10      	pop	{r4, pc}
 8003c22:	6804      	ldr	r4, [r0, #0]
 8003c24:	f7ff ffec 	bl	8003c00 <tcp_seg_free>
 8003c28:	4620      	mov	r0, r4
 8003c2a:	e7f8      	b.n	8003c1e <tcp_segs_free+0x2>

08003c2c <tcp_setprio>:
 8003c2c:	b930      	cbnz	r0, 8003c3c <tcp_setprio+0x10>
 8003c2e:	4b04      	ldr	r3, [pc, #16]	; (8003c40 <tcp_setprio+0x14>)
 8003c30:	4904      	ldr	r1, [pc, #16]	; (8003c44 <tcp_setprio+0x18>)
 8003c32:	4805      	ldr	r0, [pc, #20]	; (8003c48 <tcp_setprio+0x1c>)
 8003c34:	f44f 62ce 	mov.w	r2, #1648	; 0x670
 8003c38:	f005 b82c 	b.w	8008c94 <iprintf>
 8003c3c:	7541      	strb	r1, [r0, #21]
 8003c3e:	4770      	bx	lr
 8003c40:	0800a2af 	.word	0x0800a2af
 8003c44:	0800a419 	.word	0x0800a419
 8003c48:	08009b3a 	.word	0x08009b3a

08003c4c <tcp_seg_copy>:
 8003c4c:	b538      	push	{r3, r4, r5, lr}
 8003c4e:	4604      	mov	r4, r0
 8003c50:	b930      	cbnz	r0, 8003c60 <tcp_seg_copy+0x14>
 8003c52:	4b0d      	ldr	r3, [pc, #52]	; (8003c88 <tcp_seg_copy+0x3c>)
 8003c54:	490d      	ldr	r1, [pc, #52]	; (8003c8c <tcp_seg_copy+0x40>)
 8003c56:	480e      	ldr	r0, [pc, #56]	; (8003c90 <tcp_seg_copy+0x44>)
 8003c58:	f240 6282 	movw	r2, #1666	; 0x682
 8003c5c:	f005 f81a 	bl	8008c94 <iprintf>
 8003c60:	2003      	movs	r0, #3
 8003c62:	f7ff f905 	bl	8002e70 <memp_malloc>
 8003c66:	4605      	mov	r5, r0
 8003c68:	b160      	cbz	r0, 8003c84 <tcp_seg_copy+0x38>
 8003c6a:	4623      	mov	r3, r4
 8003c6c:	4602      	mov	r2, r0
 8003c6e:	f104 0110 	add.w	r1, r4, #16
 8003c72:	f853 0b04 	ldr.w	r0, [r3], #4
 8003c76:	f842 0b04 	str.w	r0, [r2], #4
 8003c7a:	428b      	cmp	r3, r1
 8003c7c:	d1f9      	bne.n	8003c72 <tcp_seg_copy+0x26>
 8003c7e:	6868      	ldr	r0, [r5, #4]
 8003c80:	f7ff fcdc 	bl	800363c <pbuf_ref>
 8003c84:	4628      	mov	r0, r5
 8003c86:	bd38      	pop	{r3, r4, r5, pc}
 8003c88:	0800a2af 	.word	0x0800a2af
 8003c8c:	0800a432 	.word	0x0800a432
 8003c90:	08009b3a 	.word	0x08009b3a

08003c94 <tcp_recv>:
 8003c94:	b538      	push	{r3, r4, r5, lr}
 8003c96:	460d      	mov	r5, r1
 8003c98:	4604      	mov	r4, r0
 8003c9a:	b158      	cbz	r0, 8003cb4 <tcp_recv+0x20>
 8003c9c:	7d03      	ldrb	r3, [r0, #20]
 8003c9e:	2b01      	cmp	r3, #1
 8003ca0:	d106      	bne.n	8003cb0 <tcp_recv+0x1c>
 8003ca2:	4b05      	ldr	r3, [pc, #20]	; (8003cb8 <tcp_recv+0x24>)
 8003ca4:	4905      	ldr	r1, [pc, #20]	; (8003cbc <tcp_recv+0x28>)
 8003ca6:	4806      	ldr	r0, [pc, #24]	; (8003cc0 <tcp_recv+0x2c>)
 8003ca8:	f240 72df 	movw	r2, #2015	; 0x7df
 8003cac:	f004 fff2 	bl	8008c94 <iprintf>
 8003cb0:	f8c4 5084 	str.w	r5, [r4, #132]	; 0x84
 8003cb4:	bd38      	pop	{r3, r4, r5, pc}
 8003cb6:	bf00      	nop
 8003cb8:	0800a2af 	.word	0x0800a2af
 8003cbc:	0800a44c 	.word	0x0800a44c
 8003cc0:	08009b3a 	.word	0x08009b3a

08003cc4 <tcp_err>:
 8003cc4:	b538      	push	{r3, r4, r5, lr}
 8003cc6:	460d      	mov	r5, r1
 8003cc8:	4604      	mov	r4, r0
 8003cca:	b158      	cbz	r0, 8003ce4 <tcp_err+0x20>
 8003ccc:	7d03      	ldrb	r3, [r0, #20]
 8003cce:	2b01      	cmp	r3, #1
 8003cd0:	d106      	bne.n	8003ce0 <tcp_err+0x1c>
 8003cd2:	4b05      	ldr	r3, [pc, #20]	; (8003ce8 <tcp_err+0x24>)
 8003cd4:	4905      	ldr	r1, [pc, #20]	; (8003cec <tcp_err+0x28>)
 8003cd6:	4806      	ldr	r0, [pc, #24]	; (8003cf0 <tcp_err+0x2c>)
 8003cd8:	f640 020d 	movw	r2, #2061	; 0x80d
 8003cdc:	f004 ffda 	bl	8008c94 <iprintf>
 8003ce0:	f8c4 5090 	str.w	r5, [r4, #144]	; 0x90
 8003ce4:	bd38      	pop	{r3, r4, r5, pc}
 8003ce6:	bf00      	nop
 8003ce8:	0800a2af 	.word	0x0800a2af
 8003cec:	0800a473 	.word	0x0800a473
 8003cf0:	08009b3a 	.word	0x08009b3a

08003cf4 <tcp_accept>:
 8003cf4:	b118      	cbz	r0, 8003cfe <tcp_accept+0xa>
 8003cf6:	7d03      	ldrb	r3, [r0, #20]
 8003cf8:	2b01      	cmp	r3, #1
 8003cfa:	bf08      	it	eq
 8003cfc:	6181      	streq	r1, [r0, #24]
 8003cfe:	4770      	bx	lr

08003d00 <tcp_next_iss>:
 8003d00:	b508      	push	{r3, lr}
 8003d02:	b930      	cbnz	r0, 8003d12 <tcp_next_iss+0x12>
 8003d04:	4b06      	ldr	r3, [pc, #24]	; (8003d20 <tcp_next_iss+0x20>)
 8003d06:	4907      	ldr	r1, [pc, #28]	; (8003d24 <tcp_next_iss+0x24>)
 8003d08:	4807      	ldr	r0, [pc, #28]	; (8003d28 <tcp_next_iss+0x28>)
 8003d0a:	f640 02af 	movw	r2, #2223	; 0x8af
 8003d0e:	f004 ffc1 	bl	8008c94 <iprintf>
 8003d12:	4b06      	ldr	r3, [pc, #24]	; (8003d2c <tcp_next_iss+0x2c>)
 8003d14:	4a06      	ldr	r2, [pc, #24]	; (8003d30 <tcp_next_iss+0x30>)
 8003d16:	6818      	ldr	r0, [r3, #0]
 8003d18:	6812      	ldr	r2, [r2, #0]
 8003d1a:	4410      	add	r0, r2
 8003d1c:	6018      	str	r0, [r3, #0]
 8003d1e:	bd08      	pop	{r3, pc}
 8003d20:	0800a2af 	.word	0x0800a2af
 8003d24:	0800a499 	.word	0x0800a499
 8003d28:	08009b3a 	.word	0x08009b3a
 8003d2c:	20000020 	.word	0x20000020
 8003d30:	200082a0 	.word	0x200082a0

08003d34 <tcp_eff_send_mss_netif>:
 8003d34:	b538      	push	{r3, r4, r5, lr}
 8003d36:	4604      	mov	r4, r0
 8003d38:	460d      	mov	r5, r1
 8003d3a:	b932      	cbnz	r2, 8003d4a <tcp_eff_send_mss_netif+0x16>
 8003d3c:	4b09      	ldr	r3, [pc, #36]	; (8003d64 <tcp_eff_send_mss_netif+0x30>)
 8003d3e:	490a      	ldr	r1, [pc, #40]	; (8003d68 <tcp_eff_send_mss_netif+0x34>)
 8003d40:	480a      	ldr	r0, [pc, #40]	; (8003d6c <tcp_eff_send_mss_netif+0x38>)
 8003d42:	f640 02c5 	movw	r2, #2245	; 0x8c5
 8003d46:	f004 ffa5 	bl	8008c94 <iprintf>
 8003d4a:	b14d      	cbz	r5, 8003d60 <tcp_eff_send_mss_netif+0x2c>
 8003d4c:	8cab      	ldrh	r3, [r5, #36]	; 0x24
 8003d4e:	b13b      	cbz	r3, 8003d60 <tcp_eff_send_mss_netif+0x2c>
 8003d50:	2b28      	cmp	r3, #40	; 0x28
 8003d52:	bf86      	itte	hi
 8003d54:	3b28      	subhi	r3, #40	; 0x28
 8003d56:	b29b      	uxthhi	r3, r3
 8003d58:	2300      	movls	r3, #0
 8003d5a:	429c      	cmp	r4, r3
 8003d5c:	bf28      	it	cs
 8003d5e:	461c      	movcs	r4, r3
 8003d60:	4620      	mov	r0, r4
 8003d62:	bd38      	pop	{r3, r4, r5, pc}
 8003d64:	0800a2af 	.word	0x0800a2af
 8003d68:	0800a4b3 	.word	0x0800a4b3
 8003d6c:	08009b3a 	.word	0x08009b3a

08003d70 <tcp_free_ooseq>:
 8003d70:	b510      	push	{r4, lr}
 8003d72:	4604      	mov	r4, r0
 8003d74:	6f40      	ldr	r0, [r0, #116]	; 0x74
 8003d76:	b118      	cbz	r0, 8003d80 <tcp_free_ooseq+0x10>
 8003d78:	f7ff ff50 	bl	8003c1c <tcp_segs_free>
 8003d7c:	2300      	movs	r3, #0
 8003d7e:	6763      	str	r3, [r4, #116]	; 0x74
 8003d80:	bd10      	pop	{r4, pc}
	...

08003d84 <tcp_pcb_purge>:
 8003d84:	b510      	push	{r4, lr}
 8003d86:	4604      	mov	r4, r0
 8003d88:	b940      	cbnz	r0, 8003d9c <tcp_pcb_purge+0x18>
 8003d8a:	e8bd 4010 	ldmia.w	sp!, {r4, lr}
 8003d8e:	4b13      	ldr	r3, [pc, #76]	; (8003ddc <tcp_pcb_purge+0x58>)
 8003d90:	4913      	ldr	r1, [pc, #76]	; (8003de0 <tcp_pcb_purge+0x5c>)
 8003d92:	4814      	ldr	r0, [pc, #80]	; (8003de4 <tcp_pcb_purge+0x60>)
 8003d94:	f640 0251 	movw	r2, #2129	; 0x851
 8003d98:	f004 bf7c 	b.w	8008c94 <iprintf>
 8003d9c:	7d03      	ldrb	r3, [r0, #20]
 8003d9e:	2b01      	cmp	r3, #1
 8003da0:	d91a      	bls.n	8003dd8 <tcp_pcb_purge+0x54>
 8003da2:	2b0a      	cmp	r3, #10
 8003da4:	d018      	beq.n	8003dd8 <tcp_pcb_purge+0x54>
 8003da6:	6f80      	ldr	r0, [r0, #120]	; 0x78
 8003da8:	b118      	cbz	r0, 8003db2 <tcp_pcb_purge+0x2e>
 8003daa:	f7ff fb03 	bl	80033b4 <pbuf_free>
 8003dae:	2300      	movs	r3, #0
 8003db0:	67a3      	str	r3, [r4, #120]	; 0x78
 8003db2:	6f63      	ldr	r3, [r4, #116]	; 0x74
 8003db4:	b113      	cbz	r3, 8003dbc <tcp_pcb_purge+0x38>
 8003db6:	4620      	mov	r0, r4
 8003db8:	f7ff ffda 	bl	8003d70 <tcp_free_ooseq>
 8003dbc:	f64f 73ff 	movw	r3, #65535	; 0xffff
 8003dc0:	8623      	strh	r3, [r4, #48]	; 0x30
 8003dc2:	6ee0      	ldr	r0, [r4, #108]	; 0x6c
 8003dc4:	f7ff ff2a 	bl	8003c1c <tcp_segs_free>
 8003dc8:	6f20      	ldr	r0, [r4, #112]	; 0x70
 8003dca:	f7ff ff27 	bl	8003c1c <tcp_segs_free>
 8003dce:	2300      	movs	r3, #0
 8003dd0:	e9c4 331b 	strd	r3, r3, [r4, #108]	; 0x6c
 8003dd4:	f8a4 3068 	strh.w	r3, [r4, #104]	; 0x68
 8003dd8:	bd10      	pop	{r4, pc}
 8003dda:	bf00      	nop
 8003ddc:	0800a2af 	.word	0x0800a2af
 8003de0:	0800a4da 	.word	0x0800a4da
 8003de4:	08009b3a 	.word	0x08009b3a

08003de8 <tcp_pcb_remove>:
 8003de8:	b538      	push	{r3, r4, r5, lr}
 8003dea:	4605      	mov	r5, r0
 8003dec:	460c      	mov	r4, r1
 8003dee:	b931      	cbnz	r1, 8003dfe <tcp_pcb_remove+0x16>
 8003df0:	4b29      	ldr	r3, [pc, #164]	; (8003e98 <tcp_pcb_remove+0xb0>)
 8003df2:	492a      	ldr	r1, [pc, #168]	; (8003e9c <tcp_pcb_remove+0xb4>)
 8003df4:	482a      	ldr	r0, [pc, #168]	; (8003ea0 <tcp_pcb_remove+0xb8>)
 8003df6:	f640 0283 	movw	r2, #2179	; 0x883
 8003dfa:	f004 ff4b 	bl	8008c94 <iprintf>
 8003dfe:	b935      	cbnz	r5, 8003e0e <tcp_pcb_remove+0x26>
 8003e00:	4b25      	ldr	r3, [pc, #148]	; (8003e98 <tcp_pcb_remove+0xb0>)
 8003e02:	4928      	ldr	r1, [pc, #160]	; (8003ea4 <tcp_pcb_remove+0xbc>)
 8003e04:	4826      	ldr	r0, [pc, #152]	; (8003ea0 <tcp_pcb_remove+0xb8>)
 8003e06:	f640 0284 	movw	r2, #2180	; 0x884
 8003e0a:	f004 ff43 	bl	8008c94 <iprintf>
 8003e0e:	682b      	ldr	r3, [r5, #0]
 8003e10:	42a3      	cmp	r3, r4
 8003e12:	d11f      	bne.n	8003e54 <tcp_pcb_remove+0x6c>
 8003e14:	68e3      	ldr	r3, [r4, #12]
 8003e16:	602b      	str	r3, [r5, #0]
 8003e18:	2300      	movs	r3, #0
 8003e1a:	60e3      	str	r3, [r4, #12]
 8003e1c:	4620      	mov	r0, r4
 8003e1e:	f7ff ffb1 	bl	8003d84 <tcp_pcb_purge>
 8003e22:	7d23      	ldrb	r3, [r4, #20]
 8003e24:	2b0a      	cmp	r3, #10
 8003e26:	d11d      	bne.n	8003e64 <tcp_pcb_remove+0x7c>
 8003e28:	6ee3      	ldr	r3, [r4, #108]	; 0x6c
 8003e2a:	bb6b      	cbnz	r3, 8003e88 <tcp_pcb_remove+0xa0>
 8003e2c:	6f23      	ldr	r3, [r4, #112]	; 0x70
 8003e2e:	b133      	cbz	r3, 8003e3e <tcp_pcb_remove+0x56>
 8003e30:	4b19      	ldr	r3, [pc, #100]	; (8003e98 <tcp_pcb_remove+0xb0>)
 8003e32:	491d      	ldr	r1, [pc, #116]	; (8003ea8 <tcp_pcb_remove+0xc0>)
 8003e34:	481a      	ldr	r0, [pc, #104]	; (8003ea0 <tcp_pcb_remove+0xb8>)
 8003e36:	f640 0294 	movw	r2, #2196	; 0x894
 8003e3a:	f004 ff2b 	bl	8008c94 <iprintf>
 8003e3e:	6f63      	ldr	r3, [r4, #116]	; 0x74
 8003e40:	b1f3      	cbz	r3, 8003e80 <tcp_pcb_remove+0x98>
 8003e42:	4b15      	ldr	r3, [pc, #84]	; (8003e98 <tcp_pcb_remove+0xb0>)
 8003e44:	4919      	ldr	r1, [pc, #100]	; (8003eac <tcp_pcb_remove+0xc4>)
 8003e46:	4816      	ldr	r0, [pc, #88]	; (8003ea0 <tcp_pcb_remove+0xb8>)
 8003e48:	f640 0296 	movw	r2, #2198	; 0x896
 8003e4c:	f004 ff22 	bl	8008c94 <iprintf>
 8003e50:	e016      	b.n	8003e80 <tcp_pcb_remove+0x98>
 8003e52:	4613      	mov	r3, r2
 8003e54:	2b00      	cmp	r3, #0
 8003e56:	d0df      	beq.n	8003e18 <tcp_pcb_remove+0x30>
 8003e58:	68da      	ldr	r2, [r3, #12]
 8003e5a:	42a2      	cmp	r2, r4
 8003e5c:	d1f9      	bne.n	8003e52 <tcp_pcb_remove+0x6a>
 8003e5e:	68e2      	ldr	r2, [r4, #12]
 8003e60:	60da      	str	r2, [r3, #12]
 8003e62:	e7d9      	b.n	8003e18 <tcp_pcb_remove+0x30>
 8003e64:	2b01      	cmp	r3, #1
 8003e66:	d00b      	beq.n	8003e80 <tcp_pcb_remove+0x98>
 8003e68:	8b63      	ldrh	r3, [r4, #26]
 8003e6a:	07da      	lsls	r2, r3, #31
 8003e6c:	d5dc      	bpl.n	8003e28 <tcp_pcb_remove+0x40>
 8003e6e:	f043 0302 	orr.w	r3, r3, #2
 8003e72:	8363      	strh	r3, [r4, #26]
 8003e74:	4620      	mov	r0, r4
 8003e76:	f002 ff3b 	bl	8006cf0 <tcp_output>
 8003e7a:	7d23      	ldrb	r3, [r4, #20]
 8003e7c:	2b01      	cmp	r3, #1
 8003e7e:	d1d3      	bne.n	8003e28 <tcp_pcb_remove+0x40>
 8003e80:	2300      	movs	r3, #0
 8003e82:	7523      	strb	r3, [r4, #20]
 8003e84:	82e3      	strh	r3, [r4, #22]
 8003e86:	bd38      	pop	{r3, r4, r5, pc}
 8003e88:	4b03      	ldr	r3, [pc, #12]	; (8003e98 <tcp_pcb_remove+0xb0>)
 8003e8a:	4909      	ldr	r1, [pc, #36]	; (8003eb0 <tcp_pcb_remove+0xc8>)
 8003e8c:	4804      	ldr	r0, [pc, #16]	; (8003ea0 <tcp_pcb_remove+0xb8>)
 8003e8e:	f640 0293 	movw	r2, #2195	; 0x893
 8003e92:	f004 feff 	bl	8008c94 <iprintf>
 8003e96:	e7c9      	b.n	8003e2c <tcp_pcb_remove+0x44>
 8003e98:	0800a2af 	.word	0x0800a2af
 8003e9c:	0800a4f5 	.word	0x0800a4f5
 8003ea0:	08009b3a 	.word	0x08009b3a
 8003ea4:	0800a511 	.word	0x0800a511
 8003ea8:	0800a549 	.word	0x0800a549
 8003eac:	0800a562 	.word	0x0800a562
 8003eb0:	0800a531 	.word	0x0800a531

08003eb4 <tcp_abandon>:
 8003eb4:	e92d 47ff 	stmdb	sp!, {r0, r1, r2, r3, r4, r5, r6, r7, r8, r9, sl, lr}
 8003eb8:	460e      	mov	r6, r1
 8003eba:	4604      	mov	r4, r0
 8003ebc:	b948      	cbnz	r0, 8003ed2 <tcp_abandon+0x1e>
 8003ebe:	4b36      	ldr	r3, [pc, #216]	; (8003f98 <tcp_abandon+0xe4>)
 8003ec0:	4936      	ldr	r1, [pc, #216]	; (8003f9c <tcp_abandon+0xe8>)
 8003ec2:	4837      	ldr	r0, [pc, #220]	; (8003fa0 <tcp_abandon+0xec>)
 8003ec4:	f240 223d 	movw	r2, #573	; 0x23d
 8003ec8:	b004      	add	sp, #16
 8003eca:	e8bd 47f0 	ldmia.w	sp!, {r4, r5, r6, r7, r8, r9, sl, lr}
 8003ece:	f004 bee1 	b.w	8008c94 <iprintf>
 8003ed2:	7d03      	ldrb	r3, [r0, #20]
 8003ed4:	2b01      	cmp	r3, #1
 8003ed6:	d106      	bne.n	8003ee6 <tcp_abandon+0x32>
 8003ed8:	4b2f      	ldr	r3, [pc, #188]	; (8003f98 <tcp_abandon+0xe4>)
 8003eda:	4932      	ldr	r1, [pc, #200]	; (8003fa4 <tcp_abandon+0xf0>)
 8003edc:	4830      	ldr	r0, [pc, #192]	; (8003fa0 <tcp_abandon+0xec>)
 8003ede:	f44f 7210 	mov.w	r2, #576	; 0x240
 8003ee2:	f004 fed7 	bl	8008c94 <iprintf>
 8003ee6:	7d23      	ldrb	r3, [r4, #20]
 8003ee8:	2b0a      	cmp	r3, #10
 8003eea:	d109      	bne.n	8003f00 <tcp_abandon+0x4c>
 8003eec:	482e      	ldr	r0, [pc, #184]	; (8003fa8 <tcp_abandon+0xf4>)
 8003eee:	4621      	mov	r1, r4
 8003ef0:	f7ff ff7a 	bl	8003de8 <tcp_pcb_remove>
 8003ef4:	4620      	mov	r0, r4
 8003ef6:	b004      	add	sp, #16
 8003ef8:	e8bd 47f0 	ldmia.w	sp!, {r4, r5, r6, r7, r8, r9, sl, lr}
 8003efc:	f7ff bd34 	b.w	8003968 <tcp_free>
 8003f00:	f8d4 9050 	ldr.w	r9, [r4, #80]	; 0x50
 8003f04:	f8d4 a024 	ldr.w	sl, [r4, #36]	; 0x24
 8003f08:	f8d4 7090 	ldr.w	r7, [r4, #144]	; 0x90
 8003f0c:	f8d4 8010 	ldr.w	r8, [r4, #16]
 8003f10:	8ae5      	ldrh	r5, [r4, #22]
 8003f12:	b99b      	cbnz	r3, 8003f3c <tcp_abandon+0x88>
 8003f14:	b13d      	cbz	r5, 8003f26 <tcp_abandon+0x72>
 8003f16:	4a25      	ldr	r2, [pc, #148]	; (8003fac <tcp_abandon+0xf8>)
 8003f18:	6813      	ldr	r3, [r2, #0]
 8003f1a:	42a3      	cmp	r3, r4
 8003f1c:	d106      	bne.n	8003f2c <tcp_abandon+0x78>
 8003f1e:	68e3      	ldr	r3, [r4, #12]
 8003f20:	6013      	str	r3, [r2, #0]
 8003f22:	2500      	movs	r5, #0
 8003f24:	60e5      	str	r5, [r4, #12]
 8003f26:	462e      	mov	r6, r5
 8003f28:	e00f      	b.n	8003f4a <tcp_abandon+0x96>
 8003f2a:	4613      	mov	r3, r2
 8003f2c:	2b00      	cmp	r3, #0
 8003f2e:	d0f8      	beq.n	8003f22 <tcp_abandon+0x6e>
 8003f30:	68da      	ldr	r2, [r3, #12]
 8003f32:	42a2      	cmp	r2, r4
 8003f34:	d1f9      	bne.n	8003f2a <tcp_abandon+0x76>
 8003f36:	68e2      	ldr	r2, [r4, #12]
 8003f38:	60da      	str	r2, [r3, #12]
 8003f3a:	e7f2      	b.n	8003f22 <tcp_abandon+0x6e>
 8003f3c:	481c      	ldr	r0, [pc, #112]	; (8003fb0 <tcp_abandon+0xfc>)
 8003f3e:	4621      	mov	r1, r4
 8003f40:	f7ff ff52 	bl	8003de8 <tcp_pcb_remove>
 8003f44:	4b1b      	ldr	r3, [pc, #108]	; (8003fb4 <tcp_abandon+0x100>)
 8003f46:	2201      	movs	r2, #1
 8003f48:	701a      	strb	r2, [r3, #0]
 8003f4a:	6f20      	ldr	r0, [r4, #112]	; 0x70
 8003f4c:	b108      	cbz	r0, 8003f52 <tcp_abandon+0x9e>
 8003f4e:	f7ff fe65 	bl	8003c1c <tcp_segs_free>
 8003f52:	6ee0      	ldr	r0, [r4, #108]	; 0x6c
 8003f54:	b108      	cbz	r0, 8003f5a <tcp_abandon+0xa6>
 8003f56:	f7ff fe61 	bl	8003c1c <tcp_segs_free>
 8003f5a:	6f60      	ldr	r0, [r4, #116]	; 0x74
 8003f5c:	b108      	cbz	r0, 8003f62 <tcp_abandon+0xae>
 8003f5e:	f7ff fe5d 	bl	8003c1c <tcp_segs_free>
 8003f62:	b156      	cbz	r6, 8003f7a <tcp_abandon+0xc6>
 8003f64:	8b23      	ldrh	r3, [r4, #24]
 8003f66:	e9cd 5301 	strd	r5, r3, [sp, #4]
 8003f6a:	1d23      	adds	r3, r4, #4
 8003f6c:	9300      	str	r3, [sp, #0]
 8003f6e:	4652      	mov	r2, sl
 8003f70:	4623      	mov	r3, r4
 8003f72:	4649      	mov	r1, r9
 8003f74:	4620      	mov	r0, r4
 8003f76:	f002 fe43 	bl	8006c00 <tcp_rst>
 8003f7a:	4620      	mov	r0, r4
 8003f7c:	f7ff fcf4 	bl	8003968 <tcp_free>
 8003f80:	b13f      	cbz	r7, 8003f92 <tcp_abandon+0xde>
 8003f82:	f06f 010c 	mvn.w	r1, #12
 8003f86:	4640      	mov	r0, r8
 8003f88:	463b      	mov	r3, r7
 8003f8a:	b004      	add	sp, #16
 8003f8c:	e8bd 47f0 	ldmia.w	sp!, {r4, r5, r6, r7, r8, r9, sl, lr}
 8003f90:	4718      	bx	r3
 8003f92:	b004      	add	sp, #16
 8003f94:	e8bd 87f0 	ldmia.w	sp!, {r4, r5, r6, r7, r8, r9, sl, pc}
 8003f98:	0800a2af 	.word	0x0800a2af
 8003f9c:	0800a579 	.word	0x0800a579
 8003fa0:	08009b3a 	.word	0x08009b3a
 8003fa4:	0800a592 	.word	0x0800a592
 8003fa8:	200082a8 	.word	0x200082a8
 8003fac:	20008298 	.word	0x20008298
 8003fb0:	20008290 	.word	0x20008290
 8003fb4:	20008294 	.word	0x20008294

08003fb8 <tcp_abort>:
 8003fb8:	2101      	movs	r1, #1
 8003fba:	f7ff bf7b 	b.w	8003eb4 <tcp_abandon>
	...

08003fc0 <tcp_accept_null>:
 8003fc0:	b510      	push	{r4, lr}
 8003fc2:	460c      	mov	r4, r1
 8003fc4:	b931      	cbnz	r1, 8003fd4 <tcp_accept_null+0x14>
 8003fc6:	4b06      	ldr	r3, [pc, #24]	; (8003fe0 <tcp_accept_null+0x20>)
 8003fc8:	4906      	ldr	r1, [pc, #24]	; (8003fe4 <tcp_accept_null+0x24>)
 8003fca:	4807      	ldr	r0, [pc, #28]	; (8003fe8 <tcp_accept_null+0x28>)
 8003fcc:	f240 320f 	movw	r2, #783	; 0x30f
 8003fd0:	f004 fe60 	bl	8008c94 <iprintf>
 8003fd4:	4620      	mov	r0, r4
 8003fd6:	f7ff ffef 	bl	8003fb8 <tcp_abort>
 8003fda:	f06f 000c 	mvn.w	r0, #12
 8003fde:	bd10      	pop	{r4, pc}
 8003fe0:	0800a2af 	.word	0x0800a2af
 8003fe4:	0800a5c3 	.word	0x0800a5c3
 8003fe8:	08009b3a 	.word	0x08009b3a

08003fec <tcp_netif_ip_addr_changed_pcblist>:
 8003fec:	b570      	push	{r4, r5, r6, lr}
 8003fee:	460c      	mov	r4, r1
 8003ff0:	4605      	mov	r5, r0
 8003ff2:	b930      	cbnz	r0, 8004002 <tcp_netif_ip_addr_changed_pcblist+0x16>
 8003ff4:	4b09      	ldr	r3, [pc, #36]	; (800401c <tcp_netif_ip_addr_changed_pcblist+0x30>)
 8003ff6:	490a      	ldr	r1, [pc, #40]	; (8004020 <tcp_netif_ip_addr_changed_pcblist+0x34>)
 8003ff8:	480a      	ldr	r0, [pc, #40]	; (8004024 <tcp_netif_ip_addr_changed_pcblist+0x38>)
 8003ffa:	f44f 6210 	mov.w	r2, #2304	; 0x900
 8003ffe:	f004 fe49 	bl	8008c94 <iprintf>
 8004002:	b904      	cbnz	r4, 8004006 <tcp_netif_ip_addr_changed_pcblist+0x1a>
 8004004:	bd70      	pop	{r4, r5, r6, pc}
 8004006:	6822      	ldr	r2, [r4, #0]
 8004008:	682b      	ldr	r3, [r5, #0]
 800400a:	68e6      	ldr	r6, [r4, #12]
 800400c:	429a      	cmp	r2, r3
 800400e:	d102      	bne.n	8004016 <tcp_netif_ip_addr_changed_pcblist+0x2a>
 8004010:	4620      	mov	r0, r4
 8004012:	f7ff ffd1 	bl	8003fb8 <tcp_abort>
 8004016:	4634      	mov	r4, r6
 8004018:	e7f3      	b.n	8004002 <tcp_netif_ip_addr_changed_pcblist+0x16>
 800401a:	bf00      	nop
 800401c:	0800a2af 	.word	0x0800a2af
 8004020:	0800a5e0 	.word	0x0800a5e0
 8004024:	08009b3a 	.word	0x08009b3a

08004028 <tcp_netif_ip_addr_changed>:
 8004028:	b538      	push	{r3, r4, r5, lr}
 800402a:	460d      	mov	r5, r1
 800402c:	4604      	mov	r4, r0
 800402e:	b180      	cbz	r0, 8004052 <tcp_netif_ip_addr_changed+0x2a>
 8004030:	6803      	ldr	r3, [r0, #0]
 8004032:	b173      	cbz	r3, 8004052 <tcp_netif_ip_addr_changed+0x2a>
 8004034:	4b0b      	ldr	r3, [pc, #44]	; (8004064 <tcp_netif_ip_addr_changed+0x3c>)
 8004036:	6819      	ldr	r1, [r3, #0]
 8004038:	f7ff ffd8 	bl	8003fec <tcp_netif_ip_addr_changed_pcblist>
 800403c:	4b0a      	ldr	r3, [pc, #40]	; (8004068 <tcp_netif_ip_addr_changed+0x40>)
 800403e:	4620      	mov	r0, r4
 8004040:	6819      	ldr	r1, [r3, #0]
 8004042:	f7ff ffd3 	bl	8003fec <tcp_netif_ip_addr_changed_pcblist>
 8004046:	b125      	cbz	r5, 8004052 <tcp_netif_ip_addr_changed+0x2a>
 8004048:	682b      	ldr	r3, [r5, #0]
 800404a:	b113      	cbz	r3, 8004052 <tcp_netif_ip_addr_changed+0x2a>
 800404c:	4b07      	ldr	r3, [pc, #28]	; (800406c <tcp_netif_ip_addr_changed+0x44>)
 800404e:	681b      	ldr	r3, [r3, #0]
 8004050:	b903      	cbnz	r3, 8004054 <tcp_netif_ip_addr_changed+0x2c>
 8004052:	bd38      	pop	{r3, r4, r5, pc}
 8004054:	6819      	ldr	r1, [r3, #0]
 8004056:	6822      	ldr	r2, [r4, #0]
 8004058:	4291      	cmp	r1, r2
 800405a:	bf04      	itt	eq
 800405c:	682a      	ldreq	r2, [r5, #0]
 800405e:	601a      	streq	r2, [r3, #0]
 8004060:	68db      	ldr	r3, [r3, #12]
 8004062:	e7f5      	b.n	8004050 <tcp_netif_ip_addr_changed+0x28>
 8004064:	20008290 	.word	0x20008290
 8004068:	20008298 	.word	0x20008298
 800406c:	2000829c 	.word	0x2000829c

08004070 <tcp_kill_state>:
 8004070:	4b0c      	ldr	r3, [pc, #48]	; (80040a4 <tcp_kill_state+0x34>)
 8004072:	6819      	ldr	r1, [r3, #0]
 8004074:	4b0c      	ldr	r3, [pc, #48]	; (80040a8 <tcp_kill_state+0x38>)
 8004076:	b430      	push	{r4, r5}
 8004078:	2400      	movs	r4, #0
 800407a:	681d      	ldr	r5, [r3, #0]
 800407c:	4622      	mov	r2, r4
 800407e:	b921      	cbnz	r1, 800408a <tcp_kill_state+0x1a>
 8004080:	b172      	cbz	r2, 80040a0 <tcp_kill_state+0x30>
 8004082:	bc30      	pop	{r4, r5}
 8004084:	4610      	mov	r0, r2
 8004086:	f7ff bf15 	b.w	8003eb4 <tcp_abandon>
 800408a:	7d0b      	ldrb	r3, [r1, #20]
 800408c:	4283      	cmp	r3, r0
 800408e:	d105      	bne.n	800409c <tcp_kill_state+0x2c>
 8004090:	6a0b      	ldr	r3, [r1, #32]
 8004092:	1aeb      	subs	r3, r5, r3
 8004094:	42a3      	cmp	r3, r4
 8004096:	bf24      	itt	cs
 8004098:	461c      	movcs	r4, r3
 800409a:	460a      	movcs	r2, r1
 800409c:	68c9      	ldr	r1, [r1, #12]
 800409e:	e7ee      	b.n	800407e <tcp_kill_state+0xe>
 80040a0:	bc30      	pop	{r4, r5}
 80040a2:	4770      	bx	lr
 80040a4:	20008290 	.word	0x20008290
 80040a8:	200082a0 	.word	0x200082a0

080040ac <tcp_alloc>:
 80040ac:	b5f8      	push	{r3, r4, r5, r6, r7, lr}
 80040ae:	4604      	mov	r4, r0
 80040b0:	2001      	movs	r0, #1
 80040b2:	f7fe fedd 	bl	8002e70 <memp_malloc>
 80040b6:	4603      	mov	r3, r0
 80040b8:	2800      	cmp	r0, #0
 80040ba:	d136      	bne.n	800412a <tcp_alloc+0x7e>
 80040bc:	4e3f      	ldr	r6, [pc, #252]	; (80041bc <tcp_alloc+0x110>)
 80040be:	6830      	ldr	r0, [r6, #0]
 80040c0:	2800      	cmp	r0, #0
 80040c2:	d157      	bne.n	8004174 <tcp_alloc+0xc8>
 80040c4:	4b3e      	ldr	r3, [pc, #248]	; (80041c0 <tcp_alloc+0x114>)
 80040c6:	4d3f      	ldr	r5, [pc, #252]	; (80041c4 <tcp_alloc+0x118>)
 80040c8:	681b      	ldr	r3, [r3, #0]
 80040ca:	682f      	ldr	r7, [r5, #0]
 80040cc:	4601      	mov	r1, r0
 80040ce:	2b00      	cmp	r3, #0
 80040d0:	d15b      	bne.n	800418a <tcp_alloc+0xde>
 80040d2:	b108      	cbz	r0, 80040d8 <tcp_alloc+0x2c>
 80040d4:	f7ff ff70 	bl	8003fb8 <tcp_abort>
 80040d8:	2001      	movs	r0, #1
 80040da:	f7fe fec9 	bl	8002e70 <memp_malloc>
 80040de:	4603      	mov	r3, r0
 80040e0:	bb18      	cbnz	r0, 800412a <tcp_alloc+0x7e>
 80040e2:	2009      	movs	r0, #9
 80040e4:	f7ff ffc4 	bl	8004070 <tcp_kill_state>
 80040e8:	2001      	movs	r0, #1
 80040ea:	f7fe fec1 	bl	8002e70 <memp_malloc>
 80040ee:	4603      	mov	r3, r0
 80040f0:	b9d8      	cbnz	r0, 800412a <tcp_alloc+0x7e>
 80040f2:	2008      	movs	r0, #8
 80040f4:	f7ff ffbc 	bl	8004070 <tcp_kill_state>
 80040f8:	2001      	movs	r0, #1
 80040fa:	f7fe feb9 	bl	8002e70 <memp_malloc>
 80040fe:	4603      	mov	r3, r0
 8004100:	b998      	cbnz	r0, 800412a <tcp_alloc+0x7e>
 8004102:	0622      	lsls	r2, r4, #24
 8004104:	d449      	bmi.n	800419a <tcp_alloc+0xee>
 8004106:	b15c      	cbz	r4, 8004120 <tcp_alloc+0x74>
 8004108:	4621      	mov	r1, r4
 800410a:	6832      	ldr	r2, [r6, #0]
 800410c:	682e      	ldr	r6, [r5, #0]
 800410e:	3901      	subs	r1, #1
 8004110:	b2c9      	uxtb	r1, r1
 8004112:	2000      	movs	r0, #0
 8004114:	2a00      	cmp	r2, #0
 8004116:	d142      	bne.n	800419e <tcp_alloc+0xf2>
 8004118:	b113      	cbz	r3, 8004120 <tcp_alloc+0x74>
 800411a:	4618      	mov	r0, r3
 800411c:	f7ff ff4c 	bl	8003fb8 <tcp_abort>
 8004120:	2001      	movs	r0, #1
 8004122:	f7fe fea5 	bl	8002e70 <memp_malloc>
 8004126:	4603      	mov	r3, r0
 8004128:	b310      	cbz	r0, 8004170 <tcp_alloc+0xc4>
 800412a:	229c      	movs	r2, #156	; 0x9c
 800412c:	4618      	mov	r0, r3
 800412e:	2100      	movs	r1, #0
 8004130:	f004 fe15 	bl	8008d5e <memset>
 8004134:	f44f 6286 	mov.w	r2, #1072	; 0x430
 8004138:	f8a0 2064 	strh.w	r2, [r0, #100]	; 0x64
 800413c:	4a22      	ldr	r2, [pc, #136]	; (80041c8 <tcp_alloc+0x11c>)
 800413e:	6282      	str	r2, [r0, #40]	; 0x28
 8004140:	22ff      	movs	r2, #255	; 0xff
 8004142:	72c2      	strb	r2, [r0, #11]
 8004144:	2206      	movs	r2, #6
 8004146:	f8a0 2040 	strh.w	r2, [r0, #64]	; 0x40
 800414a:	87c2      	strh	r2, [r0, #62]	; 0x3e
 800414c:	4a1f      	ldr	r2, [pc, #124]	; (80041cc <tcp_alloc+0x120>)
 800414e:	6302      	str	r2, [r0, #48]	; 0x30
 8004150:	4a1c      	ldr	r2, [pc, #112]	; (80041c4 <tcp_alloc+0x118>)
 8004152:	7544      	strb	r4, [r0, #21]
 8004154:	6812      	ldr	r2, [r2, #0]
 8004156:	6202      	str	r2, [r0, #32]
 8004158:	4a1d      	ldr	r2, [pc, #116]	; (80041d0 <tcp_alloc+0x124>)
 800415a:	7812      	ldrb	r2, [r2, #0]
 800415c:	7782      	strb	r2, [r0, #30]
 800415e:	4a1d      	ldr	r2, [pc, #116]	; (80041d4 <tcp_alloc+0x128>)
 8004160:	6482      	str	r2, [r0, #72]	; 0x48
 8004162:	4a1d      	ldr	r2, [pc, #116]	; (80041d8 <tcp_alloc+0x12c>)
 8004164:	f8c0 2084 	str.w	r2, [r0, #132]	; 0x84
 8004168:	4a1c      	ldr	r2, [pc, #112]	; (80041dc <tcp_alloc+0x130>)
 800416a:	f8c0 2094 	str.w	r2, [r0, #148]	; 0x94
 800416e:	4603      	mov	r3, r0
 8004170:	4618      	mov	r0, r3
 8004172:	bdf8      	pop	{r3, r4, r5, r6, r7, pc}
 8004174:	8b43      	ldrh	r3, [r0, #26]
 8004176:	68c5      	ldr	r5, [r0, #12]
 8004178:	0719      	lsls	r1, r3, #28
 800417a:	d504      	bpl.n	8004186 <tcp_alloc+0xda>
 800417c:	f023 0308 	bic.w	r3, r3, #8
 8004180:	8343      	strh	r3, [r0, #26]
 8004182:	f7ff fbb5 	bl	80038f0 <tcp_close_shutdown_fin>
 8004186:	4628      	mov	r0, r5
 8004188:	e79a      	b.n	80040c0 <tcp_alloc+0x14>
 800418a:	6a1a      	ldr	r2, [r3, #32]
 800418c:	1aba      	subs	r2, r7, r2
 800418e:	428a      	cmp	r2, r1
 8004190:	bf24      	itt	cs
 8004192:	4618      	movcs	r0, r3
 8004194:	4611      	movcs	r1, r2
 8004196:	68db      	ldr	r3, [r3, #12]
 8004198:	e799      	b.n	80040ce <tcp_alloc+0x22>
 800419a:	217f      	movs	r1, #127	; 0x7f
 800419c:	e7b5      	b.n	800410a <tcp_alloc+0x5e>
 800419e:	7d57      	ldrb	r7, [r2, #21]
 80041a0:	428f      	cmp	r7, r1
 80041a2:	d304      	bcc.n	80041ae <tcp_alloc+0x102>
 80041a4:	d107      	bne.n	80041b6 <tcp_alloc+0x10a>
 80041a6:	6a15      	ldr	r5, [r2, #32]
 80041a8:	1b75      	subs	r5, r6, r5
 80041aa:	4285      	cmp	r5, r0
 80041ac:	d303      	bcc.n	80041b6 <tcp_alloc+0x10a>
 80041ae:	6a10      	ldr	r0, [r2, #32]
 80041b0:	4639      	mov	r1, r7
 80041b2:	1a30      	subs	r0, r6, r0
 80041b4:	4613      	mov	r3, r2
 80041b6:	68d2      	ldr	r2, [r2, #12]
 80041b8:	e7ac      	b.n	8004114 <tcp_alloc+0x68>
 80041ba:	bf00      	nop
 80041bc:	20008290 	.word	0x20008290
 80041c0:	200082a8 	.word	0x200082a8
 80041c4:	200082a0 	.word	0x200082a0
 80041c8:	08600860 	.word	0x08600860
 80041cc:	0218ffff 	.word	0x0218ffff
 80041d0:	200082a5 	.word	0x200082a5
 80041d4:	04300001 	.word	0x04300001
 80041d8:	08004389 	.word	0x08004389
 80041dc:	006ddd00 	.word	0x006ddd00

080041e0 <tcp_new>:
 80041e0:	2040      	movs	r0, #64	; 0x40
 80041e2:	f7ff bf63 	b.w	80040ac <tcp_alloc>
	...

080041e8 <tcp_close_shutdown>:
 80041e8:	b530      	push	{r4, r5, lr}
 80041ea:	460d      	mov	r5, r1
 80041ec:	b085      	sub	sp, #20
 80041ee:	4604      	mov	r4, r0
 80041f0:	b930      	cbnz	r0, 8004200 <tcp_close_shutdown+0x18>
 80041f2:	4b4b      	ldr	r3, [pc, #300]	; (8004320 <tcp_close_shutdown+0x138>)
 80041f4:	494b      	ldr	r1, [pc, #300]	; (8004324 <tcp_close_shutdown+0x13c>)
 80041f6:	484c      	ldr	r0, [pc, #304]	; (8004328 <tcp_close_shutdown+0x140>)
 80041f8:	f44f 72af 	mov.w	r2, #350	; 0x15e
 80041fc:	f004 fd4a 	bl	8008c94 <iprintf>
 8004200:	7d23      	ldrb	r3, [r4, #20]
 8004202:	2d00      	cmp	r5, #0
 8004204:	d03f      	beq.n	8004286 <tcp_close_shutdown+0x9e>
 8004206:	2b04      	cmp	r3, #4
 8004208:	d001      	beq.n	800420e <tcp_close_shutdown+0x26>
 800420a:	2b07      	cmp	r3, #7
 800420c:	d13b      	bne.n	8004286 <tcp_close_shutdown+0x9e>
 800420e:	6fa2      	ldr	r2, [r4, #120]	; 0x78
 8004210:	b91a      	cbnz	r2, 800421a <tcp_close_shutdown+0x32>
 8004212:	8d22      	ldrh	r2, [r4, #40]	; 0x28
 8004214:	f5b2 6f06 	cmp.w	r2, #2144	; 0x860
 8004218:	d035      	beq.n	8004286 <tcp_close_shutdown+0x9e>
 800421a:	8b63      	ldrh	r3, [r4, #26]
 800421c:	06db      	lsls	r3, r3, #27
 800421e:	d406      	bmi.n	800422e <tcp_close_shutdown+0x46>
 8004220:	4b3f      	ldr	r3, [pc, #252]	; (8004320 <tcp_close_shutdown+0x138>)
 8004222:	4942      	ldr	r1, [pc, #264]	; (800432c <tcp_close_shutdown+0x144>)
 8004224:	4840      	ldr	r0, [pc, #256]	; (8004328 <tcp_close_shutdown+0x140>)
 8004226:	f44f 72b2 	mov.w	r2, #356	; 0x164
 800422a:	f004 fd33 	bl	8008c94 <iprintf>
 800422e:	8b23      	ldrh	r3, [r4, #24]
 8004230:	9302      	str	r3, [sp, #8]
 8004232:	8ae3      	ldrh	r3, [r4, #22]
 8004234:	9301      	str	r3, [sp, #4]
 8004236:	1d23      	adds	r3, r4, #4
 8004238:	9300      	str	r3, [sp, #0]
 800423a:	6a62      	ldr	r2, [r4, #36]	; 0x24
 800423c:	6d21      	ldr	r1, [r4, #80]	; 0x50
 800423e:	4623      	mov	r3, r4
 8004240:	4620      	mov	r0, r4
 8004242:	f002 fcdd 	bl	8006c00 <tcp_rst>
 8004246:	4620      	mov	r0, r4
 8004248:	f7ff fd9c 	bl	8003d84 <tcp_pcb_purge>
 800424c:	4a38      	ldr	r2, [pc, #224]	; (8004330 <tcp_close_shutdown+0x148>)
 800424e:	6813      	ldr	r3, [r2, #0]
 8004250:	42a3      	cmp	r3, r4
 8004252:	d110      	bne.n	8004276 <tcp_close_shutdown+0x8e>
 8004254:	68e3      	ldr	r3, [r4, #12]
 8004256:	6013      	str	r3, [r2, #0]
 8004258:	2300      	movs	r3, #0
 800425a:	60e3      	str	r3, [r4, #12]
 800425c:	4b35      	ldr	r3, [pc, #212]	; (8004334 <tcp_close_shutdown+0x14c>)
 800425e:	2201      	movs	r2, #1
 8004260:	701a      	strb	r2, [r3, #0]
 8004262:	4b35      	ldr	r3, [pc, #212]	; (8004338 <tcp_close_shutdown+0x150>)
 8004264:	681b      	ldr	r3, [r3, #0]
 8004266:	42a3      	cmp	r3, r4
 8004268:	d11d      	bne.n	80042a6 <tcp_close_shutdown+0xbe>
 800426a:	f001 fe4f 	bl	8005f0c <tcp_trigger_input_pcb_close>
 800426e:	2000      	movs	r0, #0
 8004270:	b005      	add	sp, #20
 8004272:	bd30      	pop	{r4, r5, pc}
 8004274:	4613      	mov	r3, r2
 8004276:	2b00      	cmp	r3, #0
 8004278:	d0ee      	beq.n	8004258 <tcp_close_shutdown+0x70>
 800427a:	68da      	ldr	r2, [r3, #12]
 800427c:	42a2      	cmp	r2, r4
 800427e:	d1f9      	bne.n	8004274 <tcp_close_shutdown+0x8c>
 8004280:	68e2      	ldr	r2, [r4, #12]
 8004282:	60da      	str	r2, [r3, #12]
 8004284:	e7e8      	b.n	8004258 <tcp_close_shutdown+0x70>
 8004286:	2b01      	cmp	r3, #1
 8004288:	d01a      	beq.n	80042c0 <tcp_close_shutdown+0xd8>
 800428a:	2b02      	cmp	r3, #2
 800428c:	d039      	beq.n	8004302 <tcp_close_shutdown+0x11a>
 800428e:	2b00      	cmp	r3, #0
 8004290:	d13f      	bne.n	8004312 <tcp_close_shutdown+0x12a>
 8004292:	8ae3      	ldrh	r3, [r4, #22]
 8004294:	b13b      	cbz	r3, 80042a6 <tcp_close_shutdown+0xbe>
 8004296:	4a29      	ldr	r2, [pc, #164]	; (800433c <tcp_close_shutdown+0x154>)
 8004298:	6813      	ldr	r3, [r2, #0]
 800429a:	42a3      	cmp	r3, r4
 800429c:	d108      	bne.n	80042b0 <tcp_close_shutdown+0xc8>
 800429e:	68e3      	ldr	r3, [r4, #12]
 80042a0:	6013      	str	r3, [r2, #0]
 80042a2:	2300      	movs	r3, #0
 80042a4:	60e3      	str	r3, [r4, #12]
 80042a6:	4620      	mov	r0, r4
 80042a8:	f7ff fb5e 	bl	8003968 <tcp_free>
 80042ac:	e7df      	b.n	800426e <tcp_close_shutdown+0x86>
 80042ae:	4613      	mov	r3, r2
 80042b0:	2b00      	cmp	r3, #0
 80042b2:	d0f6      	beq.n	80042a2 <tcp_close_shutdown+0xba>
 80042b4:	68da      	ldr	r2, [r3, #12]
 80042b6:	42a2      	cmp	r2, r4
 80042b8:	d1f9      	bne.n	80042ae <tcp_close_shutdown+0xc6>
 80042ba:	68e2      	ldr	r2, [r4, #12]
 80042bc:	60da      	str	r2, [r3, #12]
 80042be:	e7f0      	b.n	80042a2 <tcp_close_shutdown+0xba>
 80042c0:	491f      	ldr	r1, [pc, #124]	; (8004340 <tcp_close_shutdown+0x158>)
 80042c2:	2000      	movs	r0, #0
 80042c4:	f851 2f04 	ldr.w	r2, [r1, #4]!
 80042c8:	6812      	ldr	r2, [r2, #0]
 80042ca:	b9a2      	cbnz	r2, 80042f6 <tcp_close_shutdown+0x10e>
 80042cc:	3301      	adds	r3, #1
 80042ce:	2b04      	cmp	r3, #4
 80042d0:	d1f8      	bne.n	80042c4 <tcp_close_shutdown+0xdc>
 80042d2:	481c      	ldr	r0, [pc, #112]	; (8004344 <tcp_close_shutdown+0x15c>)
 80042d4:	4621      	mov	r1, r4
 80042d6:	f7ff fd87 	bl	8003de8 <tcp_pcb_remove>
 80042da:	7d23      	ldrb	r3, [r4, #20]
 80042dc:	2b01      	cmp	r3, #1
 80042de:	d105      	bne.n	80042ec <tcp_close_shutdown+0x104>
 80042e0:	4b0f      	ldr	r3, [pc, #60]	; (8004320 <tcp_close_shutdown+0x138>)
 80042e2:	4919      	ldr	r1, [pc, #100]	; (8004348 <tcp_close_shutdown+0x160>)
 80042e4:	4810      	ldr	r0, [pc, #64]	; (8004328 <tcp_close_shutdown+0x140>)
 80042e6:	22df      	movs	r2, #223	; 0xdf
 80042e8:	f004 fcd4 	bl	8008c94 <iprintf>
 80042ec:	4621      	mov	r1, r4
 80042ee:	2002      	movs	r0, #2
 80042f0:	f7fe fdee 	bl	8002ed0 <memp_free>
 80042f4:	e7bb      	b.n	800426e <tcp_close_shutdown+0x86>
 80042f6:	6fd5      	ldr	r5, [r2, #124]	; 0x7c
 80042f8:	42ac      	cmp	r4, r5
 80042fa:	bf08      	it	eq
 80042fc:	67d0      	streq	r0, [r2, #124]	; 0x7c
 80042fe:	68d2      	ldr	r2, [r2, #12]
 8004300:	e7e3      	b.n	80042ca <tcp_close_shutdown+0xe2>
 8004302:	480b      	ldr	r0, [pc, #44]	; (8004330 <tcp_close_shutdown+0x148>)
 8004304:	4621      	mov	r1, r4
 8004306:	f7ff fd6f 	bl	8003de8 <tcp_pcb_remove>
 800430a:	4b0a      	ldr	r3, [pc, #40]	; (8004334 <tcp_close_shutdown+0x14c>)
 800430c:	2201      	movs	r2, #1
 800430e:	701a      	strb	r2, [r3, #0]
 8004310:	e7c9      	b.n	80042a6 <tcp_close_shutdown+0xbe>
 8004312:	4620      	mov	r0, r4
 8004314:	b005      	add	sp, #20
 8004316:	e8bd 4030 	ldmia.w	sp!, {r4, r5, lr}
 800431a:	f7ff bae9 	b.w	80038f0 <tcp_close_shutdown_fin>
 800431e:	bf00      	nop
 8004320:	0800a2af 	.word	0x0800a2af
 8004324:	0800a614 	.word	0x0800a614
 8004328:	08009b3a 	.word	0x08009b3a
 800432c:	0800a634 	.word	0x0800a634
 8004330:	20008290 	.word	0x20008290
 8004334:	20008294 	.word	0x20008294
 8004338:	200082d4 	.word	0x200082d4
 800433c:	20008298 	.word	0x20008298
 8004340:	0800a884 	.word	0x0800a884
 8004344:	2000829c 	.word	0x2000829c
 8004348:	0800a64d 	.word	0x0800a64d

0800434c <tcp_close>:
 800434c:	b508      	push	{r3, lr}
 800434e:	b158      	cbz	r0, 8004368 <tcp_close+0x1c>
 8004350:	7d03      	ldrb	r3, [r0, #20]
 8004352:	2b01      	cmp	r3, #1
 8004354:	bf1e      	ittt	ne
 8004356:	8b43      	ldrhne	r3, [r0, #26]
 8004358:	f043 0310 	orrne.w	r3, r3, #16
 800435c:	8343      	strhne	r3, [r0, #26]
 800435e:	2101      	movs	r1, #1
 8004360:	e8bd 4008 	ldmia.w	sp!, {r3, lr}
 8004364:	f7ff bf40 	b.w	80041e8 <tcp_close_shutdown>
 8004368:	4b04      	ldr	r3, [pc, #16]	; (800437c <tcp_close+0x30>)
 800436a:	4905      	ldr	r1, [pc, #20]	; (8004380 <tcp_close+0x34>)
 800436c:	4805      	ldr	r0, [pc, #20]	; (8004384 <tcp_close+0x38>)
 800436e:	f44f 72f4 	mov.w	r2, #488	; 0x1e8
 8004372:	f004 fc8f 	bl	8008c94 <iprintf>
 8004376:	f06f 000f 	mvn.w	r0, #15
 800437a:	bd08      	pop	{r3, pc}
 800437c:	0800a2af 	.word	0x0800a2af
 8004380:	0800a666 	.word	0x0800a666
 8004384:	08009b3a 	.word	0x08009b3a

08004388 <tcp_recv_null>:
 8004388:	b510      	push	{r4, lr}
 800438a:	4608      	mov	r0, r1
 800438c:	4614      	mov	r4, r2
 800438e:	b949      	cbnz	r1, 80043a4 <tcp_recv_null+0x1c>
 8004390:	4b0c      	ldr	r3, [pc, #48]	; (80043c4 <tcp_recv_null+0x3c>)
 8004392:	490d      	ldr	r1, [pc, #52]	; (80043c8 <tcp_recv_null+0x40>)
 8004394:	480d      	ldr	r0, [pc, #52]	; (80043cc <tcp_recv_null+0x44>)
 8004396:	f44f 62d3 	mov.w	r2, #1688	; 0x698
 800439a:	f004 fc7b 	bl	8008c94 <iprintf>
 800439e:	f06f 000f 	mvn.w	r0, #15
 80043a2:	bd10      	pop	{r4, pc}
 80043a4:	b13a      	cbz	r2, 80043b6 <tcp_recv_null+0x2e>
 80043a6:	8911      	ldrh	r1, [r2, #8]
 80043a8:	f7ff fbec 	bl	8003b84 <tcp_recved>
 80043ac:	4620      	mov	r0, r4
 80043ae:	f7ff f801 	bl	80033b4 <pbuf_free>
 80043b2:	2000      	movs	r0, #0
 80043b4:	e7f5      	b.n	80043a2 <tcp_recv_null+0x1a>
 80043b6:	b91b      	cbnz	r3, 80043c0 <tcp_recv_null+0x38>
 80043b8:	e8bd 4010 	ldmia.w	sp!, {r4, lr}
 80043bc:	f7ff bfc6 	b.w	800434c <tcp_close>
 80043c0:	4610      	mov	r0, r2
 80043c2:	e7ee      	b.n	80043a2 <tcp_recv_null+0x1a>
 80043c4:	0800a2af 	.word	0x0800a2af
 80043c8:	0800a67d 	.word	0x0800a67d
 80043cc:	08009b3a 	.word	0x08009b3a

080043d0 <tcp_process_refused_data>:
 80043d0:	b5f8      	push	{r3, r4, r5, r6, r7, lr}
 80043d2:	4604      	mov	r4, r0
 80043d4:	b950      	cbnz	r0, 80043ec <tcp_process_refused_data+0x1c>
 80043d6:	4b1d      	ldr	r3, [pc, #116]	; (800444c <tcp_process_refused_data+0x7c>)
 80043d8:	491d      	ldr	r1, [pc, #116]	; (8004450 <tcp_process_refused_data+0x80>)
 80043da:	481e      	ldr	r0, [pc, #120]	; (8004454 <tcp_process_refused_data+0x84>)
 80043dc:	f240 6209 	movw	r2, #1545	; 0x609
 80043e0:	f004 fc58 	bl	8008c94 <iprintf>
 80043e4:	f06f 050f 	mvn.w	r5, #15
 80043e8:	4628      	mov	r0, r5
 80043ea:	bdf8      	pop	{r3, r4, r5, r6, r7, pc}
 80043ec:	6f86      	ldr	r6, [r0, #120]	; 0x78
 80043ee:	f8d0 5084 	ldr.w	r5, [r0, #132]	; 0x84
 80043f2:	7b77      	ldrb	r7, [r6, #13]
 80043f4:	2300      	movs	r3, #0
 80043f6:	6783      	str	r3, [r0, #120]	; 0x78
 80043f8:	b1dd      	cbz	r5, 8004432 <tcp_process_refused_data+0x62>
 80043fa:	4601      	mov	r1, r0
 80043fc:	4632      	mov	r2, r6
 80043fe:	6900      	ldr	r0, [r0, #16]
 8004400:	47a8      	blx	r5
 8004402:	4605      	mov	r5, r0
 8004404:	b9e0      	cbnz	r0, 8004440 <tcp_process_refused_data+0x70>
 8004406:	06bb      	lsls	r3, r7, #26
 8004408:	d5ee      	bpl.n	80043e8 <tcp_process_refused_data+0x18>
 800440a:	8d23      	ldrh	r3, [r4, #40]	; 0x28
 800440c:	f8d4 6084 	ldr.w	r6, [r4, #132]	; 0x84
 8004410:	f5b3 6f06 	cmp.w	r3, #2144	; 0x860
 8004414:	bf1c      	itt	ne
 8004416:	3301      	addne	r3, #1
 8004418:	8523      	strhne	r3, [r4, #40]	; 0x28
 800441a:	2e00      	cmp	r6, #0
 800441c:	d0e4      	beq.n	80043e8 <tcp_process_refused_data+0x18>
 800441e:	2300      	movs	r3, #0
 8004420:	6920      	ldr	r0, [r4, #16]
 8004422:	461a      	mov	r2, r3
 8004424:	4621      	mov	r1, r4
 8004426:	47b0      	blx	r6
 8004428:	300d      	adds	r0, #13
 800442a:	d1dd      	bne.n	80043e8 <tcp_process_refused_data+0x18>
 800442c:	f06f 050c 	mvn.w	r5, #12
 8004430:	e7da      	b.n	80043e8 <tcp_process_refused_data+0x18>
 8004432:	4601      	mov	r1, r0
 8004434:	462b      	mov	r3, r5
 8004436:	4632      	mov	r2, r6
 8004438:	4628      	mov	r0, r5
 800443a:	f7ff ffa5 	bl	8004388 <tcp_recv_null>
 800443e:	e7e0      	b.n	8004402 <tcp_process_refused_data+0x32>
 8004440:	350d      	adds	r5, #13
 8004442:	d0f3      	beq.n	800442c <tcp_process_refused_data+0x5c>
 8004444:	67a6      	str	r6, [r4, #120]	; 0x78
 8004446:	f06f 0504 	mvn.w	r5, #4
 800444a:	e7cd      	b.n	80043e8 <tcp_process_refused_data+0x18>
 800444c:	0800a2af 	.word	0x0800a2af
 8004450:	0800a698 	.word	0x0800a698
 8004454:	08009b3a 	.word	0x08009b3a

08004458 <tcp_fasttmr>:
 8004458:	e92d 43f8 	stmdb	sp!, {r3, r4, r5, r6, r7, r8, r9, lr}
 800445c:	4d1b      	ldr	r5, [pc, #108]	; (80044cc <tcp_fasttmr+0x74>)
 800445e:	4f1c      	ldr	r7, [pc, #112]	; (80044d0 <tcp_fasttmr+0x78>)
 8004460:	782b      	ldrb	r3, [r5, #0]
 8004462:	4e1c      	ldr	r6, [pc, #112]	; (80044d4 <tcp_fasttmr+0x7c>)
 8004464:	3301      	adds	r3, #1
 8004466:	702b      	strb	r3, [r5, #0]
 8004468:	683c      	ldr	r4, [r7, #0]
 800446a:	f04f 0800 	mov.w	r8, #0
 800446e:	b90c      	cbnz	r4, 8004474 <tcp_fasttmr+0x1c>
 8004470:	e8bd 83f8 	ldmia.w	sp!, {r3, r4, r5, r6, r7, r8, r9, pc}
 8004474:	782b      	ldrb	r3, [r5, #0]
 8004476:	7fa2      	ldrb	r2, [r4, #30]
 8004478:	429a      	cmp	r2, r3
 800447a:	d024      	beq.n	80044c6 <tcp_fasttmr+0x6e>
 800447c:	77a3      	strb	r3, [r4, #30]
 800447e:	8b63      	ldrh	r3, [r4, #26]
 8004480:	07d9      	lsls	r1, r3, #31
 8004482:	d509      	bpl.n	8004498 <tcp_fasttmr+0x40>
 8004484:	f043 0302 	orr.w	r3, r3, #2
 8004488:	8363      	strh	r3, [r4, #26]
 800448a:	4620      	mov	r0, r4
 800448c:	f002 fc30 	bl	8006cf0 <tcp_output>
 8004490:	8b63      	ldrh	r3, [r4, #26]
 8004492:	f023 0303 	bic.w	r3, r3, #3
 8004496:	8363      	strh	r3, [r4, #26]
 8004498:	8b63      	ldrh	r3, [r4, #26]
 800449a:	071a      	lsls	r2, r3, #28
 800449c:	d505      	bpl.n	80044aa <tcp_fasttmr+0x52>
 800449e:	f023 0308 	bic.w	r3, r3, #8
 80044a2:	8363      	strh	r3, [r4, #26]
 80044a4:	4620      	mov	r0, r4
 80044a6:	f7ff fa23 	bl	80038f0 <tcp_close_shutdown_fin>
 80044aa:	6fa3      	ldr	r3, [r4, #120]	; 0x78
 80044ac:	f8d4 900c 	ldr.w	r9, [r4, #12]
 80044b0:	b13b      	cbz	r3, 80044c2 <tcp_fasttmr+0x6a>
 80044b2:	4620      	mov	r0, r4
 80044b4:	f886 8000 	strb.w	r8, [r6]
 80044b8:	f7ff ff8a 	bl	80043d0 <tcp_process_refused_data>
 80044bc:	7833      	ldrb	r3, [r6, #0]
 80044be:	2b00      	cmp	r3, #0
 80044c0:	d1d2      	bne.n	8004468 <tcp_fasttmr+0x10>
 80044c2:	464c      	mov	r4, r9
 80044c4:	e7d3      	b.n	800446e <tcp_fasttmr+0x16>
 80044c6:	f8d4 900c 	ldr.w	r9, [r4, #12]
 80044ca:	e7fa      	b.n	80044c2 <tcp_fasttmr+0x6a>
 80044cc:	200082a5 	.word	0x200082a5
 80044d0:	20008290 	.word	0x20008290
 80044d4:	20008294 	.word	0x20008294

080044d8 <tcp_slowtmr>:
 80044d8:	e92d 4ff0 	stmdb	sp!, {r4, r5, r6, r7, r8, r9, sl, fp, lr}
 80044dc:	4e91      	ldr	r6, [pc, #580]	; (8004724 <tcp_slowtmr+0x24c>)
 80044de:	4a92      	ldr	r2, [pc, #584]	; (8004728 <tcp_slowtmr+0x250>)
 80044e0:	6833      	ldr	r3, [r6, #0]
 80044e2:	f8df a270 	ldr.w	sl, [pc, #624]	; 8004754 <tcp_slowtmr+0x27c>
 80044e6:	4f91      	ldr	r7, [pc, #580]	; (800472c <tcp_slowtmr+0x254>)
 80044e8:	3301      	adds	r3, #1
 80044ea:	6033      	str	r3, [r6, #0]
 80044ec:	7813      	ldrb	r3, [r2, #0]
 80044ee:	3301      	adds	r3, #1
 80044f0:	b087      	sub	sp, #28
 80044f2:	7013      	strb	r3, [r2, #0]
 80044f4:	f8da 4000 	ldr.w	r4, [sl]
 80044f8:	f8df 825c 	ldr.w	r8, [pc, #604]	; 8004758 <tcp_slowtmr+0x280>
 80044fc:	f04f 0900 	mov.w	r9, #0
 8004500:	b96c      	cbnz	r4, 800451e <tcp_slowtmr+0x46>
 8004502:	4f8b      	ldr	r7, [pc, #556]	; (8004730 <tcp_slowtmr+0x258>)
 8004504:	f8df 8224 	ldr.w	r8, [pc, #548]	; 800472c <tcp_slowtmr+0x254>
 8004508:	683d      	ldr	r5, [r7, #0]
 800450a:	f8df a250 	ldr.w	sl, [pc, #592]	; 800475c <tcp_slowtmr+0x284>
 800450e:	f8df 9248 	ldr.w	r9, [pc, #584]	; 8004758 <tcp_slowtmr+0x280>
 8004512:	2d00      	cmp	r5, #0
 8004514:	f040 81b9 	bne.w	800488a <tcp_slowtmr+0x3b2>
 8004518:	b007      	add	sp, #28
 800451a:	e8bd 8ff0 	ldmia.w	sp!, {r4, r5, r6, r7, r8, r9, sl, fp, pc}
 800451e:	7d23      	ldrb	r3, [r4, #20]
 8004520:	b933      	cbnz	r3, 8004530 <tcp_slowtmr+0x58>
 8004522:	4984      	ldr	r1, [pc, #528]	; (8004734 <tcp_slowtmr+0x25c>)
 8004524:	463b      	mov	r3, r7
 8004526:	f240 42be 	movw	r2, #1214	; 0x4be
 800452a:	4640      	mov	r0, r8
 800452c:	f004 fbb2 	bl	8008c94 <iprintf>
 8004530:	7d23      	ldrb	r3, [r4, #20]
 8004532:	2b01      	cmp	r3, #1
 8004534:	d106      	bne.n	8004544 <tcp_slowtmr+0x6c>
 8004536:	4980      	ldr	r1, [pc, #512]	; (8004738 <tcp_slowtmr+0x260>)
 8004538:	463b      	mov	r3, r7
 800453a:	f240 42bf 	movw	r2, #1215	; 0x4bf
 800453e:	4640      	mov	r0, r8
 8004540:	f004 fba8 	bl	8008c94 <iprintf>
 8004544:	7d23      	ldrb	r3, [r4, #20]
 8004546:	2b0a      	cmp	r3, #10
 8004548:	d106      	bne.n	8004558 <tcp_slowtmr+0x80>
 800454a:	497c      	ldr	r1, [pc, #496]	; (800473c <tcp_slowtmr+0x264>)
 800454c:	463b      	mov	r3, r7
 800454e:	f44f 6298 	mov.w	r2, #1216	; 0x4c0
 8004552:	4640      	mov	r0, r8
 8004554:	f004 fb9e 	bl	8008c94 <iprintf>
 8004558:	4b73      	ldr	r3, [pc, #460]	; (8004728 <tcp_slowtmr+0x250>)
 800455a:	7fa2      	ldrb	r2, [r4, #30]
 800455c:	781b      	ldrb	r3, [r3, #0]
 800455e:	429a      	cmp	r2, r3
 8004560:	d103      	bne.n	800456a <tcp_slowtmr+0x92>
 8004562:	68e5      	ldr	r5, [r4, #12]
 8004564:	46a1      	mov	r9, r4
 8004566:	462c      	mov	r4, r5
 8004568:	e7ca      	b.n	8004500 <tcp_slowtmr+0x28>
 800456a:	7d22      	ldrb	r2, [r4, #20]
 800456c:	77a3      	strb	r3, [r4, #30]
 800456e:	2a02      	cmp	r2, #2
 8004570:	f894 3042 	ldrb.w	r3, [r4, #66]	; 0x42
 8004574:	f040 8089 	bne.w	800468a <tcp_slowtmr+0x1b2>
 8004578:	2b05      	cmp	r3, #5
 800457a:	f240 8088 	bls.w	800468e <tcp_slowtmr+0x1b6>
 800457e:	f04f 0b01 	mov.w	fp, #1
 8004582:	7d22      	ldrb	r2, [r4, #20]
 8004584:	2a06      	cmp	r2, #6
 8004586:	d10b      	bne.n	80045a0 <tcp_slowtmr+0xc8>
 8004588:	8b61      	ldrh	r1, [r4, #26]
 800458a:	06cb      	lsls	r3, r1, #27
 800458c:	d508      	bpl.n	80045a0 <tcp_slowtmr+0xc8>
 800458e:	6831      	ldr	r1, [r6, #0]
 8004590:	6a20      	ldr	r0, [r4, #32]
 8004592:	1a09      	subs	r1, r1, r0
 8004594:	2928      	cmp	r1, #40	; 0x28
 8004596:	bf84      	itt	hi
 8004598:	f10b 0301 	addhi.w	r3, fp, #1
 800459c:	fa5f fb83 	uxtbhi.w	fp, r3
 80045a0:	7a65      	ldrb	r5, [r4, #9]
 80045a2:	f015 0508 	ands.w	r5, r5, #8
 80045a6:	d019      	beq.n	80045dc <tcp_slowtmr+0x104>
 80045a8:	2a04      	cmp	r2, #4
 80045aa:	d002      	beq.n	80045b2 <tcp_slowtmr+0xda>
 80045ac:	2a07      	cmp	r2, #7
 80045ae:	f040 8133 	bne.w	8004818 <tcp_slowtmr+0x340>
 80045b2:	6a22      	ldr	r2, [r4, #32]
 80045b4:	6830      	ldr	r0, [r6, #0]
 80045b6:	1a80      	subs	r0, r0, r2
 80045b8:	f8d4 2094 	ldr.w	r2, [r4, #148]	; 0x94
 80045bc:	f502 2124 	add.w	r1, r2, #671744	; 0xa4000
 80045c0:	f601 41b8 	addw	r1, r1, #3256	; 0xcb8
 80045c4:	f44f 75fa 	mov.w	r5, #500	; 0x1f4
 80045c8:	fbb1 f1f5 	udiv	r1, r1, r5
 80045cc:	4288      	cmp	r0, r1
 80045ce:	f240 8111 	bls.w	80047f4 <tcp_slowtmr+0x31c>
 80045d2:	f10b 0301 	add.w	r3, fp, #1
 80045d6:	fa5f fb83 	uxtb.w	fp, r3
 80045da:	2501      	movs	r5, #1
 80045dc:	6f62      	ldr	r2, [r4, #116]	; 0x74
 80045de:	b162      	cbz	r2, 80045fa <tcp_slowtmr+0x122>
 80045e0:	6832      	ldr	r2, [r6, #0]
 80045e2:	6a21      	ldr	r1, [r4, #32]
 80045e4:	1a51      	subs	r1, r2, r1
 80045e6:	f9b4 2040 	ldrsh.w	r2, [r4, #64]	; 0x40
 80045ea:	eb02 0242 	add.w	r2, r2, r2, lsl #1
 80045ee:	ebb1 0f42 	cmp.w	r1, r2, lsl #1
 80045f2:	d302      	bcc.n	80045fa <tcp_slowtmr+0x122>
 80045f4:	4620      	mov	r0, r4
 80045f6:	f7ff fbbb 	bl	8003d70 <tcp_free_ooseq>
 80045fa:	7d22      	ldrb	r2, [r4, #20]
 80045fc:	2a03      	cmp	r2, #3
 80045fe:	f040 810d 	bne.w	800481c <tcp_slowtmr+0x344>
 8004602:	6832      	ldr	r2, [r6, #0]
 8004604:	6a21      	ldr	r1, [r4, #32]
 8004606:	1a52      	subs	r2, r2, r1
 8004608:	2a28      	cmp	r2, #40	; 0x28
 800460a:	d803      	bhi.n	8004614 <tcp_slowtmr+0x13c>
 800460c:	f1bb 0f00 	cmp.w	fp, #0
 8004610:	f000 8119 	beq.w	8004846 <tcp_slowtmr+0x36e>
 8004614:	4620      	mov	r0, r4
 8004616:	f8d4 b090 	ldr.w	fp, [r4, #144]	; 0x90
 800461a:	f7ff fbb3 	bl	8003d84 <tcp_pcb_purge>
 800461e:	f8da 3000 	ldr.w	r3, [sl]
 8004622:	f1b9 0f00 	cmp.w	r9, #0
 8004626:	f000 8101 	beq.w	800482c <tcp_slowtmr+0x354>
 800462a:	42a3      	cmp	r3, r4
 800462c:	d106      	bne.n	800463c <tcp_slowtmr+0x164>
 800462e:	4944      	ldr	r1, [pc, #272]	; (8004740 <tcp_slowtmr+0x268>)
 8004630:	463b      	mov	r3, r7
 8004632:	f240 526d 	movw	r2, #1389	; 0x56d
 8004636:	4640      	mov	r0, r8
 8004638:	f004 fb2c 	bl	8008c94 <iprintf>
 800463c:	68e3      	ldr	r3, [r4, #12]
 800463e:	f8c9 300c 	str.w	r3, [r9, #12]
 8004642:	b15d      	cbz	r5, 800465c <tcp_slowtmr+0x184>
 8004644:	8b23      	ldrh	r3, [r4, #24]
 8004646:	9302      	str	r3, [sp, #8]
 8004648:	8ae3      	ldrh	r3, [r4, #22]
 800464a:	9301      	str	r3, [sp, #4]
 800464c:	1d23      	adds	r3, r4, #4
 800464e:	9300      	str	r3, [sp, #0]
 8004650:	6a62      	ldr	r2, [r4, #36]	; 0x24
 8004652:	6d21      	ldr	r1, [r4, #80]	; 0x50
 8004654:	4623      	mov	r3, r4
 8004656:	4620      	mov	r0, r4
 8004658:	f002 fad2 	bl	8006c00 <tcp_rst>
 800465c:	6923      	ldr	r3, [r4, #16]
 800465e:	68e5      	ldr	r5, [r4, #12]
 8004660:	9305      	str	r3, [sp, #20]
 8004662:	4620      	mov	r0, r4
 8004664:	4c37      	ldr	r4, [pc, #220]	; (8004744 <tcp_slowtmr+0x26c>)
 8004666:	f7ff f97f 	bl	8003968 <tcp_free>
 800466a:	2200      	movs	r2, #0
 800466c:	7022      	strb	r2, [r4, #0]
 800466e:	f1bb 0f00 	cmp.w	fp, #0
 8004672:	d008      	beq.n	8004686 <tcp_slowtmr+0x1ae>
 8004674:	9b05      	ldr	r3, [sp, #20]
 8004676:	f06f 010c 	mvn.w	r1, #12
 800467a:	4618      	mov	r0, r3
 800467c:	47d8      	blx	fp
 800467e:	7823      	ldrb	r3, [r4, #0]
 8004680:	2b00      	cmp	r3, #0
 8004682:	f47f af37 	bne.w	80044f4 <tcp_slowtmr+0x1c>
 8004686:	464c      	mov	r4, r9
 8004688:	e76c      	b.n	8004564 <tcp_slowtmr+0x8c>
 800468a:	2b0b      	cmp	r3, #11
 800468c:	e775      	b.n	800457a <tcp_slowtmr+0xa2>
 800468e:	f894 b099 	ldrb.w	fp, [r4, #153]	; 0x99
 8004692:	f1bb 0f00 	cmp.w	fp, #0
 8004696:	d063      	beq.n	8004760 <tcp_slowtmr+0x288>
 8004698:	6f23      	ldr	r3, [r4, #112]	; 0x70
 800469a:	b133      	cbz	r3, 80046aa <tcp_slowtmr+0x1d2>
 800469c:	492a      	ldr	r1, [pc, #168]	; (8004748 <tcp_slowtmr+0x270>)
 800469e:	463b      	mov	r3, r7
 80046a0:	f240 42d4 	movw	r2, #1236	; 0x4d4
 80046a4:	4640      	mov	r0, r8
 80046a6:	f004 faf5 	bl	8008c94 <iprintf>
 80046aa:	6ee3      	ldr	r3, [r4, #108]	; 0x6c
 80046ac:	b933      	cbnz	r3, 80046bc <tcp_slowtmr+0x1e4>
 80046ae:	4927      	ldr	r1, [pc, #156]	; (800474c <tcp_slowtmr+0x274>)
 80046b0:	463b      	mov	r3, r7
 80046b2:	f240 42d5 	movw	r2, #1237	; 0x4d5
 80046b6:	4640      	mov	r0, r8
 80046b8:	f004 faec 	bl	8008c94 <iprintf>
 80046bc:	f894 309a 	ldrb.w	r3, [r4, #154]	; 0x9a
 80046c0:	2b0b      	cmp	r3, #11
 80046c2:	f63f af5c 	bhi.w	800457e <tcp_slowtmr+0xa6>
 80046c6:	f894 2099 	ldrb.w	r2, [r4, #153]	; 0x99
 80046ca:	4b21      	ldr	r3, [pc, #132]	; (8004750 <tcp_slowtmr+0x278>)
 80046cc:	4413      	add	r3, r2
 80046ce:	f813 2c01 	ldrb.w	r2, [r3, #-1]
 80046d2:	f894 3098 	ldrb.w	r3, [r4, #152]	; 0x98
 80046d6:	4293      	cmp	r3, r2
 80046d8:	d30b      	bcc.n	80046f2 <tcp_slowtmr+0x21a>
 80046da:	f8b4 1060 	ldrh.w	r1, [r4, #96]	; 0x60
 80046de:	b189      	cbz	r1, 8004704 <tcp_slowtmr+0x22c>
 80046e0:	4620      	mov	r0, r4
 80046e2:	f002 f843 	bl	800676c <tcp_split_unsent_seg>
 80046e6:	b990      	cbnz	r0, 800470e <tcp_slowtmr+0x236>
 80046e8:	4620      	mov	r0, r4
 80046ea:	f002 fb01 	bl	8006cf0 <tcp_output>
 80046ee:	b130      	cbz	r0, 80046fe <tcp_slowtmr+0x226>
 80046f0:	e00d      	b.n	800470e <tcp_slowtmr+0x236>
 80046f2:	3301      	adds	r3, #1
 80046f4:	b2db      	uxtb	r3, r3
 80046f6:	4293      	cmp	r3, r2
 80046f8:	f884 3098 	strb.w	r3, [r4, #152]	; 0x98
 80046fc:	d2ed      	bcs.n	80046da <tcp_slowtmr+0x202>
 80046fe:	f04f 0b00 	mov.w	fp, #0
 8004702:	e73e      	b.n	8004582 <tcp_slowtmr+0xaa>
 8004704:	4620      	mov	r0, r4
 8004706:	f002 fcfb 	bl	8007100 <tcp_zero_window_probe>
 800470a:	2800      	cmp	r0, #0
 800470c:	d1f7      	bne.n	80046fe <tcp_slowtmr+0x226>
 800470e:	f894 2099 	ldrb.w	r2, [r4, #153]	; 0x99
 8004712:	2300      	movs	r3, #0
 8004714:	2a06      	cmp	r2, #6
 8004716:	f884 3098 	strb.w	r3, [r4, #152]	; 0x98
 800471a:	d8f0      	bhi.n	80046fe <tcp_slowtmr+0x226>
 800471c:	3201      	adds	r2, #1
 800471e:	f884 2099 	strb.w	r2, [r4, #153]	; 0x99
 8004722:	e7ec      	b.n	80046fe <tcp_slowtmr+0x226>
 8004724:	200082a0 	.word	0x200082a0
 8004728:	200082a5 	.word	0x200082a5
 800472c:	0800a2af 	.word	0x0800a2af
 8004730:	200082a8 	.word	0x200082a8
 8004734:	0800a6be 	.word	0x0800a6be
 8004738:	0800a6e8 	.word	0x0800a6e8
 800473c:	0800a712 	.word	0x0800a712
 8004740:	0800a7a6 	.word	0x0800a7a6
 8004744:	20008294 	.word	0x20008294
 8004748:	0800a73f 	.word	0x0800a73f
 800474c:	0800a771 	.word	0x0800a771
 8004750:	0800a894 	.word	0x0800a894
 8004754:	20008290 	.word	0x20008290
 8004758:	08009b3a 	.word	0x08009b3a
 800475c:	0800a7fb 	.word	0x0800a7fb
 8004760:	8e22      	ldrh	r2, [r4, #48]	; 0x30
 8004762:	f647 71fe 	movw	r1, #32766	; 0x7ffe
 8004766:	428a      	cmp	r2, r1
 8004768:	bf9c      	itt	ls
 800476a:	3201      	addls	r2, #1
 800476c:	8622      	strhls	r2, [r4, #48]	; 0x30
 800476e:	f9b4 1030 	ldrsh.w	r1, [r4, #48]	; 0x30
 8004772:	f9b4 2040 	ldrsh.w	r2, [r4, #64]	; 0x40
 8004776:	4291      	cmp	r1, r2
 8004778:	dbc1      	blt.n	80046fe <tcp_slowtmr+0x226>
 800477a:	4620      	mov	r0, r4
 800477c:	f002 f986 	bl	8006a8c <tcp_rexmit_rto_prepare>
 8004780:	b128      	cbz	r0, 800478e <tcp_slowtmr+0x2b6>
 8004782:	6f22      	ldr	r2, [r4, #112]	; 0x70
 8004784:	2a00      	cmp	r2, #0
 8004786:	d1ba      	bne.n	80046fe <tcp_slowtmr+0x226>
 8004788:	6ee2      	ldr	r2, [r4, #108]	; 0x6c
 800478a:	2a00      	cmp	r2, #0
 800478c:	d0b7      	beq.n	80046fe <tcp_slowtmr+0x226>
 800478e:	7d22      	ldrb	r2, [r4, #20]
 8004790:	2a02      	cmp	r2, #2
 8004792:	d014      	beq.n	80047be <tcp_slowtmr+0x2e6>
 8004794:	f9b4 103c 	ldrsh.w	r1, [r4, #60]	; 0x3c
 8004798:	f9b4 203e 	ldrsh.w	r2, [r4, #62]	; 0x3e
 800479c:	4856      	ldr	r0, [pc, #344]	; (80048f8 <tcp_slowtmr+0x420>)
 800479e:	eb02 02e1 	add.w	r2, r2, r1, asr #3
 80047a2:	f894 1042 	ldrb.w	r1, [r4, #66]	; 0x42
 80047a6:	290c      	cmp	r1, #12
 80047a8:	bf28      	it	cs
 80047aa:	210c      	movcs	r1, #12
 80047ac:	5c41      	ldrb	r1, [r0, r1]
 80047ae:	408a      	lsls	r2, r1
 80047b0:	f647 71ff 	movw	r1, #32767	; 0x7fff
 80047b4:	428a      	cmp	r2, r1
 80047b6:	bfa8      	it	ge
 80047b8:	460a      	movge	r2, r1
 80047ba:	f8a4 2040 	strh.w	r2, [r4, #64]	; 0x40
 80047be:	f8b4 5048 	ldrh.w	r5, [r4, #72]	; 0x48
 80047c2:	f8b4 2060 	ldrh.w	r2, [r4, #96]	; 0x60
 80047c6:	8e60      	ldrh	r0, [r4, #50]	; 0x32
 80047c8:	f8a4 0048 	strh.w	r0, [r4, #72]	; 0x48
 80047cc:	42aa      	cmp	r2, r5
 80047ce:	bf28      	it	cs
 80047d0:	462a      	movcs	r2, r5
 80047d2:	0045      	lsls	r5, r0, #1
 80047d4:	0852      	lsrs	r2, r2, #1
 80047d6:	b2ad      	uxth	r5, r5
 80047d8:	42aa      	cmp	r2, r5
 80047da:	f04f 0100 	mov.w	r1, #0
 80047de:	bf38      	it	cc
 80047e0:	462a      	movcc	r2, r5
 80047e2:	8621      	strh	r1, [r4, #48]	; 0x30
 80047e4:	f8a4 204a 	strh.w	r2, [r4, #74]	; 0x4a
 80047e8:	f8a4 106a 	strh.w	r1, [r4, #106]	; 0x6a
 80047ec:	4620      	mov	r0, r4
 80047ee:	f002 fc29 	bl	8007044 <tcp_rexmit_rto_commit>
 80047f2:	e6c6      	b.n	8004582 <tcp_slowtmr+0xaa>
 80047f4:	f894 109b 	ldrb.w	r1, [r4, #155]	; 0x9b
 80047f8:	4b40      	ldr	r3, [pc, #256]	; (80048fc <tcp_slowtmr+0x424>)
 80047fa:	fb03 2201 	mla	r2, r3, r1, r2
 80047fe:	fbb2 f2f5 	udiv	r2, r2, r5
 8004802:	4290      	cmp	r0, r2
 8004804:	d908      	bls.n	8004818 <tcp_slowtmr+0x340>
 8004806:	4620      	mov	r0, r4
 8004808:	f002 fc52 	bl	80070b0 <tcp_keepalive>
 800480c:	b920      	cbnz	r0, 8004818 <tcp_slowtmr+0x340>
 800480e:	f894 209b 	ldrb.w	r2, [r4, #155]	; 0x9b
 8004812:	3201      	adds	r2, #1
 8004814:	f884 209b 	strb.w	r2, [r4, #155]	; 0x9b
 8004818:	2500      	movs	r5, #0
 800481a:	e6df      	b.n	80045dc <tcp_slowtmr+0x104>
 800481c:	2a09      	cmp	r2, #9
 800481e:	f47f aef5 	bne.w	800460c <tcp_slowtmr+0x134>
 8004822:	6832      	ldr	r2, [r6, #0]
 8004824:	6a21      	ldr	r1, [r4, #32]
 8004826:	1a52      	subs	r2, r2, r1
 8004828:	2af0      	cmp	r2, #240	; 0xf0
 800482a:	e6ee      	b.n	800460a <tcp_slowtmr+0x132>
 800482c:	42a3      	cmp	r3, r4
 800482e:	d006      	beq.n	800483e <tcp_slowtmr+0x366>
 8004830:	4933      	ldr	r1, [pc, #204]	; (8004900 <tcp_slowtmr+0x428>)
 8004832:	463b      	mov	r3, r7
 8004834:	f240 5271 	movw	r2, #1393	; 0x571
 8004838:	4640      	mov	r0, r8
 800483a:	f004 fa2b 	bl	8008c94 <iprintf>
 800483e:	68e3      	ldr	r3, [r4, #12]
 8004840:	f8ca 3000 	str.w	r3, [sl]
 8004844:	e6fd      	b.n	8004642 <tcp_slowtmr+0x16a>
 8004846:	7f22      	ldrb	r2, [r4, #28]
 8004848:	7f61      	ldrb	r1, [r4, #29]
 800484a:	68e5      	ldr	r5, [r4, #12]
 800484c:	3201      	adds	r2, #1
 800484e:	b2d2      	uxtb	r2, r2
 8004850:	4291      	cmp	r1, r2
 8004852:	7722      	strb	r2, [r4, #28]
 8004854:	f63f ae86 	bhi.w	8004564 <tcp_slowtmr+0x8c>
 8004858:	f8df 90b0 	ldr.w	r9, [pc, #176]	; 800490c <tcp_slowtmr+0x434>
 800485c:	f8d4 308c 	ldr.w	r3, [r4, #140]	; 0x8c
 8004860:	f884 b01c 	strb.w	fp, [r4, #28]
 8004864:	f889 b000 	strb.w	fp, [r9]
 8004868:	b91b      	cbnz	r3, 8004872 <tcp_slowtmr+0x39a>
 800486a:	4620      	mov	r0, r4
 800486c:	f002 fa40 	bl	8006cf0 <tcp_output>
 8004870:	e678      	b.n	8004564 <tcp_slowtmr+0x8c>
 8004872:	6920      	ldr	r0, [r4, #16]
 8004874:	4621      	mov	r1, r4
 8004876:	4798      	blx	r3
 8004878:	f899 3000 	ldrb.w	r3, [r9]
 800487c:	2b00      	cmp	r3, #0
 800487e:	f47f ae39 	bne.w	80044f4 <tcp_slowtmr+0x1c>
 8004882:	2800      	cmp	r0, #0
 8004884:	f47f ae6e 	bne.w	8004564 <tcp_slowtmr+0x8c>
 8004888:	e7ef      	b.n	800486a <tcp_slowtmr+0x392>
 800488a:	7d2b      	ldrb	r3, [r5, #20]
 800488c:	2b0a      	cmp	r3, #10
 800488e:	d006      	beq.n	800489e <tcp_slowtmr+0x3c6>
 8004890:	4643      	mov	r3, r8
 8004892:	f240 52a1 	movw	r2, #1441	; 0x5a1
 8004896:	4651      	mov	r1, sl
 8004898:	4648      	mov	r0, r9
 800489a:	f004 f9fb 	bl	8008c94 <iprintf>
 800489e:	6833      	ldr	r3, [r6, #0]
 80048a0:	6a2a      	ldr	r2, [r5, #32]
 80048a2:	1a9b      	subs	r3, r3, r2
 80048a4:	2bf0      	cmp	r3, #240	; 0xf0
 80048a6:	d910      	bls.n	80048ca <tcp_slowtmr+0x3f2>
 80048a8:	4628      	mov	r0, r5
 80048aa:	f7ff fa6b 	bl	8003d84 <tcp_pcb_purge>
 80048ae:	b97c      	cbnz	r4, 80048d0 <tcp_slowtmr+0x3f8>
 80048b0:	683b      	ldr	r3, [r7, #0]
 80048b2:	42ab      	cmp	r3, r5
 80048b4:	d006      	beq.n	80048c4 <tcp_slowtmr+0x3ec>
 80048b6:	4913      	ldr	r1, [pc, #76]	; (8004904 <tcp_slowtmr+0x42c>)
 80048b8:	4643      	mov	r3, r8
 80048ba:	f240 52b3 	movw	r2, #1459	; 0x5b3
 80048be:	4648      	mov	r0, r9
 80048c0:	f004 f9e8 	bl	8008c94 <iprintf>
 80048c4:	68eb      	ldr	r3, [r5, #12]
 80048c6:	603b      	str	r3, [r7, #0]
 80048c8:	e00e      	b.n	80048e8 <tcp_slowtmr+0x410>
 80048ca:	462c      	mov	r4, r5
 80048cc:	68ed      	ldr	r5, [r5, #12]
 80048ce:	e620      	b.n	8004512 <tcp_slowtmr+0x3a>
 80048d0:	683b      	ldr	r3, [r7, #0]
 80048d2:	42ab      	cmp	r3, r5
 80048d4:	d106      	bne.n	80048e4 <tcp_slowtmr+0x40c>
 80048d6:	490c      	ldr	r1, [pc, #48]	; (8004908 <tcp_slowtmr+0x430>)
 80048d8:	4643      	mov	r3, r8
 80048da:	f240 52af 	movw	r2, #1455	; 0x5af
 80048de:	4648      	mov	r0, r9
 80048e0:	f004 f9d8 	bl	8008c94 <iprintf>
 80048e4:	68eb      	ldr	r3, [r5, #12]
 80048e6:	60e3      	str	r3, [r4, #12]
 80048e8:	f8d5 b00c 	ldr.w	fp, [r5, #12]
 80048ec:	4628      	mov	r0, r5
 80048ee:	f7ff f83b 	bl	8003968 <tcp_free>
 80048f2:	465d      	mov	r5, fp
 80048f4:	e60d      	b.n	8004512 <tcp_slowtmr+0x3a>
 80048f6:	bf00      	nop
 80048f8:	0800a877 	.word	0x0800a877
 80048fc:	000124f8 	.word	0x000124f8
 8004900:	0800a7d1 	.word	0x0800a7d1
 8004904:	0800a851 	.word	0x0800a851
 8004908:	0800a82a 	.word	0x0800a82a
 800490c:	20008294 	.word	0x20008294

08004910 <tcp_tmr>:
 8004910:	b508      	push	{r3, lr}
 8004912:	f7ff fda1 	bl	8004458 <tcp_fasttmr>
 8004916:	4a06      	ldr	r2, [pc, #24]	; (8004930 <tcp_tmr+0x20>)
 8004918:	7813      	ldrb	r3, [r2, #0]
 800491a:	3301      	adds	r3, #1
 800491c:	b2db      	uxtb	r3, r3
 800491e:	7013      	strb	r3, [r2, #0]
 8004920:	07db      	lsls	r3, r3, #31
 8004922:	d503      	bpl.n	800492c <tcp_tmr+0x1c>
 8004924:	e8bd 4008 	ldmia.w	sp!, {r3, lr}
 8004928:	f7ff bdd6 	b.w	80044d8 <tcp_slowtmr>
 800492c:	bd08      	pop	{r3, pc}
 800492e:	bf00      	nop
 8004930:	200082a4 	.word	0x200082a4

08004934 <tcp_get_next_optbyte>:
 8004934:	4a09      	ldr	r2, [pc, #36]	; (800495c <tcp_get_next_optbyte+0x28>)
 8004936:	8813      	ldrh	r3, [r2, #0]
 8004938:	1c59      	adds	r1, r3, #1
 800493a:	8011      	strh	r1, [r2, #0]
 800493c:	4a08      	ldr	r2, [pc, #32]	; (8004960 <tcp_get_next_optbyte+0x2c>)
 800493e:	6812      	ldr	r2, [r2, #0]
 8004940:	b11a      	cbz	r2, 800494a <tcp_get_next_optbyte+0x16>
 8004942:	4908      	ldr	r1, [pc, #32]	; (8004964 <tcp_get_next_optbyte+0x30>)
 8004944:	8809      	ldrh	r1, [r1, #0]
 8004946:	428b      	cmp	r3, r1
 8004948:	d204      	bcs.n	8004954 <tcp_get_next_optbyte+0x20>
 800494a:	4a07      	ldr	r2, [pc, #28]	; (8004968 <tcp_get_next_optbyte+0x34>)
 800494c:	6812      	ldr	r2, [r2, #0]
 800494e:	4413      	add	r3, r2
 8004950:	7d18      	ldrb	r0, [r3, #20]
 8004952:	4770      	bx	lr
 8004954:	1a5b      	subs	r3, r3, r1
 8004956:	b2db      	uxtb	r3, r3
 8004958:	5cd0      	ldrb	r0, [r2, r3]
 800495a:	4770      	bx	lr
 800495c:	200082d8 	.word	0x200082d8
 8004960:	200082e4 	.word	0x200082e4
 8004964:	200082e0 	.word	0x200082e0
 8004968:	200082dc 	.word	0x200082dc

0800496c <tcp_oos_insert_segment>:
 800496c:	b5f8      	push	{r3, r4, r5, r6, r7, lr}
 800496e:	460c      	mov	r4, r1
 8004970:	4605      	mov	r5, r0
 8004972:	b930      	cbnz	r0, 8004982 <tcp_oos_insert_segment+0x16>
 8004974:	4b1e      	ldr	r3, [pc, #120]	; (80049f0 <tcp_oos_insert_segment+0x84>)
 8004976:	491f      	ldr	r1, [pc, #124]	; (80049f4 <tcp_oos_insert_segment+0x88>)
 8004978:	481f      	ldr	r0, [pc, #124]	; (80049f8 <tcp_oos_insert_segment+0x8c>)
 800497a:	f240 421f 	movw	r2, #1055	; 0x41f
 800497e:	f004 f989 	bl	8008c94 <iprintf>
 8004982:	68eb      	ldr	r3, [r5, #12]
 8004984:	8998      	ldrh	r0, [r3, #12]
 8004986:	f7fd ffd6 	bl	8002936 <lwip_htons>
 800498a:	07c2      	lsls	r2, r0, #31
 800498c:	d414      	bmi.n	80049b8 <tcp_oos_insert_segment+0x4c>
 800498e:	4e1b      	ldr	r6, [pc, #108]	; (80049fc <tcp_oos_insert_segment+0x90>)
 8004990:	68e7      	ldr	r7, [r4, #12]
 8004992:	6830      	ldr	r0, [r6, #0]
 8004994:	892b      	ldrh	r3, [r5, #8]
 8004996:	6879      	ldr	r1, [r7, #4]
 8004998:	8922      	ldrh	r2, [r4, #8]
 800499a:	4403      	add	r3, r0
 800499c:	440a      	add	r2, r1
 800499e:	1a9a      	subs	r2, r3, r2
 80049a0:	2a00      	cmp	r2, #0
 80049a2:	da0f      	bge.n	80049c4 <tcp_oos_insert_segment+0x58>
 80049a4:	1a5b      	subs	r3, r3, r1
 80049a6:	2b00      	cmp	r3, #0
 80049a8:	dd0a      	ble.n	80049c0 <tcp_oos_insert_segment+0x54>
 80049aa:	1a09      	subs	r1, r1, r0
 80049ac:	b289      	uxth	r1, r1
 80049ae:	6868      	ldr	r0, [r5, #4]
 80049b0:	8129      	strh	r1, [r5, #8]
 80049b2:	f7fe fde3 	bl	800357c <pbuf_realloc>
 80049b6:	e003      	b.n	80049c0 <tcp_oos_insert_segment+0x54>
 80049b8:	4620      	mov	r0, r4
 80049ba:	f7ff f92f 	bl	8003c1c <tcp_segs_free>
 80049be:	2400      	movs	r4, #0
 80049c0:	602c      	str	r4, [r5, #0]
 80049c2:	bdf8      	pop	{r3, r4, r5, r6, r7, pc}
 80049c4:	89b8      	ldrh	r0, [r7, #12]
 80049c6:	f7fd ffb6 	bl	8002936 <lwip_htons>
 80049ca:	07c3      	lsls	r3, r0, #31
 80049cc:	d507      	bpl.n	80049de <tcp_oos_insert_segment+0x72>
 80049ce:	68eb      	ldr	r3, [r5, #12]
 80049d0:	2001      	movs	r0, #1
 80049d2:	899f      	ldrh	r7, [r3, #12]
 80049d4:	f7fd ffaf 	bl	8002936 <lwip_htons>
 80049d8:	68eb      	ldr	r3, [r5, #12]
 80049da:	4338      	orrs	r0, r7
 80049dc:	8198      	strh	r0, [r3, #12]
 80049de:	6827      	ldr	r7, [r4, #0]
 80049e0:	4620      	mov	r0, r4
 80049e2:	f7ff f90d 	bl	8003c00 <tcp_seg_free>
 80049e6:	463c      	mov	r4, r7
 80049e8:	2f00      	cmp	r7, #0
 80049ea:	d1d1      	bne.n	8004990 <tcp_oos_insert_segment+0x24>
 80049ec:	e7e8      	b.n	80049c0 <tcp_oos_insert_segment+0x54>
 80049ee:	bf00      	nop
 80049f0:	0800a89b 	.word	0x0800a89b
 80049f4:	0800a8cd 	.word	0x0800a8cd
 80049f8:	08009b3a 	.word	0x08009b3a
 80049fc:	200082d0 	.word	0x200082d0

08004a00 <tcp_parseopt>:
 8004a00:	b5f8      	push	{r3, r4, r5, r6, r7, lr}
 8004a02:	4606      	mov	r6, r0
 8004a04:	b930      	cbnz	r0, 8004a14 <tcp_parseopt+0x14>
 8004a06:	4b1d      	ldr	r3, [pc, #116]	; (8004a7c <tcp_parseopt+0x7c>)
 8004a08:	491d      	ldr	r1, [pc, #116]	; (8004a80 <tcp_parseopt+0x80>)
 8004a0a:	481e      	ldr	r0, [pc, #120]	; (8004a84 <tcp_parseopt+0x84>)
 8004a0c:	f240 727d 	movw	r2, #1917	; 0x77d
 8004a10:	f004 f940 	bl	8008c94 <iprintf>
 8004a14:	4b1c      	ldr	r3, [pc, #112]	; (8004a88 <tcp_parseopt+0x88>)
 8004a16:	881f      	ldrh	r7, [r3, #0]
 8004a18:	b167      	cbz	r7, 8004a34 <tcp_parseopt+0x34>
 8004a1a:	4d1c      	ldr	r5, [pc, #112]	; (8004a8c <tcp_parseopt+0x8c>)
 8004a1c:	2300      	movs	r3, #0
 8004a1e:	802b      	strh	r3, [r5, #0]
 8004a20:	882b      	ldrh	r3, [r5, #0]
 8004a22:	42bb      	cmp	r3, r7
 8004a24:	d206      	bcs.n	8004a34 <tcp_parseopt+0x34>
 8004a26:	f7ff ff85 	bl	8004934 <tcp_get_next_optbyte>
 8004a2a:	2801      	cmp	r0, #1
 8004a2c:	d0f8      	beq.n	8004a20 <tcp_parseopt+0x20>
 8004a2e:	2802      	cmp	r0, #2
 8004a30:	d001      	beq.n	8004a36 <tcp_parseopt+0x36>
 8004a32:	b9c8      	cbnz	r0, 8004a68 <tcp_parseopt+0x68>
 8004a34:	bdf8      	pop	{r3, r4, r5, r6, r7, pc}
 8004a36:	f7ff ff7d 	bl	8004934 <tcp_get_next_optbyte>
 8004a3a:	2804      	cmp	r0, #4
 8004a3c:	d1fa      	bne.n	8004a34 <tcp_parseopt+0x34>
 8004a3e:	882b      	ldrh	r3, [r5, #0]
 8004a40:	3301      	adds	r3, #1
 8004a42:	42bb      	cmp	r3, r7
 8004a44:	daf6      	bge.n	8004a34 <tcp_parseopt+0x34>
 8004a46:	f7ff ff75 	bl	8004934 <tcp_get_next_optbyte>
 8004a4a:	0204      	lsls	r4, r0, #8
 8004a4c:	f7ff ff72 	bl	8004934 <tcp_get_next_optbyte>
 8004a50:	b2a4      	uxth	r4, r4
 8004a52:	ea44 0300 	orr.w	r3, r4, r0
 8004a56:	b29b      	uxth	r3, r3
 8004a58:	1e5a      	subs	r2, r3, #1
 8004a5a:	f5b2 7f06 	cmp.w	r2, #536	; 0x218
 8004a5e:	bf28      	it	cs
 8004a60:	f44f 7306 	movcs.w	r3, #536	; 0x218
 8004a64:	8673      	strh	r3, [r6, #50]	; 0x32
 8004a66:	e7db      	b.n	8004a20 <tcp_parseopt+0x20>
 8004a68:	f7ff ff64 	bl	8004934 <tcp_get_next_optbyte>
 8004a6c:	2801      	cmp	r0, #1
 8004a6e:	d9e1      	bls.n	8004a34 <tcp_parseopt+0x34>
 8004a70:	882b      	ldrh	r3, [r5, #0]
 8004a72:	3b02      	subs	r3, #2
 8004a74:	4418      	add	r0, r3
 8004a76:	8028      	strh	r0, [r5, #0]
 8004a78:	e7d2      	b.n	8004a20 <tcp_parseopt+0x20>
 8004a7a:	bf00      	nop
 8004a7c:	0800a89b 	.word	0x0800a89b
 8004a80:	0800a8f2 	.word	0x0800a8f2
 8004a84:	08009b3a 	.word	0x08009b3a
 8004a88:	200082e8 	.word	0x200082e8
 8004a8c:	200082d8 	.word	0x200082d8

08004a90 <tcp_input_delayed_close>:
 8004a90:	b510      	push	{r4, lr}
 8004a92:	4604      	mov	r4, r0
 8004a94:	b930      	cbnz	r0, 8004aa4 <tcp_input_delayed_close+0x14>
 8004a96:	4b0f      	ldr	r3, [pc, #60]	; (8004ad4 <tcp_input_delayed_close+0x44>)
 8004a98:	490f      	ldr	r1, [pc, #60]	; (8004ad8 <tcp_input_delayed_close+0x48>)
 8004a9a:	4810      	ldr	r0, [pc, #64]	; (8004adc <tcp_input_delayed_close+0x4c>)
 8004a9c:	f240 225a 	movw	r2, #602	; 0x25a
 8004aa0:	f004 f8f8 	bl	8008c94 <iprintf>
 8004aa4:	4b0e      	ldr	r3, [pc, #56]	; (8004ae0 <tcp_input_delayed_close+0x50>)
 8004aa6:	7818      	ldrb	r0, [r3, #0]
 8004aa8:	f010 0010 	ands.w	r0, r0, #16
 8004aac:	d011      	beq.n	8004ad2 <tcp_input_delayed_close+0x42>
 8004aae:	8b63      	ldrh	r3, [r4, #26]
 8004ab0:	06db      	lsls	r3, r3, #27
 8004ab2:	d406      	bmi.n	8004ac2 <tcp_input_delayed_close+0x32>
 8004ab4:	f8d4 3090 	ldr.w	r3, [r4, #144]	; 0x90
 8004ab8:	b11b      	cbz	r3, 8004ac2 <tcp_input_delayed_close+0x32>
 8004aba:	6920      	ldr	r0, [r4, #16]
 8004abc:	f06f 010e 	mvn.w	r1, #14
 8004ac0:	4798      	blx	r3
 8004ac2:	4808      	ldr	r0, [pc, #32]	; (8004ae4 <tcp_input_delayed_close+0x54>)
 8004ac4:	4621      	mov	r1, r4
 8004ac6:	f7ff f98f 	bl	8003de8 <tcp_pcb_remove>
 8004aca:	4620      	mov	r0, r4
 8004acc:	f7fe ff4c 	bl	8003968 <tcp_free>
 8004ad0:	2001      	movs	r0, #1
 8004ad2:	bd10      	pop	{r4, pc}
 8004ad4:	0800a89b 	.word	0x0800a89b
 8004ad8:	0800a90c 	.word	0x0800a90c
 8004adc:	08009b3a 	.word	0x08009b3a
 8004ae0:	200082cc 	.word	0x200082cc
 8004ae4:	20008290 	.word	0x20008290

08004ae8 <tcp_free_acked_segments.constprop.0>:
 8004ae8:	e92d 4ff8 	stmdb	sp!, {r3, r4, r5, r6, r7, r8, r9, sl, fp, lr}
 8004aec:	f8df 80b4 	ldr.w	r8, [pc, #180]	; 8004ba4 <tcp_free_acked_segments.constprop.0+0xbc>
 8004af0:	f8df 90a8 	ldr.w	r9, [pc, #168]	; 8004b9c <tcp_free_acked_segments.constprop.0+0xb4>
 8004af4:	f8df a0b0 	ldr.w	sl, [pc, #176]	; 8004ba8 <tcp_free_acked_segments.constprop.0+0xc0>
 8004af8:	4606      	mov	r6, r0
 8004afa:	4617      	mov	r7, r2
 8004afc:	460c      	mov	r4, r1
 8004afe:	2c00      	cmp	r4, #0
 8004b00:	d039      	beq.n	8004b76 <tcp_free_acked_segments.constprop.0+0x8e>
 8004b02:	68e3      	ldr	r3, [r4, #12]
 8004b04:	6858      	ldr	r0, [r3, #4]
 8004b06:	f7fd ff19 	bl	800293c <lwip_htonl>
 8004b0a:	68e3      	ldr	r3, [r4, #12]
 8004b0c:	8925      	ldrh	r5, [r4, #8]
 8004b0e:	4683      	mov	fp, r0
 8004b10:	8998      	ldrh	r0, [r3, #12]
 8004b12:	f7fd ff10 	bl	8002936 <lwip_htons>
 8004b16:	f8d8 3000 	ldr.w	r3, [r8]
 8004b1a:	f010 0003 	ands.w	r0, r0, #3
 8004b1e:	eba5 0503 	sub.w	r5, r5, r3
 8004b22:	bf18      	it	ne
 8004b24:	2001      	movne	r0, #1
 8004b26:	445d      	add	r5, fp
 8004b28:	4405      	add	r5, r0
 8004b2a:	2d00      	cmp	r5, #0
 8004b2c:	dc24      	bgt.n	8004b78 <tcp_free_acked_segments.constprop.0+0x90>
 8004b2e:	e9d4 b000 	ldrd	fp, r0, [r4]
 8004b32:	f7fe fd7b 	bl	800362c <pbuf_clen>
 8004b36:	f8b6 3066 	ldrh.w	r3, [r6, #102]	; 0x66
 8004b3a:	4283      	cmp	r3, r0
 8004b3c:	4605      	mov	r5, r0
 8004b3e:	d206      	bcs.n	8004b4e <tcp_free_acked_segments.constprop.0+0x66>
 8004b40:	4814      	ldr	r0, [pc, #80]	; (8004b94 <tcp_free_acked_segments.constprop.0+0xac>)
 8004b42:	464b      	mov	r3, r9
 8004b44:	f240 4257 	movw	r2, #1111	; 0x457
 8004b48:	4651      	mov	r1, sl
 8004b4a:	f004 f8a3 	bl	8008c94 <iprintf>
 8004b4e:	f8b6 3066 	ldrh.w	r3, [r6, #102]	; 0x66
 8004b52:	4a11      	ldr	r2, [pc, #68]	; (8004b98 <tcp_free_acked_segments.constprop.0+0xb0>)
 8004b54:	1b5b      	subs	r3, r3, r5
 8004b56:	8811      	ldrh	r1, [r2, #0]
 8004b58:	f8a6 3066 	strh.w	r3, [r6, #102]	; 0x66
 8004b5c:	8923      	ldrh	r3, [r4, #8]
 8004b5e:	4620      	mov	r0, r4
 8004b60:	440b      	add	r3, r1
 8004b62:	8013      	strh	r3, [r2, #0]
 8004b64:	f7ff f84c 	bl	8003c00 <tcp_seg_free>
 8004b68:	f8b6 3066 	ldrh.w	r3, [r6, #102]	; 0x66
 8004b6c:	b17b      	cbz	r3, 8004b8e <tcp_free_acked_segments.constprop.0+0xa6>
 8004b6e:	f1bb 0f00 	cmp.w	fp, #0
 8004b72:	d10c      	bne.n	8004b8e <tcp_free_acked_segments.constprop.0+0xa6>
 8004b74:	b11f      	cbz	r7, 8004b7e <tcp_free_acked_segments.constprop.0+0x96>
 8004b76:	2400      	movs	r4, #0
 8004b78:	4620      	mov	r0, r4
 8004b7a:	e8bd 8ff8 	ldmia.w	sp!, {r3, r4, r5, r6, r7, r8, r9, sl, fp, pc}
 8004b7e:	4b07      	ldr	r3, [pc, #28]	; (8004b9c <tcp_free_acked_segments.constprop.0+0xb4>)
 8004b80:	4907      	ldr	r1, [pc, #28]	; (8004ba0 <tcp_free_acked_segments.constprop.0+0xb8>)
 8004b82:	4804      	ldr	r0, [pc, #16]	; (8004b94 <tcp_free_acked_segments.constprop.0+0xac>)
 8004b84:	f240 4261 	movw	r2, #1121	; 0x461
 8004b88:	f004 f884 	bl	8008c94 <iprintf>
 8004b8c:	e7f3      	b.n	8004b76 <tcp_free_acked_segments.constprop.0+0x8e>
 8004b8e:	465c      	mov	r4, fp
 8004b90:	e7b5      	b.n	8004afe <tcp_free_acked_segments.constprop.0+0x16>
 8004b92:	bf00      	nop
 8004b94:	08009b3a 	.word	0x08009b3a
 8004b98:	200082c4 	.word	0x200082c4
 8004b9c:	0800a89b 	.word	0x0800a89b
 8004ba0:	0800a959 	.word	0x0800a959
 8004ba4:	200082ac 	.word	0x200082ac
 8004ba8:	0800a931 	.word	0x0800a931

08004bac <tcp_receive>:
 8004bac:	e92d 4ff8 	stmdb	sp!, {r3, r4, r5, r6, r7, r8, r9, sl, fp, lr}
 8004bb0:	4604      	mov	r4, r0
 8004bb2:	b930      	cbnz	r0, 8004bc2 <tcp_receive+0x16>
 8004bb4:	4b3b      	ldr	r3, [pc, #236]	; (8004ca4 <tcp_receive+0xf8>)
 8004bb6:	493c      	ldr	r1, [pc, #240]	; (8004ca8 <tcp_receive+0xfc>)
 8004bb8:	483c      	ldr	r0, [pc, #240]	; (8004cac <tcp_receive+0x100>)
 8004bba:	f240 427b 	movw	r2, #1147	; 0x47b
 8004bbe:	f004 f869 	bl	8008c94 <iprintf>
 8004bc2:	7d23      	ldrb	r3, [r4, #20]
 8004bc4:	2b03      	cmp	r3, #3
 8004bc6:	d806      	bhi.n	8004bd6 <tcp_receive+0x2a>
 8004bc8:	4b36      	ldr	r3, [pc, #216]	; (8004ca4 <tcp_receive+0xf8>)
 8004bca:	4939      	ldr	r1, [pc, #228]	; (8004cb0 <tcp_receive+0x104>)
 8004bcc:	4837      	ldr	r0, [pc, #220]	; (8004cac <tcp_receive+0x100>)
 8004bce:	f240 427c 	movw	r2, #1148	; 0x47c
 8004bd2:	f004 f85f 	bl	8008c94 <iprintf>
 8004bd6:	4a37      	ldr	r2, [pc, #220]	; (8004cb4 <tcp_receive+0x108>)
 8004bd8:	4e37      	ldr	r6, [pc, #220]	; (8004cb8 <tcp_receive+0x10c>)
 8004bda:	7812      	ldrb	r2, [r2, #0]
 8004bdc:	6833      	ldr	r3, [r6, #0]
 8004bde:	4f37      	ldr	r7, [pc, #220]	; (8004cbc <tcp_receive+0x110>)
 8004be0:	f012 0f10 	tst.w	r2, #16
 8004be4:	f000 809a 	beq.w	8004d1c <tcp_receive+0x170>
 8004be8:	e9d4 0c15 	ldrd	r0, ip, [r4, #84]	; 0x54
 8004bec:	f8df 90d4 	ldr.w	r9, [pc, #212]	; 8004cc4 <tcp_receive+0x118>
 8004bf0:	f8b4 1060 	ldrh.w	r1, [r4, #96]	; 0x60
 8004bf4:	f8d9 2000 	ldr.w	r2, [r9]
 8004bf8:	eba0 0e03 	sub.w	lr, r0, r3
 8004bfc:	f1be 0f00 	cmp.w	lr, #0
 8004c00:	db0c      	blt.n	8004c1c <tcp_receive+0x70>
 8004c02:	4298      	cmp	r0, r3
 8004c04:	d103      	bne.n	8004c0e <tcp_receive+0x62>
 8004c06:	ebac 0002 	sub.w	r0, ip, r2
 8004c0a:	2800      	cmp	r0, #0
 8004c0c:	db06      	blt.n	8004c1c <tcp_receive+0x70>
 8004c0e:	4594      	cmp	ip, r2
 8004c10:	d113      	bne.n	8004c3a <tcp_receive+0x8e>
 8004c12:	482b      	ldr	r0, [pc, #172]	; (8004cc0 <tcp_receive+0x114>)
 8004c14:	6800      	ldr	r0, [r0, #0]
 8004c16:	89c0      	ldrh	r0, [r0, #14]
 8004c18:	4288      	cmp	r0, r1
 8004c1a:	d90e      	bls.n	8004c3a <tcp_receive+0x8e>
 8004c1c:	4828      	ldr	r0, [pc, #160]	; (8004cc0 <tcp_receive+0x114>)
 8004c1e:	f8b4 8062 	ldrh.w	r8, [r4, #98]	; 0x62
 8004c22:	6800      	ldr	r0, [r0, #0]
 8004c24:	89c0      	ldrh	r0, [r0, #14]
 8004c26:	f8a4 0060 	strh.w	r0, [r4, #96]	; 0x60
 8004c2a:	fa1f fe80 	uxth.w	lr, r0
 8004c2e:	e9c4 3215 	strd	r3, r2, [r4, #84]	; 0x54
 8004c32:	45f0      	cmp	r8, lr
 8004c34:	bf38      	it	cc
 8004c36:	f8a4 0062 	strhcc.w	r0, [r4, #98]	; 0x62
 8004c3a:	6c60      	ldr	r0, [r4, #68]	; 0x44
 8004c3c:	1a13      	subs	r3, r2, r0
 8004c3e:	2b00      	cmp	r3, #0
 8004c40:	f300 817a 	bgt.w	8004f38 <tcp_receive+0x38c>
 8004c44:	883b      	ldrh	r3, [r7, #0]
 8004c46:	2b00      	cmp	r3, #0
 8004c48:	f040 8172 	bne.w	8004f30 <tcp_receive+0x384>
 8004c4c:	f8b4 3060 	ldrh.w	r3, [r4, #96]	; 0x60
 8004c50:	6da5      	ldr	r5, [r4, #88]	; 0x58
 8004c52:	4461      	add	r1, ip
 8004c54:	442b      	add	r3, r5
 8004c56:	428b      	cmp	r3, r1
 8004c58:	f040 816a 	bne.w	8004f30 <tcp_receive+0x384>
 8004c5c:	f9b4 3030 	ldrsh.w	r3, [r4, #48]	; 0x30
 8004c60:	2b00      	cmp	r3, #0
 8004c62:	f2c0 8165 	blt.w	8004f30 <tcp_receive+0x384>
 8004c66:	4290      	cmp	r0, r2
 8004c68:	f040 8162 	bne.w	8004f30 <tcp_receive+0x384>
 8004c6c:	f894 3043 	ldrb.w	r3, [r4, #67]	; 0x43
 8004c70:	2bff      	cmp	r3, #255	; 0xff
 8004c72:	bf1c      	itt	ne
 8004c74:	3301      	addne	r3, #1
 8004c76:	f884 3043 	strbne.w	r3, [r4, #67]	; 0x43
 8004c7a:	f894 3043 	ldrb.w	r3, [r4, #67]	; 0x43
 8004c7e:	2b03      	cmp	r3, #3
 8004c80:	d922      	bls.n	8004cc8 <tcp_receive+0x11c>
 8004c82:	f8b4 2048 	ldrh.w	r2, [r4, #72]	; 0x48
 8004c86:	8e63      	ldrh	r3, [r4, #50]	; 0x32
 8004c88:	4413      	add	r3, r2
 8004c8a:	b29b      	uxth	r3, r3
 8004c8c:	f64f 71ff 	movw	r1, #65535	; 0xffff
 8004c90:	429a      	cmp	r2, r3
 8004c92:	bf88      	it	hi
 8004c94:	460b      	movhi	r3, r1
 8004c96:	f8a4 3048 	strh.w	r3, [r4, #72]	; 0x48
 8004c9a:	4620      	mov	r0, r4
 8004c9c:	f001 ff7c 	bl	8006b98 <tcp_rexmit_fast>
 8004ca0:	e013      	b.n	8004cca <tcp_receive+0x11e>
 8004ca2:	bf00      	nop
 8004ca4:	0800a89b 	.word	0x0800a89b
 8004ca8:	0800a979 	.word	0x0800a979
 8004cac:	08009b3a 	.word	0x08009b3a
 8004cb0:	0800a992 	.word	0x0800a992
 8004cb4:	200082b0 	.word	0x200082b0
 8004cb8:	200082d0 	.word	0x200082d0
 8004cbc:	200082ea 	.word	0x200082ea
 8004cc0:	200082dc 	.word	0x200082dc
 8004cc4:	200082ac 	.word	0x200082ac
 8004cc8:	d0e7      	beq.n	8004c9a <tcp_receive+0xee>
 8004cca:	6b63      	ldr	r3, [r4, #52]	; 0x34
 8004ccc:	b333      	cbz	r3, 8004d1c <tcp_receive+0x170>
 8004cce:	6ba2      	ldr	r2, [r4, #56]	; 0x38
 8004cd0:	f8d9 1000 	ldr.w	r1, [r9]
 8004cd4:	1a52      	subs	r2, r2, r1
 8004cd6:	2a00      	cmp	r2, #0
 8004cd8:	da20      	bge.n	8004d1c <tcp_receive+0x170>
 8004cda:	4ab6      	ldr	r2, [pc, #728]	; (8004fb4 <tcp_receive+0x408>)
 8004cdc:	f9b4 c03c 	ldrsh.w	ip, [r4, #60]	; 0x3c
 8004ce0:	8815      	ldrh	r5, [r2, #0]
 8004ce2:	b29b      	uxth	r3, r3
 8004ce4:	f3cc 01cf 	ubfx	r1, ip, #3, #16
 8004ce8:	1aea      	subs	r2, r5, r3
 8004cea:	1a52      	subs	r2, r2, r1
 8004cec:	b210      	sxth	r0, r2
 8004cee:	2800      	cmp	r0, #0
 8004cf0:	bfbc      	itt	lt
 8004cf2:	1b5b      	sublt	r3, r3, r5
 8004cf4:	18c9      	addlt	r1, r1, r3
 8004cf6:	f9b4 303e 	ldrsh.w	r3, [r4, #62]	; 0x3e
 8004cfa:	bfb8      	it	lt
 8004cfc:	b208      	sxthlt	r0, r1
 8004cfe:	eba3 03a3 	sub.w	r3, r3, r3, asr #2
 8004d02:	fa1c f282 	uxtah	r2, ip, r2
 8004d06:	4403      	add	r3, r0
 8004d08:	b212      	sxth	r2, r2
 8004d0a:	b29b      	uxth	r3, r3
 8004d0c:	87e3      	strh	r3, [r4, #62]	; 0x3e
 8004d0e:	eb03 03e2 	add.w	r3, r3, r2, asr #3
 8004d12:	f8a4 3040 	strh.w	r3, [r4, #64]	; 0x40
 8004d16:	2300      	movs	r3, #0
 8004d18:	87a2      	strh	r2, [r4, #60]	; 0x3c
 8004d1a:	6363      	str	r3, [r4, #52]	; 0x34
 8004d1c:	8838      	ldrh	r0, [r7, #0]
 8004d1e:	6833      	ldr	r3, [r6, #0]
 8004d20:	6a62      	ldr	r2, [r4, #36]	; 0x24
 8004d22:	2800      	cmp	r0, #0
 8004d24:	f000 835b 	beq.w	80053de <tcp_receive+0x832>
 8004d28:	7d21      	ldrb	r1, [r4, #20]
 8004d2a:	2906      	cmp	r1, #6
 8004d2c:	f200 8357 	bhi.w	80053de <tcp_receive+0x832>
 8004d30:	1ad5      	subs	r5, r2, r3
 8004d32:	2d01      	cmp	r5, #1
 8004d34:	f100 81a9 	bmi.w	800508a <tcp_receive+0x4de>
 8004d38:	f1c3 0101 	rsb	r1, r3, #1
 8004d3c:	1a09      	subs	r1, r1, r0
 8004d3e:	4411      	add	r1, r2
 8004d40:	2900      	cmp	r1, #0
 8004d42:	f300 81a2 	bgt.w	800508a <tcp_receive+0x4de>
 8004d46:	f8df 9284 	ldr.w	r9, [pc, #644]	; 8004fcc <tcp_receive+0x420>
 8004d4a:	f8d9 8004 	ldr.w	r8, [r9, #4]
 8004d4e:	f1b8 0f00 	cmp.w	r8, #0
 8004d52:	d106      	bne.n	8004d62 <tcp_receive+0x1b6>
 8004d54:	4b98      	ldr	r3, [pc, #608]	; (8004fb8 <tcp_receive+0x40c>)
 8004d56:	4999      	ldr	r1, [pc, #612]	; (8004fbc <tcp_receive+0x410>)
 8004d58:	4899      	ldr	r0, [pc, #612]	; (8004fc0 <tcp_receive+0x414>)
 8004d5a:	f240 5294 	movw	r2, #1428	; 0x594
 8004d5e:	f003 ff99 	bl	8008c94 <iprintf>
 8004d62:	f64f 73fe 	movw	r3, #65534	; 0xfffe
 8004d66:	429d      	cmp	r5, r3
 8004d68:	d906      	bls.n	8004d78 <tcp_receive+0x1cc>
 8004d6a:	4b93      	ldr	r3, [pc, #588]	; (8004fb8 <tcp_receive+0x40c>)
 8004d6c:	4995      	ldr	r1, [pc, #596]	; (8004fc4 <tcp_receive+0x418>)
 8004d6e:	4894      	ldr	r0, [pc, #592]	; (8004fc0 <tcp_receive+0x414>)
 8004d70:	f240 5295 	movw	r2, #1429	; 0x595
 8004d74:	f003 ff8e 	bl	8008c94 <iprintf>
 8004d78:	f8d9 3004 	ldr.w	r3, [r9, #4]
 8004d7c:	891b      	ldrh	r3, [r3, #8]
 8004d7e:	b2ad      	uxth	r5, r5
 8004d80:	42ab      	cmp	r3, r5
 8004d82:	d206      	bcs.n	8004d92 <tcp_receive+0x1e6>
 8004d84:	4b8c      	ldr	r3, [pc, #560]	; (8004fb8 <tcp_receive+0x40c>)
 8004d86:	4990      	ldr	r1, [pc, #576]	; (8004fc8 <tcp_receive+0x41c>)
 8004d88:	488d      	ldr	r0, [pc, #564]	; (8004fc0 <tcp_receive+0x414>)
 8004d8a:	f240 5297 	movw	r2, #1431	; 0x597
 8004d8e:	f003 ff81 	bl	8008c94 <iprintf>
 8004d92:	f8b9 3008 	ldrh.w	r3, [r9, #8]
 8004d96:	1b5b      	subs	r3, r3, r5
 8004d98:	f8a9 3008 	strh.w	r3, [r9, #8]
 8004d9c:	f8d9 3004 	ldr.w	r3, [r9, #4]
 8004da0:	891b      	ldrh	r3, [r3, #8]
 8004da2:	1b5b      	subs	r3, r3, r5
 8004da4:	b29b      	uxth	r3, r3
 8004da6:	2100      	movs	r1, #0
 8004da8:	f8b8 200a 	ldrh.w	r2, [r8, #10]
 8004dac:	42aa      	cmp	r2, r5
 8004dae:	f0c0 8163 	bcc.w	8005078 <tcp_receive+0x4cc>
 8004db2:	4629      	mov	r1, r5
 8004db4:	4640      	mov	r0, r8
 8004db6:	f7fe fac9 	bl	800334c <pbuf_remove_header>
 8004dba:	f8d9 200c 	ldr.w	r2, [r9, #12]
 8004dbe:	6a63      	ldr	r3, [r4, #36]	; 0x24
 8004dc0:	6033      	str	r3, [r6, #0]
 8004dc2:	6053      	str	r3, [r2, #4]
 8004dc4:	6833      	ldr	r3, [r6, #0]
 8004dc6:	6a62      	ldr	r2, [r4, #36]	; 0x24
 8004dc8:	1a99      	subs	r1, r3, r2
 8004dca:	2900      	cmp	r1, #0
 8004dcc:	f2c0 8232 	blt.w	8005234 <tcp_receive+0x688>
 8004dd0:	8d25      	ldrh	r5, [r4, #40]	; 0x28
 8004dd2:	1c58      	adds	r0, r3, #1
 8004dd4:	1a81      	subs	r1, r0, r2
 8004dd6:	1b49      	subs	r1, r1, r5
 8004dd8:	2900      	cmp	r1, #0
 8004dda:	f300 822b 	bgt.w	8005234 <tcp_receive+0x688>
 8004dde:	4293      	cmp	r3, r2
 8004de0:	f040 8222 	bne.w	8005228 <tcp_receive+0x67c>
 8004de4:	4d79      	ldr	r5, [pc, #484]	; (8004fcc <tcp_receive+0x420>)
 8004de6:	68eb      	ldr	r3, [r5, #12]
 8004de8:	f8b5 8008 	ldrh.w	r8, [r5, #8]
 8004dec:	8998      	ldrh	r0, [r3, #12]
 8004dee:	f7fd fda2 	bl	8002936 <lwip_htons>
 8004df2:	f010 0003 	ands.w	r0, r0, #3
 8004df6:	bf18      	it	ne
 8004df8:	2001      	movne	r0, #1
 8004dfa:	8d22      	ldrh	r2, [r4, #40]	; 0x28
 8004dfc:	eb08 0300 	add.w	r3, r8, r0
 8004e00:	b29b      	uxth	r3, r3
 8004e02:	429a      	cmp	r2, r3
 8004e04:	803b      	strh	r3, [r7, #0]
 8004e06:	d242      	bcs.n	8004e8e <tcp_receive+0x2e2>
 8004e08:	68eb      	ldr	r3, [r5, #12]
 8004e0a:	8998      	ldrh	r0, [r3, #12]
 8004e0c:	f7fd fd93 	bl	8002936 <lwip_htons>
 8004e10:	07c2      	lsls	r2, r0, #31
 8004e12:	d50f      	bpl.n	8004e34 <tcp_receive+0x288>
 8004e14:	68eb      	ldr	r3, [r5, #12]
 8004e16:	f8b3 800c 	ldrh.w	r8, [r3, #12]
 8004e1a:	4640      	mov	r0, r8
 8004e1c:	f7fd fd8b 	bl	8002936 <lwip_htons>
 8004e20:	f000 003e 	and.w	r0, r0, #62	; 0x3e
 8004e24:	f7fd fd87 	bl	8002936 <lwip_htons>
 8004e28:	f428 587c 	bic.w	r8, r8, #16128	; 0x3f00
 8004e2c:	68eb      	ldr	r3, [r5, #12]
 8004e2e:	ea40 0008 	orr.w	r0, r0, r8
 8004e32:	8198      	strh	r0, [r3, #12]
 8004e34:	8d23      	ldrh	r3, [r4, #40]	; 0x28
 8004e36:	812b      	strh	r3, [r5, #8]
 8004e38:	68eb      	ldr	r3, [r5, #12]
 8004e3a:	8998      	ldrh	r0, [r3, #12]
 8004e3c:	f7fd fd7b 	bl	8002936 <lwip_htons>
 8004e40:	0783      	lsls	r3, r0, #30
 8004e42:	bf48      	it	mi
 8004e44:	892b      	ldrhmi	r3, [r5, #8]
 8004e46:	6868      	ldr	r0, [r5, #4]
 8004e48:	bf44      	itt	mi
 8004e4a:	f103 33ff 	addmi.w	r3, r3, #4294967295
 8004e4e:	812b      	strhmi	r3, [r5, #8]
 8004e50:	8929      	ldrh	r1, [r5, #8]
 8004e52:	f7fe fb93 	bl	800357c <pbuf_realloc>
 8004e56:	68eb      	ldr	r3, [r5, #12]
 8004e58:	f8b5 8008 	ldrh.w	r8, [r5, #8]
 8004e5c:	8998      	ldrh	r0, [r3, #12]
 8004e5e:	f7fd fd6a 	bl	8002936 <lwip_htons>
 8004e62:	f010 0003 	ands.w	r0, r0, #3
 8004e66:	bf18      	it	ne
 8004e68:	2001      	movne	r0, #1
 8004e6a:	6832      	ldr	r2, [r6, #0]
 8004e6c:	6a61      	ldr	r1, [r4, #36]	; 0x24
 8004e6e:	eb08 0300 	add.w	r3, r8, r0
 8004e72:	b29b      	uxth	r3, r3
 8004e74:	803b      	strh	r3, [r7, #0]
 8004e76:	4413      	add	r3, r2
 8004e78:	8d22      	ldrh	r2, [r4, #40]	; 0x28
 8004e7a:	440a      	add	r2, r1
 8004e7c:	4293      	cmp	r3, r2
 8004e7e:	d006      	beq.n	8004e8e <tcp_receive+0x2e2>
 8004e80:	4b4d      	ldr	r3, [pc, #308]	; (8004fb8 <tcp_receive+0x40c>)
 8004e82:	4953      	ldr	r1, [pc, #332]	; (8004fd0 <tcp_receive+0x424>)
 8004e84:	484e      	ldr	r0, [pc, #312]	; (8004fc0 <tcp_receive+0x414>)
 8004e86:	f240 52cb 	movw	r2, #1483	; 0x5cb
 8004e8a:	f003 ff03 	bl	8008c94 <iprintf>
 8004e8e:	6f63      	ldr	r3, [r4, #116]	; 0x74
 8004e90:	2b00      	cmp	r3, #0
 8004e92:	f000 8109 	beq.w	80050a8 <tcp_receive+0x4fc>
 8004e96:	68eb      	ldr	r3, [r5, #12]
 8004e98:	8998      	ldrh	r0, [r3, #12]
 8004e9a:	f7fd fd4c 	bl	8002936 <lwip_htons>
 8004e9e:	07c0      	lsls	r0, r0, #31
 8004ea0:	f100 80ff 	bmi.w	80050a2 <tcp_receive+0x4f6>
 8004ea4:	f8d4 8074 	ldr.w	r8, [r4, #116]	; 0x74
 8004ea8:	6830      	ldr	r0, [r6, #0]
 8004eaa:	883b      	ldrh	r3, [r7, #0]
 8004eac:	4403      	add	r3, r0
 8004eae:	f1b8 0f00 	cmp.w	r8, #0
 8004eb2:	d03a      	beq.n	8004f2a <tcp_receive+0x37e>
 8004eb4:	f8d8 c00c 	ldr.w	ip, [r8, #12]
 8004eb8:	f8b8 1008 	ldrh.w	r1, [r8, #8]
 8004ebc:	f8dc 2004 	ldr.w	r2, [ip, #4]
 8004ec0:	4411      	add	r1, r2
 8004ec2:	1a59      	subs	r1, r3, r1
 8004ec4:	2900      	cmp	r1, #0
 8004ec6:	f280 811c 	bge.w	8005102 <tcp_receive+0x556>
 8004eca:	1a9b      	subs	r3, r3, r2
 8004ecc:	2b00      	cmp	r3, #0
 8004ece:	dd2c      	ble.n	8004f2a <tcp_receive+0x37e>
 8004ed0:	68eb      	ldr	r3, [r5, #12]
 8004ed2:	1a12      	subs	r2, r2, r0
 8004ed4:	812a      	strh	r2, [r5, #8]
 8004ed6:	8998      	ldrh	r0, [r3, #12]
 8004ed8:	f7fd fd2d 	bl	8002936 <lwip_htons>
 8004edc:	0783      	lsls	r3, r0, #30
 8004ede:	bf48      	it	mi
 8004ee0:	892b      	ldrhmi	r3, [r5, #8]
 8004ee2:	6868      	ldr	r0, [r5, #4]
 8004ee4:	bf44      	itt	mi
 8004ee6:	f103 33ff 	addmi.w	r3, r3, #4294967295
 8004eea:	812b      	strhmi	r3, [r5, #8]
 8004eec:	8929      	ldrh	r1, [r5, #8]
 8004eee:	f7fe fb45 	bl	800357c <pbuf_realloc>
 8004ef2:	68eb      	ldr	r3, [r5, #12]
 8004ef4:	f8b5 9008 	ldrh.w	r9, [r5, #8]
 8004ef8:	8998      	ldrh	r0, [r3, #12]
 8004efa:	f7fd fd1c 	bl	8002936 <lwip_htons>
 8004efe:	f010 0003 	ands.w	r0, r0, #3
 8004f02:	bf18      	it	ne
 8004f04:	2001      	movne	r0, #1
 8004f06:	6832      	ldr	r2, [r6, #0]
 8004f08:	eb09 0300 	add.w	r3, r9, r0
 8004f0c:	b29b      	uxth	r3, r3
 8004f0e:	803b      	strh	r3, [r7, #0]
 8004f10:	4413      	add	r3, r2
 8004f12:	f8d8 200c 	ldr.w	r2, [r8, #12]
 8004f16:	6852      	ldr	r2, [r2, #4]
 8004f18:	4293      	cmp	r3, r2
 8004f1a:	d006      	beq.n	8004f2a <tcp_receive+0x37e>
 8004f1c:	4b26      	ldr	r3, [pc, #152]	; (8004fb8 <tcp_receive+0x40c>)
 8004f1e:	492d      	ldr	r1, [pc, #180]	; (8004fd4 <tcp_receive+0x428>)
 8004f20:	4827      	ldr	r0, [pc, #156]	; (8004fc0 <tcp_receive+0x414>)
 8004f22:	f240 52fc 	movw	r2, #1532	; 0x5fc
 8004f26:	f003 feb5 	bl	8008c94 <iprintf>
 8004f2a:	f8c4 8074 	str.w	r8, [r4, #116]	; 0x74
 8004f2e:	e0bb      	b.n	80050a8 <tcp_receive+0x4fc>
 8004f30:	2300      	movs	r3, #0
 8004f32:	f884 3043 	strb.w	r3, [r4, #67]	; 0x43
 8004f36:	e6c8      	b.n	8004cca <tcp_receive+0x11e>
 8004f38:	6d21      	ldr	r1, [r4, #80]	; 0x50
 8004f3a:	1a51      	subs	r1, r2, r1
 8004f3c:	2900      	cmp	r1, #0
 8004f3e:	f300 8097 	bgt.w	8005070 <tcp_receive+0x4c4>
 8004f42:	8b61      	ldrh	r1, [r4, #26]
 8004f44:	0748      	lsls	r0, r1, #29
 8004f46:	d509      	bpl.n	8004f5c <tcp_receive+0x3b0>
 8004f48:	f021 0104 	bic.w	r1, r1, #4
 8004f4c:	8361      	strh	r1, [r4, #26]
 8004f4e:	f8b4 104a 	ldrh.w	r1, [r4, #74]	; 0x4a
 8004f52:	f8a4 1048 	strh.w	r1, [r4, #72]	; 0x48
 8004f56:	2100      	movs	r1, #0
 8004f58:	f8a4 106a 	strh.w	r1, [r4, #106]	; 0x6a
 8004f5c:	f9b4 003c 	ldrsh.w	r0, [r4, #60]	; 0x3c
 8004f60:	8fe1      	ldrh	r1, [r4, #62]	; 0x3e
 8004f62:	6462      	str	r2, [r4, #68]	; 0x44
 8004f64:	7d22      	ldrb	r2, [r4, #20]
 8004f66:	eb01 01e0 	add.w	r1, r1, r0, asr #3
 8004f6a:	f8a4 1040 	strh.w	r1, [r4, #64]	; 0x40
 8004f6e:	2a03      	cmp	r2, #3
 8004f70:	f04f 0100 	mov.w	r1, #0
 8004f74:	f8a4 1042 	strh.w	r1, [r4, #66]	; 0x42
 8004f78:	d938      	bls.n	8004fec <tcp_receive+0x440>
 8004f7a:	f8b4 2048 	ldrh.w	r2, [r4, #72]	; 0x48
 8004f7e:	f8b4 104a 	ldrh.w	r1, [r4, #74]	; 0x4a
 8004f82:	4291      	cmp	r1, r2
 8004f84:	b29b      	uxth	r3, r3
 8004f86:	d927      	bls.n	8004fd8 <tcp_receive+0x42c>
 8004f88:	8b61      	ldrh	r1, [r4, #26]
 8004f8a:	f411 6f00 	tst.w	r1, #2048	; 0x800
 8004f8e:	8e61      	ldrh	r1, [r4, #50]	; 0x32
 8004f90:	bf14      	ite	ne
 8004f92:	2001      	movne	r0, #1
 8004f94:	2002      	moveq	r0, #2
 8004f96:	fb11 f100 	smulbb	r1, r1, r0
 8004f9a:	b289      	uxth	r1, r1
 8004f9c:	4299      	cmp	r1, r3
 8004f9e:	bf94      	ite	ls
 8004fa0:	1850      	addls	r0, r2, r1
 8004fa2:	18d0      	addhi	r0, r2, r3
 8004fa4:	b283      	uxth	r3, r0
 8004fa6:	429a      	cmp	r2, r3
 8004fa8:	d901      	bls.n	8004fae <tcp_receive+0x402>
 8004faa:	f64f 73ff 	movw	r3, #65535	; 0xffff
 8004fae:	f8a4 3048 	strh.w	r3, [r4, #72]	; 0x48
 8004fb2:	e01b      	b.n	8004fec <tcp_receive+0x440>
 8004fb4:	200082a0 	.word	0x200082a0
 8004fb8:	0800a89b 	.word	0x0800a89b
 8004fbc:	0800a9ab 	.word	0x0800a9ab
 8004fc0:	08009b3a 	.word	0x08009b3a
 8004fc4:	0800a9bb 	.word	0x0800a9bb
 8004fc8:	0800a9ca 	.word	0x0800a9ca
 8004fcc:	200082b4 	.word	0x200082b4
 8004fd0:	0800a9da 	.word	0x0800a9da
 8004fd4:	0800aa11 	.word	0x0800aa11
 8004fd8:	f8b4 106a 	ldrh.w	r1, [r4, #106]	; 0x6a
 8004fdc:	440b      	add	r3, r1
 8004fde:	b29b      	uxth	r3, r3
 8004fe0:	4299      	cmp	r1, r3
 8004fe2:	d82c      	bhi.n	800503e <tcp_receive+0x492>
 8004fe4:	429a      	cmp	r2, r3
 8004fe6:	d92c      	bls.n	8005042 <tcp_receive+0x496>
 8004fe8:	f8a4 306a 	strh.w	r3, [r4, #106]	; 0x6a
 8004fec:	e9d4 211b 	ldrd	r2, r1, [r4, #108]	; 0x6c
 8004ff0:	4620      	mov	r0, r4
 8004ff2:	f7ff fd79 	bl	8004ae8 <tcp_free_acked_segments.constprop.0>
 8004ff6:	6ee1      	ldr	r1, [r4, #108]	; 0x6c
 8004ff8:	6720      	str	r0, [r4, #112]	; 0x70
 8004ffa:	4602      	mov	r2, r0
 8004ffc:	4620      	mov	r0, r4
 8004ffe:	f7ff fd73 	bl	8004ae8 <tcp_free_acked_segments.constprop.0>
 8005002:	6f22      	ldr	r2, [r4, #112]	; 0x70
 8005004:	66e0      	str	r0, [r4, #108]	; 0x6c
 8005006:	fab2 f382 	clz	r3, r2
 800500a:	095b      	lsrs	r3, r3, #5
 800500c:	425b      	negs	r3, r3
 800500e:	8623      	strh	r3, [r4, #48]	; 0x30
 8005010:	2300      	movs	r3, #0
 8005012:	7723      	strb	r3, [r4, #28]
 8005014:	b908      	cbnz	r0, 800501a <tcp_receive+0x46e>
 8005016:	f8a4 0068 	strh.w	r0, [r4, #104]	; 0x68
 800501a:	499f      	ldr	r1, [pc, #636]	; (8005298 <tcp_receive+0x6ec>)
 800501c:	f8b4 3064 	ldrh.w	r3, [r4, #100]	; 0x64
 8005020:	8809      	ldrh	r1, [r1, #0]
 8005022:	440b      	add	r3, r1
 8005024:	f8a4 3064 	strh.w	r3, [r4, #100]	; 0x64
 8005028:	8b63      	ldrh	r3, [r4, #26]
 800502a:	0519      	lsls	r1, r3, #20
 800502c:	f57f ae4d 	bpl.w	8004cca <tcp_receive+0x11e>
 8005030:	b9d2      	cbnz	r2, 8005068 <tcp_receive+0x4bc>
 8005032:	b968      	cbnz	r0, 8005050 <tcp_receive+0x4a4>
 8005034:	8b63      	ldrh	r3, [r4, #26]
 8005036:	f423 6300 	bic.w	r3, r3, #2048	; 0x800
 800503a:	8363      	strh	r3, [r4, #26]
 800503c:	e645      	b.n	8004cca <tcp_receive+0x11e>
 800503e:	f64f 73ff 	movw	r3, #65535	; 0xffff
 8005042:	1a9b      	subs	r3, r3, r2
 8005044:	f8a4 306a 	strh.w	r3, [r4, #106]	; 0x6a
 8005048:	8e63      	ldrh	r3, [r4, #50]	; 0x32
 800504a:	4413      	add	r3, r2
 800504c:	b29b      	uxth	r3, r3
 800504e:	e7aa      	b.n	8004fa6 <tcp_receive+0x3fa>
 8005050:	f8d4 804c 	ldr.w	r8, [r4, #76]	; 0x4c
 8005054:	68c3      	ldr	r3, [r0, #12]
 8005056:	6858      	ldr	r0, [r3, #4]
 8005058:	f7fd fc70 	bl	800293c <lwip_htonl>
 800505c:	eba8 0000 	sub.w	r0, r8, r0
 8005060:	2800      	cmp	r0, #0
 8005062:	f73f ae32 	bgt.w	8004cca <tcp_receive+0x11e>
 8005066:	e7e5      	b.n	8005034 <tcp_receive+0x488>
 8005068:	f8d4 804c 	ldr.w	r8, [r4, #76]	; 0x4c
 800506c:	68d3      	ldr	r3, [r2, #12]
 800506e:	e7f2      	b.n	8005056 <tcp_receive+0x4aa>
 8005070:	4620      	mov	r0, r4
 8005072:	f001 fe0b 	bl	8006c8c <tcp_send_empty_ack>
 8005076:	e628      	b.n	8004cca <tcp_receive+0x11e>
 8005078:	1aaa      	subs	r2, r5, r2
 800507a:	f8a8 3008 	strh.w	r3, [r8, #8]
 800507e:	f8a8 100a 	strh.w	r1, [r8, #10]
 8005082:	b295      	uxth	r5, r2
 8005084:	f8d8 8000 	ldr.w	r8, [r8]
 8005088:	e68e      	b.n	8004da8 <tcp_receive+0x1fc>
 800508a:	1a9b      	subs	r3, r3, r2
 800508c:	2b00      	cmp	r3, #0
 800508e:	bfbe      	ittt	lt
 8005090:	8b63      	ldrhlt	r3, [r4, #26]
 8005092:	f043 0302 	orrlt.w	r3, r3, #2
 8005096:	8363      	strhlt	r3, [r4, #26]
 8005098:	e694      	b.n	8004dc4 <tcp_receive+0x218>
 800509a:	6803      	ldr	r3, [r0, #0]
 800509c:	6763      	str	r3, [r4, #116]	; 0x74
 800509e:	f7fe fdaf 	bl	8003c00 <tcp_seg_free>
 80050a2:	6f60      	ldr	r0, [r4, #116]	; 0x74
 80050a4:	2800      	cmp	r0, #0
 80050a6:	d1f8      	bne.n	800509a <tcp_receive+0x4ee>
 80050a8:	883a      	ldrh	r2, [r7, #0]
 80050aa:	6833      	ldr	r3, [r6, #0]
 80050ac:	4413      	add	r3, r2
 80050ae:	6263      	str	r3, [r4, #36]	; 0x24
 80050b0:	8d23      	ldrh	r3, [r4, #40]	; 0x28
 80050b2:	4293      	cmp	r3, r2
 80050b4:	d206      	bcs.n	80050c4 <tcp_receive+0x518>
 80050b6:	4b79      	ldr	r3, [pc, #484]	; (800529c <tcp_receive+0x6f0>)
 80050b8:	4979      	ldr	r1, [pc, #484]	; (80052a0 <tcp_receive+0x6f4>)
 80050ba:	487a      	ldr	r0, [pc, #488]	; (80052a4 <tcp_receive+0x6f8>)
 80050bc:	f240 6207 	movw	r2, #1543	; 0x607
 80050c0:	f003 fde8 	bl	8008c94 <iprintf>
 80050c4:	8d23      	ldrh	r3, [r4, #40]	; 0x28
 80050c6:	883a      	ldrh	r2, [r7, #0]
 80050c8:	1a9b      	subs	r3, r3, r2
 80050ca:	8523      	strh	r3, [r4, #40]	; 0x28
 80050cc:	4620      	mov	r0, r4
 80050ce:	f7fe fd23 	bl	8003b18 <tcp_update_rcv_ann_wnd>
 80050d2:	686b      	ldr	r3, [r5, #4]
 80050d4:	891a      	ldrh	r2, [r3, #8]
 80050d6:	b11a      	cbz	r2, 80050e0 <tcp_receive+0x534>
 80050d8:	4a73      	ldr	r2, [pc, #460]	; (80052a8 <tcp_receive+0x6fc>)
 80050da:	6013      	str	r3, [r2, #0]
 80050dc:	2300      	movs	r3, #0
 80050de:	606b      	str	r3, [r5, #4]
 80050e0:	68eb      	ldr	r3, [r5, #12]
 80050e2:	8998      	ldrh	r0, [r3, #12]
 80050e4:	f7fd fc27 	bl	8002936 <lwip_htons>
 80050e8:	07c5      	lsls	r5, r0, #31
 80050ea:	d504      	bpl.n	80050f6 <tcp_receive+0x54a>
 80050ec:	4a6f      	ldr	r2, [pc, #444]	; (80052ac <tcp_receive+0x700>)
 80050ee:	7813      	ldrb	r3, [r2, #0]
 80050f0:	f043 0320 	orr.w	r3, r3, #32
 80050f4:	7013      	strb	r3, [r2, #0]
 80050f6:	4f69      	ldr	r7, [pc, #420]	; (800529c <tcp_receive+0x6f0>)
 80050f8:	f8df 81b8 	ldr.w	r8, [pc, #440]	; 80052b4 <tcp_receive+0x708>
 80050fc:	f8df 91a4 	ldr.w	r9, [pc, #420]	; 80052a4 <tcp_receive+0x6f8>
 8005100:	e07c      	b.n	80051fc <tcp_receive+0x650>
 8005102:	f8bc 000c 	ldrh.w	r0, [ip, #12]
 8005106:	f7fd fc16 	bl	8002936 <lwip_htons>
 800510a:	07c1      	lsls	r1, r0, #31
 800510c:	d51b      	bpl.n	8005146 <tcp_receive+0x59a>
 800510e:	68eb      	ldr	r3, [r5, #12]
 8005110:	8998      	ldrh	r0, [r3, #12]
 8005112:	f7fd fc10 	bl	8002936 <lwip_htons>
 8005116:	0782      	lsls	r2, r0, #30
 8005118:	d415      	bmi.n	8005146 <tcp_receive+0x59a>
 800511a:	68eb      	ldr	r3, [r5, #12]
 800511c:	2001      	movs	r0, #1
 800511e:	f8b3 900c 	ldrh.w	r9, [r3, #12]
 8005122:	f7fd fc08 	bl	8002936 <lwip_htons>
 8005126:	68eb      	ldr	r3, [r5, #12]
 8005128:	ea49 0000 	orr.w	r0, r9, r0
 800512c:	8198      	strh	r0, [r3, #12]
 800512e:	b280      	uxth	r0, r0
 8005130:	f8b5 9008 	ldrh.w	r9, [r5, #8]
 8005134:	f7fd fbff 	bl	8002936 <lwip_htons>
 8005138:	f010 0003 	ands.w	r0, r0, #3
 800513c:	bf18      	it	ne
 800513e:	2001      	movne	r0, #1
 8005140:	4481      	add	r9, r0
 8005142:	f8a7 9000 	strh.w	r9, [r7]
 8005146:	f8d8 9000 	ldr.w	r9, [r8]
 800514a:	4640      	mov	r0, r8
 800514c:	f7fe fd58 	bl	8003c00 <tcp_seg_free>
 8005150:	46c8      	mov	r8, r9
 8005152:	e6a9      	b.n	8004ea8 <tcp_receive+0x2fc>
 8005154:	6033      	str	r3, [r6, #0]
 8005156:	8990      	ldrh	r0, [r2, #12]
 8005158:	f8b5 a008 	ldrh.w	sl, [r5, #8]
 800515c:	f7fd fbeb 	bl	8002936 <lwip_htons>
 8005160:	6a63      	ldr	r3, [r4, #36]	; 0x24
 8005162:	f8b5 b008 	ldrh.w	fp, [r5, #8]
 8005166:	f010 0003 	ands.w	r0, r0, #3
 800516a:	bf18      	it	ne
 800516c:	2001      	movne	r0, #1
 800516e:	449a      	add	sl, r3
 8005170:	4450      	add	r0, sl
 8005172:	68eb      	ldr	r3, [r5, #12]
 8005174:	6260      	str	r0, [r4, #36]	; 0x24
 8005176:	8998      	ldrh	r0, [r3, #12]
 8005178:	f8b4 a028 	ldrh.w	sl, [r4, #40]	; 0x28
 800517c:	f7fd fbdb 	bl	8002936 <lwip_htons>
 8005180:	f010 0003 	ands.w	r0, r0, #3
 8005184:	bf18      	it	ne
 8005186:	2001      	movne	r0, #1
 8005188:	4458      	add	r0, fp
 800518a:	4582      	cmp	sl, r0
 800518c:	d206      	bcs.n	800519c <tcp_receive+0x5f0>
 800518e:	463b      	mov	r3, r7
 8005190:	f240 622b 	movw	r2, #1579	; 0x62b
 8005194:	4641      	mov	r1, r8
 8005196:	4648      	mov	r0, r9
 8005198:	f003 fd7c 	bl	8008c94 <iprintf>
 800519c:	68eb      	ldr	r3, [r5, #12]
 800519e:	f8b5 a008 	ldrh.w	sl, [r5, #8]
 80051a2:	8998      	ldrh	r0, [r3, #12]
 80051a4:	f7fd fbc7 	bl	8002936 <lwip_htons>
 80051a8:	f010 0003 	ands.w	r0, r0, #3
 80051ac:	8d23      	ldrh	r3, [r4, #40]	; 0x28
 80051ae:	bf18      	it	ne
 80051b0:	2001      	movne	r0, #1
 80051b2:	4450      	add	r0, sl
 80051b4:	1a1b      	subs	r3, r3, r0
 80051b6:	8523      	strh	r3, [r4, #40]	; 0x28
 80051b8:	4620      	mov	r0, r4
 80051ba:	f7fe fcad 	bl	8003b18 <tcp_update_rcv_ann_wnd>
 80051be:	6869      	ldr	r1, [r5, #4]
 80051c0:	890b      	ldrh	r3, [r1, #8]
 80051c2:	b133      	cbz	r3, 80051d2 <tcp_receive+0x626>
 80051c4:	4b38      	ldr	r3, [pc, #224]	; (80052a8 <tcp_receive+0x6fc>)
 80051c6:	6818      	ldr	r0, [r3, #0]
 80051c8:	b338      	cbz	r0, 800521a <tcp_receive+0x66e>
 80051ca:	f7fe fa4b 	bl	8003664 <pbuf_cat>
 80051ce:	2300      	movs	r3, #0
 80051d0:	606b      	str	r3, [r5, #4]
 80051d2:	68eb      	ldr	r3, [r5, #12]
 80051d4:	8998      	ldrh	r0, [r3, #12]
 80051d6:	f7fd fbae 	bl	8002936 <lwip_htons>
 80051da:	07c0      	lsls	r0, r0, #31
 80051dc:	d509      	bpl.n	80051f2 <tcp_receive+0x646>
 80051de:	4a33      	ldr	r2, [pc, #204]	; (80052ac <tcp_receive+0x700>)
 80051e0:	7813      	ldrb	r3, [r2, #0]
 80051e2:	f043 0320 	orr.w	r3, r3, #32
 80051e6:	7013      	strb	r3, [r2, #0]
 80051e8:	7d23      	ldrb	r3, [r4, #20]
 80051ea:	2b04      	cmp	r3, #4
 80051ec:	bf04      	itt	eq
 80051ee:	2307      	moveq	r3, #7
 80051f0:	7523      	strbeq	r3, [r4, #20]
 80051f2:	682b      	ldr	r3, [r5, #0]
 80051f4:	6763      	str	r3, [r4, #116]	; 0x74
 80051f6:	4628      	mov	r0, r5
 80051f8:	f7fe fd02 	bl	8003c00 <tcp_seg_free>
 80051fc:	6f65      	ldr	r5, [r4, #116]	; 0x74
 80051fe:	b125      	cbz	r5, 800520a <tcp_receive+0x65e>
 8005200:	68ea      	ldr	r2, [r5, #12]
 8005202:	6a61      	ldr	r1, [r4, #36]	; 0x24
 8005204:	6853      	ldr	r3, [r2, #4]
 8005206:	428b      	cmp	r3, r1
 8005208:	d0a4      	beq.n	8005154 <tcp_receive+0x5a8>
 800520a:	8b63      	ldrh	r3, [r4, #26]
 800520c:	07d9      	lsls	r1, r3, #31
 800520e:	d506      	bpl.n	800521e <tcp_receive+0x672>
 8005210:	f023 0301 	bic.w	r3, r3, #1
 8005214:	f043 0302 	orr.w	r3, r3, #2
 8005218:	e003      	b.n	8005222 <tcp_receive+0x676>
 800521a:	6019      	str	r1, [r3, #0]
 800521c:	e7d7      	b.n	80051ce <tcp_receive+0x622>
 800521e:	f043 0301 	orr.w	r3, r3, #1
 8005222:	8363      	strh	r3, [r4, #26]
 8005224:	e8bd 8ff8 	ldmia.w	sp!, {r3, r4, r5, r6, r7, r8, r9, sl, fp, pc}
 8005228:	6f65      	ldr	r5, [r4, #116]	; 0x74
 800522a:	b945      	cbnz	r5, 800523e <tcp_receive+0x692>
 800522c:	4820      	ldr	r0, [pc, #128]	; (80052b0 <tcp_receive+0x704>)
 800522e:	f7fe fd0d 	bl	8003c4c <tcp_seg_copy>
 8005232:	6760      	str	r0, [r4, #116]	; 0x74
 8005234:	4620      	mov	r0, r4
 8005236:	e8bd 4ff8 	ldmia.w	sp!, {r3, r4, r5, r6, r7, r8, r9, sl, fp, lr}
 800523a:	f001 bd27 	b.w	8006c8c <tcp_send_empty_ack>
 800523e:	f04f 0800 	mov.w	r8, #0
 8005242:	f103 3eff 	add.w	lr, r3, #4294967295
 8005246:	f8d5 c00c 	ldr.w	ip, [r5, #12]
 800524a:	f8dc 2004 	ldr.w	r2, [ip, #4]
 800524e:	4293      	cmp	r3, r2
 8005250:	d115      	bne.n	800527e <tcp_receive+0x6d2>
 8005252:	4817      	ldr	r0, [pc, #92]	; (80052b0 <tcp_receive+0x704>)
 8005254:	892b      	ldrh	r3, [r5, #8]
 8005256:	8902      	ldrh	r2, [r0, #8]
 8005258:	429a      	cmp	r2, r3
 800525a:	d9eb      	bls.n	8005234 <tcp_receive+0x688>
 800525c:	f7fe fcf6 	bl	8003c4c <tcp_seg_copy>
 8005260:	2800      	cmp	r0, #0
 8005262:	d0e7      	beq.n	8005234 <tcp_receive+0x688>
 8005264:	f1b8 0f00 	cmp.w	r8, #0
 8005268:	d007      	beq.n	800527a <tcp_receive+0x6ce>
 800526a:	f8c8 0000 	str.w	r0, [r8]
 800526e:	4629      	mov	r1, r5
 8005270:	f7ff fb7c 	bl	800496c <tcp_oos_insert_segment>
 8005274:	e7de      	b.n	8005234 <tcp_receive+0x688>
 8005276:	460d      	mov	r5, r1
 8005278:	e7e5      	b.n	8005246 <tcp_receive+0x69a>
 800527a:	6760      	str	r0, [r4, #116]	; 0x74
 800527c:	e7f7      	b.n	800526e <tcp_receive+0x6c2>
 800527e:	f1b8 0f00 	cmp.w	r8, #0
 8005282:	d119      	bne.n	80052b8 <tcp_receive+0x70c>
 8005284:	1a99      	subs	r1, r3, r2
 8005286:	2900      	cmp	r1, #0
 8005288:	da3d      	bge.n	8005306 <tcp_receive+0x75a>
 800528a:	4809      	ldr	r0, [pc, #36]	; (80052b0 <tcp_receive+0x704>)
 800528c:	f7fe fcde 	bl	8003c4c <tcp_seg_copy>
 8005290:	2800      	cmp	r0, #0
 8005292:	d0cf      	beq.n	8005234 <tcp_receive+0x688>
 8005294:	6760      	str	r0, [r4, #116]	; 0x74
 8005296:	e7ea      	b.n	800526e <tcp_receive+0x6c2>
 8005298:	200082c4 	.word	0x200082c4
 800529c:	0800a89b 	.word	0x0800a89b
 80052a0:	0800aa4c 	.word	0x0800aa4c
 80052a4:	08009b3a 	.word	0x08009b3a
 80052a8:	200082c8 	.word	0x200082c8
 80052ac:	200082cc 	.word	0x200082cc
 80052b0:	200082b4 	.word	0x200082b4
 80052b4:	0800aa6b 	.word	0x0800aa6b
 80052b8:	f8d8 100c 	ldr.w	r1, [r8, #12]
 80052bc:	6849      	ldr	r1, [r1, #4]
 80052be:	ebae 0101 	sub.w	r1, lr, r1
 80052c2:	2900      	cmp	r1, #0
 80052c4:	db1f      	blt.n	8005306 <tcp_receive+0x75a>
 80052c6:	1a81      	subs	r1, r0, r2
 80052c8:	2900      	cmp	r1, #0
 80052ca:	dc1c      	bgt.n	8005306 <tcp_receive+0x75a>
 80052cc:	484a      	ldr	r0, [pc, #296]	; (80053f8 <tcp_receive+0x84c>)
 80052ce:	f7fe fcbd 	bl	8003c4c <tcp_seg_copy>
 80052d2:	4607      	mov	r7, r0
 80052d4:	2800      	cmp	r0, #0
 80052d6:	d0ad      	beq.n	8005234 <tcp_receive+0x688>
 80052d8:	f8d8 300c 	ldr.w	r3, [r8, #12]
 80052dc:	6831      	ldr	r1, [r6, #0]
 80052de:	685a      	ldr	r2, [r3, #4]
 80052e0:	f8b8 3008 	ldrh.w	r3, [r8, #8]
 80052e4:	4413      	add	r3, r2
 80052e6:	1a5b      	subs	r3, r3, r1
 80052e8:	2b00      	cmp	r3, #0
 80052ea:	dd07      	ble.n	80052fc <tcp_receive+0x750>
 80052ec:	1a89      	subs	r1, r1, r2
 80052ee:	b289      	uxth	r1, r1
 80052f0:	f8d8 0004 	ldr.w	r0, [r8, #4]
 80052f4:	f8a8 1008 	strh.w	r1, [r8, #8]
 80052f8:	f7fe f940 	bl	800357c <pbuf_realloc>
 80052fc:	f8c8 7000 	str.w	r7, [r8]
 8005300:	4629      	mov	r1, r5
 8005302:	4638      	mov	r0, r7
 8005304:	e7b4      	b.n	8005270 <tcp_receive+0x6c4>
 8005306:	6829      	ldr	r1, [r5, #0]
 8005308:	46a8      	mov	r8, r5
 800530a:	2900      	cmp	r1, #0
 800530c:	d1b3      	bne.n	8005276 <tcp_receive+0x6ca>
 800530e:	1a9b      	subs	r3, r3, r2
 8005310:	2b00      	cmp	r3, #0
 8005312:	dd8f      	ble.n	8005234 <tcp_receive+0x688>
 8005314:	f8bc 000c 	ldrh.w	r0, [ip, #12]
 8005318:	f7fd fb0d 	bl	8002936 <lwip_htons>
 800531c:	07c2      	lsls	r2, r0, #31
 800531e:	d489      	bmi.n	8005234 <tcp_receive+0x688>
 8005320:	4835      	ldr	r0, [pc, #212]	; (80053f8 <tcp_receive+0x84c>)
 8005322:	f7fe fc93 	bl	8003c4c <tcp_seg_copy>
 8005326:	6028      	str	r0, [r5, #0]
 8005328:	2800      	cmp	r0, #0
 800532a:	d083      	beq.n	8005234 <tcp_receive+0x688>
 800532c:	68eb      	ldr	r3, [r5, #12]
 800532e:	6831      	ldr	r1, [r6, #0]
 8005330:	685a      	ldr	r2, [r3, #4]
 8005332:	892b      	ldrh	r3, [r5, #8]
 8005334:	4413      	add	r3, r2
 8005336:	1a5b      	subs	r3, r3, r1
 8005338:	2b00      	cmp	r3, #0
 800533a:	dd05      	ble.n	8005348 <tcp_receive+0x79c>
 800533c:	1a89      	subs	r1, r1, r2
 800533e:	b289      	uxth	r1, r1
 8005340:	6868      	ldr	r0, [r5, #4]
 8005342:	8129      	strh	r1, [r5, #8]
 8005344:	f7fe f91a 	bl	800357c <pbuf_realloc>
 8005348:	6832      	ldr	r2, [r6, #0]
 800534a:	883b      	ldrh	r3, [r7, #0]
 800534c:	4413      	add	r3, r2
 800534e:	6a62      	ldr	r2, [r4, #36]	; 0x24
 8005350:	1a9b      	subs	r3, r3, r2
 8005352:	8d22      	ldrh	r2, [r4, #40]	; 0x28
 8005354:	1a9b      	subs	r3, r3, r2
 8005356:	2b00      	cmp	r3, #0
 8005358:	f77f af6c 	ble.w	8005234 <tcp_receive+0x688>
 800535c:	682b      	ldr	r3, [r5, #0]
 800535e:	68db      	ldr	r3, [r3, #12]
 8005360:	8998      	ldrh	r0, [r3, #12]
 8005362:	f7fd fae8 	bl	8002936 <lwip_htons>
 8005366:	07c3      	lsls	r3, r0, #31
 8005368:	d511      	bpl.n	800538e <tcp_receive+0x7e2>
 800536a:	682b      	ldr	r3, [r5, #0]
 800536c:	68db      	ldr	r3, [r3, #12]
 800536e:	f8b3 800c 	ldrh.w	r8, [r3, #12]
 8005372:	4640      	mov	r0, r8
 8005374:	f7fd fadf 	bl	8002936 <lwip_htons>
 8005378:	f000 003e 	and.w	r0, r0, #62	; 0x3e
 800537c:	f7fd fadb 	bl	8002936 <lwip_htons>
 8005380:	682b      	ldr	r3, [r5, #0]
 8005382:	f428 587c 	bic.w	r8, r8, #16128	; 0x3f00
 8005386:	68db      	ldr	r3, [r3, #12]
 8005388:	ea40 0008 	orr.w	r0, r0, r8
 800538c:	8198      	strh	r0, [r3, #12]
 800538e:	6832      	ldr	r2, [r6, #0]
 8005390:	8d21      	ldrh	r1, [r4, #40]	; 0x28
 8005392:	682b      	ldr	r3, [r5, #0]
 8005394:	1a89      	subs	r1, r1, r2
 8005396:	6a62      	ldr	r2, [r4, #36]	; 0x24
 8005398:	6858      	ldr	r0, [r3, #4]
 800539a:	4411      	add	r1, r2
 800539c:	b289      	uxth	r1, r1
 800539e:	8119      	strh	r1, [r3, #8]
 80053a0:	f7fe f8ec 	bl	800357c <pbuf_realloc>
 80053a4:	682b      	ldr	r3, [r5, #0]
 80053a6:	891d      	ldrh	r5, [r3, #8]
 80053a8:	68db      	ldr	r3, [r3, #12]
 80053aa:	8998      	ldrh	r0, [r3, #12]
 80053ac:	f7fd fac3 	bl	8002936 <lwip_htons>
 80053b0:	f010 0003 	ands.w	r0, r0, #3
 80053b4:	bf18      	it	ne
 80053b6:	2001      	movne	r0, #1
 80053b8:	6832      	ldr	r2, [r6, #0]
 80053ba:	6a61      	ldr	r1, [r4, #36]	; 0x24
 80053bc:	182b      	adds	r3, r5, r0
 80053be:	b29b      	uxth	r3, r3
 80053c0:	803b      	strh	r3, [r7, #0]
 80053c2:	4413      	add	r3, r2
 80053c4:	8d22      	ldrh	r2, [r4, #40]	; 0x28
 80053c6:	440a      	add	r2, r1
 80053c8:	4293      	cmp	r3, r2
 80053ca:	f43f af33 	beq.w	8005234 <tcp_receive+0x688>
 80053ce:	4b0b      	ldr	r3, [pc, #44]	; (80053fc <tcp_receive+0x850>)
 80053d0:	490b      	ldr	r1, [pc, #44]	; (8005400 <tcp_receive+0x854>)
 80053d2:	480c      	ldr	r0, [pc, #48]	; (8005404 <tcp_receive+0x858>)
 80053d4:	f44f 62df 	mov.w	r2, #1784	; 0x6f8
 80053d8:	f003 fc5c 	bl	8008c94 <iprintf>
 80053dc:	e72a      	b.n	8005234 <tcp_receive+0x688>
 80053de:	1a99      	subs	r1, r3, r2
 80053e0:	2900      	cmp	r1, #0
 80053e2:	db06      	blt.n	80053f2 <tcp_receive+0x846>
 80053e4:	3301      	adds	r3, #1
 80053e6:	1a9b      	subs	r3, r3, r2
 80053e8:	8d22      	ldrh	r2, [r4, #40]	; 0x28
 80053ea:	1a9b      	subs	r3, r3, r2
 80053ec:	2b00      	cmp	r3, #0
 80053ee:	f77f af19 	ble.w	8005224 <tcp_receive+0x678>
 80053f2:	8b63      	ldrh	r3, [r4, #26]
 80053f4:	e70e      	b.n	8005214 <tcp_receive+0x668>
 80053f6:	bf00      	nop
 80053f8:	200082b4 	.word	0x200082b4
 80053fc:	0800a89b 	.word	0x0800a89b
 8005400:	0800a9da 	.word	0x0800a9da
 8005404:	08009b3a 	.word	0x08009b3a

08005408 <tcp_input>:
 8005408:	e92d 4ff0 	stmdb	sp!, {r4, r5, r6, r7, r8, r9, sl, fp, lr}
 800540c:	4605      	mov	r5, r0
 800540e:	b087      	sub	sp, #28
 8005410:	b928      	cbnz	r0, 800541e <tcp_input+0x16>
 8005412:	4b63      	ldr	r3, [pc, #396]	; (80055a0 <tcp_input+0x198>)
 8005414:	4963      	ldr	r1, [pc, #396]	; (80055a4 <tcp_input+0x19c>)
 8005416:	4864      	ldr	r0, [pc, #400]	; (80055a8 <tcp_input+0x1a0>)
 8005418:	2283      	movs	r2, #131	; 0x83
 800541a:	f003 fc3b 	bl	8008c94 <iprintf>
 800541e:	4e63      	ldr	r6, [pc, #396]	; (80055ac <tcp_input+0x1a4>)
 8005420:	686b      	ldr	r3, [r5, #4]
 8005422:	6033      	str	r3, [r6, #0]
 8005424:	896b      	ldrh	r3, [r5, #10]
 8005426:	2b13      	cmp	r3, #19
 8005428:	f240 80b3 	bls.w	8005592 <tcp_input+0x18a>
 800542c:	4f60      	ldr	r7, [pc, #384]	; (80055b0 <tcp_input+0x1a8>)
 800542e:	6839      	ldr	r1, [r7, #0]
 8005430:	6978      	ldr	r0, [r7, #20]
 8005432:	f002 feb0 	bl	8008196 <ip4_addr_isbroadcast_u32>
 8005436:	4604      	mov	r4, r0
 8005438:	2800      	cmp	r0, #0
 800543a:	f040 80aa 	bne.w	8005592 <tcp_input+0x18a>
 800543e:	697b      	ldr	r3, [r7, #20]
 8005440:	f003 03f0 	and.w	r3, r3, #240	; 0xf0
 8005444:	2be0      	cmp	r3, #224	; 0xe0
 8005446:	f000 80a4 	beq.w	8005592 <tcp_input+0x18a>
 800544a:	6833      	ldr	r3, [r6, #0]
 800544c:	8998      	ldrh	r0, [r3, #12]
 800544e:	f7fd fa72 	bl	8002936 <lwip_htons>
 8005452:	0a81      	lsrs	r1, r0, #10
 8005454:	f001 01fc 	and.w	r1, r1, #252	; 0xfc
 8005458:	2913      	cmp	r1, #19
 800545a:	f240 809a 	bls.w	8005592 <tcp_input+0x18a>
 800545e:	892b      	ldrh	r3, [r5, #8]
 8005460:	428b      	cmp	r3, r1
 8005462:	b28a      	uxth	r2, r1
 8005464:	f0c0 8095 	bcc.w	8005592 <tcp_input+0x18a>
 8005468:	8968      	ldrh	r0, [r5, #10]
 800546a:	f8df 8164 	ldr.w	r8, [pc, #356]	; 80055d0 <tcp_input+0x1c8>
 800546e:	f8df a164 	ldr.w	sl, [pc, #356]	; 80055d4 <tcp_input+0x1cc>
 8005472:	f8df 9164 	ldr.w	r9, [pc, #356]	; 80055d8 <tcp_input+0x1d0>
 8005476:	f8ca 4000 	str.w	r4, [sl]
 800547a:	f1a2 0314 	sub.w	r3, r2, #20
 800547e:	b29b      	uxth	r3, r3
 8005480:	4290      	cmp	r0, r2
 8005482:	f8a8 3000 	strh.w	r3, [r8]
 8005486:	d342      	bcc.n	800550e <tcp_input+0x106>
 8005488:	4628      	mov	r0, r5
 800548a:	f8a9 3000 	strh.w	r3, [r9]
 800548e:	f7fd ff5d 	bl	800334c <pbuf_remove_header>
 8005492:	6834      	ldr	r4, [r6, #0]
 8005494:	f8df b144 	ldr.w	fp, [pc, #324]	; 80055dc <tcp_input+0x1d4>
 8005498:	8820      	ldrh	r0, [r4, #0]
 800549a:	f7fd fa4c 	bl	8002936 <lwip_htons>
 800549e:	8020      	strh	r0, [r4, #0]
 80054a0:	6834      	ldr	r4, [r6, #0]
 80054a2:	8860      	ldrh	r0, [r4, #2]
 80054a4:	f7fd fa47 	bl	8002936 <lwip_htons>
 80054a8:	8060      	strh	r0, [r4, #2]
 80054aa:	6834      	ldr	r4, [r6, #0]
 80054ac:	6860      	ldr	r0, [r4, #4]
 80054ae:	f7fd fa45 	bl	800293c <lwip_htonl>
 80054b2:	4b40      	ldr	r3, [pc, #256]	; (80055b4 <tcp_input+0x1ac>)
 80054b4:	6060      	str	r0, [r4, #4]
 80054b6:	6834      	ldr	r4, [r6, #0]
 80054b8:	6018      	str	r0, [r3, #0]
 80054ba:	68a0      	ldr	r0, [r4, #8]
 80054bc:	f7fd fa3e 	bl	800293c <lwip_htonl>
 80054c0:	60a0      	str	r0, [r4, #8]
 80054c2:	6834      	ldr	r4, [r6, #0]
 80054c4:	f8cb 0000 	str.w	r0, [fp]
 80054c8:	89e0      	ldrh	r0, [r4, #14]
 80054ca:	f7fd fa34 	bl	8002936 <lwip_htons>
 80054ce:	6833      	ldr	r3, [r6, #0]
 80054d0:	81e0      	strh	r0, [r4, #14]
 80054d2:	8998      	ldrh	r0, [r3, #12]
 80054d4:	f7fd fa2f 	bl	8002936 <lwip_htons>
 80054d8:	4a37      	ldr	r2, [pc, #220]	; (80055b8 <tcp_input+0x1b0>)
 80054da:	f000 033f 	and.w	r3, r0, #63	; 0x3f
 80054de:	7013      	strb	r3, [r2, #0]
 80054e0:	0783      	lsls	r3, r0, #30
 80054e2:	892a      	ldrh	r2, [r5, #8]
 80054e4:	d14f      	bne.n	8005586 <tcp_input+0x17e>
 80054e6:	4b35      	ldr	r3, [pc, #212]	; (80055bc <tcp_input+0x1b4>)
 80054e8:	801a      	strh	r2, [r3, #0]
 80054ea:	f8df 80f4 	ldr.w	r8, [pc, #244]	; 80055e0 <tcp_input+0x1d8>
 80054ee:	4b2c      	ldr	r3, [pc, #176]	; (80055a0 <tcp_input+0x198>)
 80054f0:	f8d8 4000 	ldr.w	r4, [r8]
 80054f4:	f8df 90b0 	ldr.w	r9, [pc, #176]	; 80055a8 <tcp_input+0x1a0>
 80054f8:	f04f 0a00 	mov.w	sl, #0
 80054fc:	2c00      	cmp	r4, #0
 80054fe:	d173      	bne.n	80055e8 <tcp_input+0x1e0>
 8005500:	4b2f      	ldr	r3, [pc, #188]	; (80055c0 <tcp_input+0x1b8>)
 8005502:	f8df a0e0 	ldr.w	sl, [pc, #224]	; 80055e4 <tcp_input+0x1dc>
 8005506:	681c      	ldr	r4, [r3, #0]
 8005508:	f8df 909c 	ldr.w	r9, [pc, #156]	; 80055a8 <tcp_input+0x1a0>
 800550c:	e15a      	b.n	80057c4 <tcp_input+0x3bc>
 800550e:	682b      	ldr	r3, [r5, #0]
 8005510:	b92b      	cbnz	r3, 800551e <tcp_input+0x116>
 8005512:	4b23      	ldr	r3, [pc, #140]	; (80055a0 <tcp_input+0x198>)
 8005514:	492b      	ldr	r1, [pc, #172]	; (80055c4 <tcp_input+0x1bc>)
 8005516:	4824      	ldr	r0, [pc, #144]	; (80055a8 <tcp_input+0x1a0>)
 8005518:	22c2      	movs	r2, #194	; 0xc2
 800551a:	f003 fbbb 	bl	8008c94 <iprintf>
 800551e:	2114      	movs	r1, #20
 8005520:	4628      	mov	r0, r5
 8005522:	f7fd ff13 	bl	800334c <pbuf_remove_header>
 8005526:	896c      	ldrh	r4, [r5, #10]
 8005528:	f8a9 4000 	strh.w	r4, [r9]
 800552c:	4621      	mov	r1, r4
 800552e:	4628      	mov	r0, r5
 8005530:	f8b8 9000 	ldrh.w	r9, [r8]
 8005534:	f7fd ff0a 	bl	800334c <pbuf_remove_header>
 8005538:	6828      	ldr	r0, [r5, #0]
 800553a:	eba9 0804 	sub.w	r8, r9, r4
 800553e:	8943      	ldrh	r3, [r0, #10]
 8005540:	fa1f f888 	uxth.w	r8, r8
 8005544:	4543      	cmp	r3, r8
 8005546:	d324      	bcc.n	8005592 <tcp_input+0x18a>
 8005548:	6843      	ldr	r3, [r0, #4]
 800554a:	f8ca 3000 	str.w	r3, [sl]
 800554e:	4641      	mov	r1, r8
 8005550:	f7fd fefc 	bl	800334c <pbuf_remove_header>
 8005554:	892b      	ldrh	r3, [r5, #8]
 8005556:	441c      	add	r4, r3
 8005558:	896b      	ldrh	r3, [r5, #10]
 800555a:	eba4 0409 	sub.w	r4, r4, r9
 800555e:	812c      	strh	r4, [r5, #8]
 8005560:	b12b      	cbz	r3, 800556e <tcp_input+0x166>
 8005562:	4b0f      	ldr	r3, [pc, #60]	; (80055a0 <tcp_input+0x198>)
 8005564:	4918      	ldr	r1, [pc, #96]	; (80055c8 <tcp_input+0x1c0>)
 8005566:	4810      	ldr	r0, [pc, #64]	; (80055a8 <tcp_input+0x1a0>)
 8005568:	22df      	movs	r2, #223	; 0xdf
 800556a:	f003 fb93 	bl	8008c94 <iprintf>
 800556e:	682b      	ldr	r3, [r5, #0]
 8005570:	892a      	ldrh	r2, [r5, #8]
 8005572:	891b      	ldrh	r3, [r3, #8]
 8005574:	429a      	cmp	r2, r3
 8005576:	d08c      	beq.n	8005492 <tcp_input+0x8a>
 8005578:	4b09      	ldr	r3, [pc, #36]	; (80055a0 <tcp_input+0x198>)
 800557a:	4914      	ldr	r1, [pc, #80]	; (80055cc <tcp_input+0x1c4>)
 800557c:	480a      	ldr	r0, [pc, #40]	; (80055a8 <tcp_input+0x1a0>)
 800557e:	22e0      	movs	r2, #224	; 0xe0
 8005580:	f003 fb88 	bl	8008c94 <iprintf>
 8005584:	e785      	b.n	8005492 <tcp_input+0x8a>
 8005586:	1c53      	adds	r3, r2, #1
 8005588:	b29b      	uxth	r3, r3
 800558a:	490c      	ldr	r1, [pc, #48]	; (80055bc <tcp_input+0x1b4>)
 800558c:	429a      	cmp	r2, r3
 800558e:	800b      	strh	r3, [r1, #0]
 8005590:	d9ab      	bls.n	80054ea <tcp_input+0xe2>
 8005592:	4628      	mov	r0, r5
 8005594:	b007      	add	sp, #28
 8005596:	e8bd 4ff0 	ldmia.w	sp!, {r4, r5, r6, r7, r8, r9, sl, fp, lr}
 800559a:	f7fd bf0b 	b.w	80033b4 <pbuf_free>
 800559e:	bf00      	nop
 80055a0:	0800a89b 	.word	0x0800a89b
 80055a4:	0800aa90 	.word	0x0800aa90
 80055a8:	08009b3a 	.word	0x08009b3a
 80055ac:	200082dc 	.word	0x200082dc
 80055b0:	20004d28 	.word	0x20004d28
 80055b4:	200082d0 	.word	0x200082d0
 80055b8:	200082b0 	.word	0x200082b0
 80055bc:	200082ea 	.word	0x200082ea
 80055c0:	200082a8 	.word	0x200082a8
 80055c4:	0800aaa8 	.word	0x0800aaa8
 80055c8:	0800aab8 	.word	0x0800aab8
 80055cc:	0800aac4 	.word	0x0800aac4
 80055d0:	200082e8 	.word	0x200082e8
 80055d4:	200082e4 	.word	0x200082e4
 80055d8:	200082e0 	.word	0x200082e0
 80055dc:	200082ac 	.word	0x200082ac
 80055e0:	20008290 	.word	0x20008290
 80055e4:	0800abb0 	.word	0x0800abb0
 80055e8:	7d22      	ldrb	r2, [r4, #20]
 80055ea:	b92a      	cbnz	r2, 80055f8 <tcp_input+0x1f0>
 80055ec:	499d      	ldr	r1, [pc, #628]	; (8005864 <tcp_input+0x45c>)
 80055ee:	22fb      	movs	r2, #251	; 0xfb
 80055f0:	4648      	mov	r0, r9
 80055f2:	f003 fb4f 	bl	8008c94 <iprintf>
 80055f6:	4b9c      	ldr	r3, [pc, #624]	; (8005868 <tcp_input+0x460>)
 80055f8:	7d22      	ldrb	r2, [r4, #20]
 80055fa:	2a0a      	cmp	r2, #10
 80055fc:	d105      	bne.n	800560a <tcp_input+0x202>
 80055fe:	499b      	ldr	r1, [pc, #620]	; (800586c <tcp_input+0x464>)
 8005600:	22fc      	movs	r2, #252	; 0xfc
 8005602:	4648      	mov	r0, r9
 8005604:	f003 fb46 	bl	8008c94 <iprintf>
 8005608:	4b97      	ldr	r3, [pc, #604]	; (8005868 <tcp_input+0x460>)
 800560a:	7d22      	ldrb	r2, [r4, #20]
 800560c:	2a01      	cmp	r2, #1
 800560e:	d105      	bne.n	800561c <tcp_input+0x214>
 8005610:	4997      	ldr	r1, [pc, #604]	; (8005870 <tcp_input+0x468>)
 8005612:	22fd      	movs	r2, #253	; 0xfd
 8005614:	4648      	mov	r0, r9
 8005616:	f003 fb3d 	bl	8008c94 <iprintf>
 800561a:	4b93      	ldr	r3, [pc, #588]	; (8005868 <tcp_input+0x460>)
 800561c:	7a20      	ldrb	r0, [r4, #8]
 800561e:	68e1      	ldr	r1, [r4, #12]
 8005620:	b130      	cbz	r0, 8005630 <tcp_input+0x228>
 8005622:	687a      	ldr	r2, [r7, #4]
 8005624:	f892 2030 	ldrb.w	r2, [r2, #48]	; 0x30
 8005628:	3201      	adds	r2, #1
 800562a:	b2d2      	uxtb	r2, r2
 800562c:	4290      	cmp	r0, r2
 800562e:	d173      	bne.n	8005718 <tcp_input+0x310>
 8005630:	6832      	ldr	r2, [r6, #0]
 8005632:	f8b4 c018 	ldrh.w	ip, [r4, #24]
 8005636:	8810      	ldrh	r0, [r2, #0]
 8005638:	4584      	cmp	ip, r0
 800563a:	d16d      	bne.n	8005718 <tcp_input+0x310>
 800563c:	8ae0      	ldrh	r0, [r4, #22]
 800563e:	8852      	ldrh	r2, [r2, #2]
 8005640:	4290      	cmp	r0, r2
 8005642:	d169      	bne.n	8005718 <tcp_input+0x310>
 8005644:	6860      	ldr	r0, [r4, #4]
 8005646:	693a      	ldr	r2, [r7, #16]
 8005648:	4290      	cmp	r0, r2
 800564a:	d165      	bne.n	8005718 <tcp_input+0x310>
 800564c:	6820      	ldr	r0, [r4, #0]
 800564e:	697a      	ldr	r2, [r7, #20]
 8005650:	4290      	cmp	r0, r2
 8005652:	d161      	bne.n	8005718 <tcp_input+0x310>
 8005654:	42a1      	cmp	r1, r4
 8005656:	f040 8449 	bne.w	8005eec <tcp_input+0xae4>
 800565a:	4b83      	ldr	r3, [pc, #524]	; (8005868 <tcp_input+0x460>)
 800565c:	4985      	ldr	r1, [pc, #532]	; (8005874 <tcp_input+0x46c>)
 800565e:	4886      	ldr	r0, [pc, #536]	; (8005878 <tcp_input+0x470>)
 8005660:	f240 120d 	movw	r2, #269	; 0x10d
 8005664:	f003 fb16 	bl	8008c94 <iprintf>
 8005668:	f1ba 0f00 	cmp.w	sl, #0
 800566c:	d007      	beq.n	800567e <tcp_input+0x276>
 800566e:	68e3      	ldr	r3, [r4, #12]
 8005670:	f8ca 300c 	str.w	r3, [sl, #12]
 8005674:	f8d8 3000 	ldr.w	r3, [r8]
 8005678:	60e3      	str	r3, [r4, #12]
 800567a:	f8c8 4000 	str.w	r4, [r8]
 800567e:	68e3      	ldr	r3, [r4, #12]
 8005680:	42a3      	cmp	r3, r4
 8005682:	d106      	bne.n	8005692 <tcp_input+0x28a>
 8005684:	4b78      	ldr	r3, [pc, #480]	; (8005868 <tcp_input+0x460>)
 8005686:	497d      	ldr	r1, [pc, #500]	; (800587c <tcp_input+0x474>)
 8005688:	487b      	ldr	r0, [pc, #492]	; (8005878 <tcp_input+0x470>)
 800568a:	f240 1215 	movw	r2, #277	; 0x115
 800568e:	f003 fb01 	bl	8008c94 <iprintf>
 8005692:	f8df 9210 	ldr.w	r9, [pc, #528]	; 80058a4 <tcp_input+0x49c>
 8005696:	892a      	ldrh	r2, [r5, #8]
 8005698:	f8a9 2008 	strh.w	r2, [r9, #8]
 800569c:	6832      	ldr	r2, [r6, #0]
 800569e:	f8df a208 	ldr.w	sl, [pc, #520]	; 80058a8 <tcp_input+0x4a0>
 80056a2:	4f77      	ldr	r7, [pc, #476]	; (8005880 <tcp_input+0x478>)
 80056a4:	f8c9 200c 	str.w	r2, [r9, #12]
 80056a8:	4a76      	ldr	r2, [pc, #472]	; (8005884 <tcp_input+0x47c>)
 80056aa:	f8c9 5004 	str.w	r5, [r9, #4]
 80056ae:	2300      	movs	r3, #0
 80056b0:	f8c9 3000 	str.w	r3, [r9]
 80056b4:	f8ca 3000 	str.w	r3, [sl]
 80056b8:	703b      	strb	r3, [r7, #0]
 80056ba:	8013      	strh	r3, [r2, #0]
 80056bc:	4b72      	ldr	r3, [pc, #456]	; (8005888 <tcp_input+0x480>)
 80056be:	781b      	ldrb	r3, [r3, #0]
 80056c0:	071b      	lsls	r3, r3, #28
 80056c2:	d503      	bpl.n	80056cc <tcp_input+0x2c4>
 80056c4:	7b6b      	ldrb	r3, [r5, #13]
 80056c6:	f043 0301 	orr.w	r3, r3, #1
 80056ca:	736b      	strb	r3, [r5, #13]
 80056cc:	6fa3      	ldr	r3, [r4, #120]	; 0x78
 80056ce:	4d6f      	ldr	r5, [pc, #444]	; (800588c <tcp_input+0x484>)
 80056d0:	2b00      	cmp	r3, #0
 80056d2:	f000 814c 	beq.w	800596e <tcp_input+0x566>
 80056d6:	4620      	mov	r0, r4
 80056d8:	f7fe fe7a 	bl	80043d0 <tcp_process_refused_data>
 80056dc:	300d      	adds	r0, #13
 80056de:	d008      	beq.n	80056f2 <tcp_input+0x2ea>
 80056e0:	6fa3      	ldr	r3, [r4, #120]	; 0x78
 80056e2:	2b00      	cmp	r3, #0
 80056e4:	f000 8143 	beq.w	800596e <tcp_input+0x566>
 80056e8:	4b69      	ldr	r3, [pc, #420]	; (8005890 <tcp_input+0x488>)
 80056ea:	881b      	ldrh	r3, [r3, #0]
 80056ec:	2b00      	cmp	r3, #0
 80056ee:	f000 813e 	beq.w	800596e <tcp_input+0x566>
 80056f2:	8d63      	ldrh	r3, [r4, #42]	; 0x2a
 80056f4:	b913      	cbnz	r3, 80056fc <tcp_input+0x2f4>
 80056f6:	4620      	mov	r0, r4
 80056f8:	f001 fac8 	bl	8006c8c <tcp_send_empty_ack>
 80056fc:	f8d9 0004 	ldr.w	r0, [r9, #4]
 8005700:	2400      	movs	r4, #0
 8005702:	602c      	str	r4, [r5, #0]
 8005704:	f8ca 4000 	str.w	r4, [sl]
 8005708:	b118      	cbz	r0, 8005712 <tcp_input+0x30a>
 800570a:	f7fd fe53 	bl	80033b4 <pbuf_free>
 800570e:	f8c9 4004 	str.w	r4, [r9, #4]
 8005712:	b007      	add	sp, #28
 8005714:	e8bd 8ff0 	ldmia.w	sp!, {r4, r5, r6, r7, r8, r9, sl, fp, pc}
 8005718:	46a2      	mov	sl, r4
 800571a:	460c      	mov	r4, r1
 800571c:	e6ee      	b.n	80054fc <tcp_input+0xf4>
 800571e:	7d23      	ldrb	r3, [r4, #20]
 8005720:	2b0a      	cmp	r3, #10
 8005722:	d006      	beq.n	8005732 <tcp_input+0x32a>
 8005724:	4b50      	ldr	r3, [pc, #320]	; (8005868 <tcp_input+0x460>)
 8005726:	f240 121f 	movw	r2, #287	; 0x11f
 800572a:	4651      	mov	r1, sl
 800572c:	4648      	mov	r0, r9
 800572e:	f003 fab1 	bl	8008c94 <iprintf>
 8005732:	7a22      	ldrb	r2, [r4, #8]
 8005734:	b132      	cbz	r2, 8005744 <tcp_input+0x33c>
 8005736:	687b      	ldr	r3, [r7, #4]
 8005738:	f893 3030 	ldrb.w	r3, [r3, #48]	; 0x30
 800573c:	3301      	adds	r3, #1
 800573e:	b2db      	uxtb	r3, r3
 8005740:	429a      	cmp	r2, r3
 8005742:	d13e      	bne.n	80057c2 <tcp_input+0x3ba>
 8005744:	6833      	ldr	r3, [r6, #0]
 8005746:	8b20      	ldrh	r0, [r4, #24]
 8005748:	881a      	ldrh	r2, [r3, #0]
 800574a:	4290      	cmp	r0, r2
 800574c:	d139      	bne.n	80057c2 <tcp_input+0x3ba>
 800574e:	885b      	ldrh	r3, [r3, #2]
 8005750:	8ae1      	ldrh	r1, [r4, #22]
 8005752:	4299      	cmp	r1, r3
 8005754:	d135      	bne.n	80057c2 <tcp_input+0x3ba>
 8005756:	6862      	ldr	r2, [r4, #4]
 8005758:	693b      	ldr	r3, [r7, #16]
 800575a:	429a      	cmp	r2, r3
 800575c:	d131      	bne.n	80057c2 <tcp_input+0x3ba>
 800575e:	6822      	ldr	r2, [r4, #0]
 8005760:	697b      	ldr	r3, [r7, #20]
 8005762:	429a      	cmp	r2, r3
 8005764:	d12d      	bne.n	80057c2 <tcp_input+0x3ba>
 8005766:	4b48      	ldr	r3, [pc, #288]	; (8005888 <tcp_input+0x480>)
 8005768:	781b      	ldrb	r3, [r3, #0]
 800576a:	075e      	lsls	r6, r3, #29
 800576c:	f53f af11 	bmi.w	8005592 <tcp_input+0x18a>
 8005770:	4a47      	ldr	r2, [pc, #284]	; (8005890 <tcp_input+0x488>)
 8005772:	8816      	ldrh	r6, [r2, #0]
 8005774:	079a      	lsls	r2, r3, #30
 8005776:	d514      	bpl.n	80057a2 <tcp_input+0x39a>
 8005778:	4b46      	ldr	r3, [pc, #280]	; (8005894 <tcp_input+0x48c>)
 800577a:	681a      	ldr	r2, [r3, #0]
 800577c:	6a63      	ldr	r3, [r4, #36]	; 0x24
 800577e:	1ad3      	subs	r3, r2, r3
 8005780:	d414      	bmi.n	80057ac <tcp_input+0x3a4>
 8005782:	8d27      	ldrh	r7, [r4, #40]	; 0x28
 8005784:	1bdb      	subs	r3, r3, r7
 8005786:	2b00      	cmp	r3, #0
 8005788:	dc10      	bgt.n	80057ac <tcp_input+0x3a4>
 800578a:	4b43      	ldr	r3, [pc, #268]	; (8005898 <tcp_input+0x490>)
 800578c:	9300      	str	r3, [sp, #0]
 800578e:	e9cd 1001 	strd	r1, r0, [sp, #4]
 8005792:	f8db 1000 	ldr.w	r1, [fp]
 8005796:	3304      	adds	r3, #4
 8005798:	4432      	add	r2, r6
 800579a:	4620      	mov	r0, r4
 800579c:	f001 fa30 	bl	8006c00 <tcp_rst>
 80057a0:	e6f7      	b.n	8005592 <tcp_input+0x18a>
 80057a2:	07df      	lsls	r7, r3, #31
 80057a4:	bf42      	ittt	mi
 80057a6:	4b3d      	ldrmi	r3, [pc, #244]	; (800589c <tcp_input+0x494>)
 80057a8:	681b      	ldrmi	r3, [r3, #0]
 80057aa:	6223      	strmi	r3, [r4, #32]
 80057ac:	2e00      	cmp	r6, #0
 80057ae:	f43f aef0 	beq.w	8005592 <tcp_input+0x18a>
 80057b2:	8b63      	ldrh	r3, [r4, #26]
 80057b4:	f043 0302 	orr.w	r3, r3, #2
 80057b8:	8363      	strh	r3, [r4, #26]
 80057ba:	4620      	mov	r0, r4
 80057bc:	f001 fa98 	bl	8006cf0 <tcp_output>
 80057c0:	e6e7      	b.n	8005592 <tcp_input+0x18a>
 80057c2:	68e4      	ldr	r4, [r4, #12]
 80057c4:	2c00      	cmp	r4, #0
 80057c6:	d1aa      	bne.n	800571e <tcp_input+0x316>
 80057c8:	4b35      	ldr	r3, [pc, #212]	; (80058a0 <tcp_input+0x498>)
 80057ca:	f8d7 c004 	ldr.w	ip, [r7, #4]
 80057ce:	681a      	ldr	r2, [r3, #0]
 80057d0:	6831      	ldr	r1, [r6, #0]
 80057d2:	f8d7 e014 	ldr.w	lr, [r7, #20]
 80057d6:	4691      	mov	r9, r2
 80057d8:	f1b9 0f00 	cmp.w	r9, #0
 80057dc:	d113      	bne.n	8005806 <tcp_input+0x3fe>
 80057de:	8988      	ldrh	r0, [r1, #12]
 80057e0:	f7fd f8a9 	bl	8002936 <lwip_htons>
 80057e4:	0742      	lsls	r2, r0, #29
 80057e6:	f53f aed4 	bmi.w	8005592 <tcp_input+0x18a>
 80057ea:	4a29      	ldr	r2, [pc, #164]	; (8005890 <tcp_input+0x488>)
 80057ec:	6833      	ldr	r3, [r6, #0]
 80057ee:	8811      	ldrh	r1, [r2, #0]
 80057f0:	4a28      	ldr	r2, [pc, #160]	; (8005894 <tcp_input+0x48c>)
 80057f2:	8818      	ldrh	r0, [r3, #0]
 80057f4:	6812      	ldr	r2, [r2, #0]
 80057f6:	9002      	str	r0, [sp, #8]
 80057f8:	885b      	ldrh	r3, [r3, #2]
 80057fa:	9301      	str	r3, [sp, #4]
 80057fc:	4b26      	ldr	r3, [pc, #152]	; (8005898 <tcp_input+0x490>)
 80057fe:	9300      	str	r3, [sp, #0]
 8005800:	440a      	add	r2, r1
 8005802:	3304      	adds	r3, #4
 8005804:	e36e      	b.n	8005ee4 <tcp_input+0xadc>
 8005806:	f899 0008 	ldrb.w	r0, [r9, #8]
 800580a:	b128      	cbz	r0, 8005818 <tcp_input+0x410>
 800580c:	f89c 3030 	ldrb.w	r3, [ip, #48]	; 0x30
 8005810:	3301      	adds	r3, #1
 8005812:	b2db      	uxtb	r3, r3
 8005814:	4298      	cmp	r0, r3
 8005816:	d10c      	bne.n	8005832 <tcp_input+0x42a>
 8005818:	8848      	ldrh	r0, [r1, #2]
 800581a:	f8b9 3016 	ldrh.w	r3, [r9, #22]
 800581e:	4283      	cmp	r3, r0
 8005820:	d107      	bne.n	8005832 <tcp_input+0x42a>
 8005822:	f8d9 3000 	ldr.w	r3, [r9]
 8005826:	4573      	cmp	r3, lr
 8005828:	f000 833f 	beq.w	8005eaa <tcp_input+0xaa2>
 800582c:	2b00      	cmp	r3, #0
 800582e:	f000 833c 	beq.w	8005eaa <tcp_input+0xaa2>
 8005832:	464c      	mov	r4, r9
 8005834:	f8d9 900c 	ldr.w	r9, [r9, #12]
 8005838:	e7ce      	b.n	80057d8 <tcp_input+0x3d0>
 800583a:	0798      	lsls	r0, r3, #30
 800583c:	f57f aea9 	bpl.w	8005592 <tcp_input+0x18a>
 8005840:	f899 0015 	ldrb.w	r0, [r9, #21]
 8005844:	f7fe fc32 	bl	80040ac <tcp_alloc>
 8005848:	4682      	mov	sl, r0
 800584a:	bb78      	cbnz	r0, 80058ac <tcp_input+0x4a4>
 800584c:	f8d9 3018 	ldr.w	r3, [r9, #24]
 8005850:	2b00      	cmp	r3, #0
 8005852:	f43f ae9e 	beq.w	8005592 <tcp_input+0x18a>
 8005856:	4601      	mov	r1, r0
 8005858:	f04f 32ff 	mov.w	r2, #4294967295
 800585c:	f8d9 0010 	ldr.w	r0, [r9, #16]
 8005860:	4798      	blx	r3
 8005862:	e696      	b.n	8005592 <tcp_input+0x18a>
 8005864:	0800aae3 	.word	0x0800aae3
 8005868:	0800a89b 	.word	0x0800a89b
 800586c:	0800ab0a 	.word	0x0800ab0a
 8005870:	0800ab34 	.word	0x0800ab34
 8005874:	0800ab5b 	.word	0x0800ab5b
 8005878:	08009b3a 	.word	0x08009b3a
 800587c:	0800ab86 	.word	0x0800ab86
 8005880:	200082cc 	.word	0x200082cc
 8005884:	200082c4 	.word	0x200082c4
 8005888:	200082b0 	.word	0x200082b0
 800588c:	200082d4 	.word	0x200082d4
 8005890:	200082ea 	.word	0x200082ea
 8005894:	200082d0 	.word	0x200082d0
 8005898:	20004d38 	.word	0x20004d38
 800589c:	200082a0 	.word	0x200082a0
 80058a0:	2000829c 	.word	0x2000829c
 80058a4:	200082b4 	.word	0x200082b4
 80058a8:	200082c8 	.word	0x200082c8
 80058ac:	697b      	ldr	r3, [r7, #20]
 80058ae:	6832      	ldr	r2, [r6, #0]
 80058b0:	6003      	str	r3, [r0, #0]
 80058b2:	693b      	ldr	r3, [r7, #16]
 80058b4:	6043      	str	r3, [r0, #4]
 80058b6:	f8b9 3016 	ldrh.w	r3, [r9, #22]
 80058ba:	82c3      	strh	r3, [r0, #22]
 80058bc:	7813      	ldrb	r3, [r2, #0]
 80058be:	7852      	ldrb	r2, [r2, #1]
 80058c0:	4fa6      	ldr	r7, [pc, #664]	; (8005b5c <tcp_input+0x754>)
 80058c2:	ea43 2302 	orr.w	r3, r3, r2, lsl #8
 80058c6:	8303      	strh	r3, [r0, #24]
 80058c8:	2303      	movs	r3, #3
 80058ca:	7503      	strb	r3, [r0, #20]
 80058cc:	683b      	ldr	r3, [r7, #0]
 80058ce:	3301      	adds	r3, #1
 80058d0:	6243      	str	r3, [r0, #36]	; 0x24
 80058d2:	62c3      	str	r3, [r0, #44]	; 0x2c
 80058d4:	f7fe fa14 	bl	8003d00 <tcp_next_iss>
 80058d8:	683b      	ldr	r3, [r7, #0]
 80058da:	f8ca 0058 	str.w	r0, [sl, #88]	; 0x58
 80058de:	3b01      	subs	r3, #1
 80058e0:	f8ca 3054 	str.w	r3, [sl, #84]	; 0x54
 80058e4:	f8d9 3010 	ldr.w	r3, [r9, #16]
 80058e8:	f8ca 0050 	str.w	r0, [sl, #80]	; 0x50
 80058ec:	f8ca 0044 	str.w	r0, [sl, #68]	; 0x44
 80058f0:	f8ca 005c 	str.w	r0, [sl, #92]	; 0x5c
 80058f4:	f8ca 3010 	str.w	r3, [sl, #16]
 80058f8:	f8ca 907c 	str.w	r9, [sl, #124]	; 0x7c
 80058fc:	f899 3009 	ldrb.w	r3, [r9, #9]
 8005900:	f003 030c 	and.w	r3, r3, #12
 8005904:	f88a 3009 	strb.w	r3, [sl, #9]
 8005908:	f899 3008 	ldrb.w	r3, [r9, #8]
 800590c:	f88a 3008 	strb.w	r3, [sl, #8]
 8005910:	f8d8 3000 	ldr.w	r3, [r8]
 8005914:	f8ca 300c 	str.w	r3, [sl, #12]
 8005918:	f8c8 a000 	str.w	sl, [r8]
 800591c:	f001 fcbe 	bl	800729c <tcp_timer_needed>
 8005920:	4b8f      	ldr	r3, [pc, #572]	; (8005b60 <tcp_input+0x758>)
 8005922:	2201      	movs	r2, #1
 8005924:	4650      	mov	r0, sl
 8005926:	701a      	strb	r2, [r3, #0]
 8005928:	f7ff f86a 	bl	8004a00 <tcp_parseopt>
 800592c:	6833      	ldr	r3, [r6, #0]
 800592e:	f8ba 6032 	ldrh.w	r6, [sl, #50]	; 0x32
 8005932:	89db      	ldrh	r3, [r3, #14]
 8005934:	f8aa 3060 	strh.w	r3, [sl, #96]	; 0x60
 8005938:	f10a 0204 	add.w	r2, sl, #4
 800593c:	f8aa 3062 	strh.w	r3, [sl, #98]	; 0x62
 8005940:	4610      	mov	r0, r2
 8005942:	9205      	str	r2, [sp, #20]
 8005944:	f002 fab8 	bl	8007eb8 <ip4_route>
 8005948:	9a05      	ldr	r2, [sp, #20]
 800594a:	4601      	mov	r1, r0
 800594c:	4630      	mov	r0, r6
 800594e:	f7fe f9f1 	bl	8003d34 <tcp_eff_send_mss_netif>
 8005952:	2112      	movs	r1, #18
 8005954:	f8aa 0032 	strh.w	r0, [sl, #50]	; 0x32
 8005958:	4650      	mov	r0, sl
 800595a:	f000 ffd3 	bl	8006904 <tcp_enqueue_flags>
 800595e:	b120      	cbz	r0, 800596a <tcp_input+0x562>
 8005960:	4621      	mov	r1, r4
 8005962:	4650      	mov	r0, sl
 8005964:	f7fe faa6 	bl	8003eb4 <tcp_abandon>
 8005968:	e613      	b.n	8005592 <tcp_input+0x18a>
 800596a:	4650      	mov	r0, sl
 800596c:	e726      	b.n	80057bc <tcp_input+0x3b4>
 800596e:	4b7d      	ldr	r3, [pc, #500]	; (8005b64 <tcp_input+0x75c>)
 8005970:	602c      	str	r4, [r5, #0]
 8005972:	781a      	ldrb	r2, [r3, #0]
 8005974:	0751      	lsls	r1, r2, #29
 8005976:	d539      	bpl.n	80059ec <tcp_input+0x5e4>
 8005978:	7d21      	ldrb	r1, [r4, #20]
 800597a:	2902      	cmp	r1, #2
 800597c:	d11f      	bne.n	80059be <tcp_input+0x5b6>
 800597e:	6d22      	ldr	r2, [r4, #80]	; 0x50
 8005980:	f8db 3000 	ldr.w	r3, [fp]
 8005984:	429a      	cmp	r2, r3
 8005986:	d107      	bne.n	8005998 <tcp_input+0x590>
 8005988:	783b      	ldrb	r3, [r7, #0]
 800598a:	f043 0308 	orr.w	r3, r3, #8
 800598e:	703b      	strb	r3, [r7, #0]
 8005990:	8b63      	ldrh	r3, [r4, #26]
 8005992:	f023 0301 	bic.w	r3, r3, #1
 8005996:	8363      	strh	r3, [r4, #26]
 8005998:	783b      	ldrb	r3, [r7, #0]
 800599a:	0718      	lsls	r0, r3, #28
 800599c:	f140 8207 	bpl.w	8005dae <tcp_input+0x9a6>
 80059a0:	f8d4 3090 	ldr.w	r3, [r4, #144]	; 0x90
 80059a4:	b11b      	cbz	r3, 80059ae <tcp_input+0x5a6>
 80059a6:	6920      	ldr	r0, [r4, #16]
 80059a8:	f06f 010d 	mvn.w	r1, #13
 80059ac:	4798      	blx	r3
 80059ae:	486e      	ldr	r0, [pc, #440]	; (8005b68 <tcp_input+0x760>)
 80059b0:	4621      	mov	r1, r4
 80059b2:	f7fe fa19 	bl	8003de8 <tcp_pcb_remove>
 80059b6:	4620      	mov	r0, r4
 80059b8:	f7fd ffd6 	bl	8003968 <tcp_free>
 80059bc:	e69e      	b.n	80056fc <tcp_input+0x2f4>
 80059be:	4b67      	ldr	r3, [pc, #412]	; (8005b5c <tcp_input+0x754>)
 80059c0:	6a62      	ldr	r2, [r4, #36]	; 0x24
 80059c2:	681b      	ldr	r3, [r3, #0]
 80059c4:	429a      	cmp	r2, r3
 80059c6:	d007      	beq.n	80059d8 <tcp_input+0x5d0>
 80059c8:	1a9b      	subs	r3, r3, r2
 80059ca:	d4e5      	bmi.n	8005998 <tcp_input+0x590>
 80059cc:	8d22      	ldrh	r2, [r4, #40]	; 0x28
 80059ce:	1a9b      	subs	r3, r3, r2
 80059d0:	2b00      	cmp	r3, #0
 80059d2:	dce1      	bgt.n	8005998 <tcp_input+0x590>
 80059d4:	8b63      	ldrh	r3, [r4, #26]
 80059d6:	e010      	b.n	80059fa <tcp_input+0x5f2>
 80059d8:	2900      	cmp	r1, #0
 80059da:	d1d5      	bne.n	8005988 <tcp_input+0x580>
 80059dc:	4b63      	ldr	r3, [pc, #396]	; (8005b6c <tcp_input+0x764>)
 80059de:	4964      	ldr	r1, [pc, #400]	; (8005b70 <tcp_input+0x768>)
 80059e0:	4864      	ldr	r0, [pc, #400]	; (8005b74 <tcp_input+0x76c>)
 80059e2:	f44f 724e 	mov.w	r2, #824	; 0x338
 80059e6:	f003 f955 	bl	8008c94 <iprintf>
 80059ea:	e7cd      	b.n	8005988 <tcp_input+0x580>
 80059ec:	0792      	lsls	r2, r2, #30
 80059ee:	8b63      	ldrh	r3, [r4, #26]
 80059f0:	d506      	bpl.n	8005a00 <tcp_input+0x5f8>
 80059f2:	7d22      	ldrb	r2, [r4, #20]
 80059f4:	3a02      	subs	r2, #2
 80059f6:	2a01      	cmp	r2, #1
 80059f8:	d902      	bls.n	8005a00 <tcp_input+0x5f8>
 80059fa:	f043 0302 	orr.w	r3, r3, #2
 80059fe:	e7ca      	b.n	8005996 <tcp_input+0x58e>
 8005a00:	06d8      	lsls	r0, r3, #27
 8005a02:	bf5e      	ittt	pl
 8005a04:	4b5c      	ldrpl	r3, [pc, #368]	; (8005b78 <tcp_input+0x770>)
 8005a06:	681b      	ldrpl	r3, [r3, #0]
 8005a08:	6223      	strpl	r3, [r4, #32]
 8005a0a:	2300      	movs	r3, #0
 8005a0c:	f8a4 309a 	strh.w	r3, [r4, #154]	; 0x9a
 8005a10:	4620      	mov	r0, r4
 8005a12:	f7fe fff5 	bl	8004a00 <tcp_parseopt>
 8005a16:	7d23      	ldrb	r3, [r4, #20]
 8005a18:	3b02      	subs	r3, #2
 8005a1a:	2b07      	cmp	r3, #7
 8005a1c:	d8bc      	bhi.n	8005998 <tcp_input+0x590>
 8005a1e:	e8df f013 	tbh	[pc, r3, lsl #1]
 8005a22:	0008      	.short	0x0008
 8005a24:	012700b5 	.word	0x012700b5
 8005a28:	0176012b 	.word	0x0176012b
 8005a2c:	018f0127 	.word	0x018f0127
 8005a30:	01af      	.short	0x01af
 8005a32:	4b4c      	ldr	r3, [pc, #304]	; (8005b64 <tcp_input+0x75c>)
 8005a34:	781b      	ldrb	r3, [r3, #0]
 8005a36:	f003 0212 	and.w	r2, r3, #18
 8005a3a:	2a12      	cmp	r2, #18
 8005a3c:	d16d      	bne.n	8005b1a <tcp_input+0x712>
 8005a3e:	6c62      	ldr	r2, [r4, #68]	; 0x44
 8005a40:	f8db 1000 	ldr.w	r1, [fp]
 8005a44:	3201      	adds	r2, #1
 8005a46:	428a      	cmp	r2, r1
 8005a48:	d167      	bne.n	8005b1a <tcp_input+0x712>
 8005a4a:	4b44      	ldr	r3, [pc, #272]	; (8005b5c <tcp_input+0x754>)
 8005a4c:	6462      	str	r2, [r4, #68]	; 0x44
 8005a4e:	681b      	ldr	r3, [r3, #0]
 8005a50:	6832      	ldr	r2, [r6, #0]
 8005a52:	8e66      	ldrh	r6, [r4, #50]	; 0x32
 8005a54:	1c59      	adds	r1, r3, #1
 8005a56:	6261      	str	r1, [r4, #36]	; 0x24
 8005a58:	62e1      	str	r1, [r4, #44]	; 0x2c
 8005a5a:	3b01      	subs	r3, #1
 8005a5c:	89d2      	ldrh	r2, [r2, #14]
 8005a5e:	6563      	str	r3, [r4, #84]	; 0x54
 8005a60:	2304      	movs	r3, #4
 8005a62:	f8a4 2060 	strh.w	r2, [r4, #96]	; 0x60
 8005a66:	f8a4 2062 	strh.w	r2, [r4, #98]	; 0x62
 8005a6a:	18e2      	adds	r2, r4, r3
 8005a6c:	7523      	strb	r3, [r4, #20]
 8005a6e:	4610      	mov	r0, r2
 8005a70:	9205      	str	r2, [sp, #20]
 8005a72:	f002 fa21 	bl	8007eb8 <ip4_route>
 8005a76:	9a05      	ldr	r2, [sp, #20]
 8005a78:	4601      	mov	r1, r0
 8005a7a:	4630      	mov	r0, r6
 8005a7c:	f7fe f95a 	bl	8003d34 <tcp_eff_send_mss_netif>
 8005a80:	f241 131c 	movw	r3, #4380	; 0x111c
 8005a84:	0042      	lsls	r2, r0, #1
 8005a86:	429a      	cmp	r2, r3
 8005a88:	4616      	mov	r6, r2
 8005a8a:	bf38      	it	cc
 8005a8c:	461e      	movcc	r6, r3
 8005a8e:	ebb6 0f80 	cmp.w	r6, r0, lsl #2
 8005a92:	8660      	strh	r0, [r4, #50]	; 0x32
 8005a94:	ea4f 0180 	mov.w	r1, r0, lsl #2
 8005a98:	d933      	bls.n	8005b02 <tcp_input+0x6fa>
 8005a9a:	b28b      	uxth	r3, r1
 8005a9c:	f8a4 3048 	strh.w	r3, [r4, #72]	; 0x48
 8005aa0:	f8b4 3066 	ldrh.w	r3, [r4, #102]	; 0x66
 8005aa4:	b933      	cbnz	r3, 8005ab4 <tcp_input+0x6ac>
 8005aa6:	4b31      	ldr	r3, [pc, #196]	; (8005b6c <tcp_input+0x764>)
 8005aa8:	4934      	ldr	r1, [pc, #208]	; (8005b7c <tcp_input+0x774>)
 8005aaa:	4832      	ldr	r0, [pc, #200]	; (8005b74 <tcp_input+0x76c>)
 8005aac:	f44f 725b 	mov.w	r2, #876	; 0x36c
 8005ab0:	f003 f8f0 	bl	8008c94 <iprintf>
 8005ab4:	f8b4 3066 	ldrh.w	r3, [r4, #102]	; 0x66
 8005ab8:	6f26      	ldr	r6, [r4, #112]	; 0x70
 8005aba:	3b01      	subs	r3, #1
 8005abc:	f8a4 3066 	strh.w	r3, [r4, #102]	; 0x66
 8005ac0:	bb1e      	cbnz	r6, 8005b0a <tcp_input+0x702>
 8005ac2:	6ee6      	ldr	r6, [r4, #108]	; 0x6c
 8005ac4:	b936      	cbnz	r6, 8005ad4 <tcp_input+0x6cc>
 8005ac6:	4b29      	ldr	r3, [pc, #164]	; (8005b6c <tcp_input+0x764>)
 8005ac8:	492d      	ldr	r1, [pc, #180]	; (8005b80 <tcp_input+0x778>)
 8005aca:	482a      	ldr	r0, [pc, #168]	; (8005b74 <tcp_input+0x76c>)
 8005acc:	f44f 725d 	mov.w	r2, #884	; 0x374
 8005ad0:	f003 f8e0 	bl	8008c94 <iprintf>
 8005ad4:	6833      	ldr	r3, [r6, #0]
 8005ad6:	66e3      	str	r3, [r4, #108]	; 0x6c
 8005ad8:	4630      	mov	r0, r6
 8005ada:	f7fe f891 	bl	8003c00 <tcp_seg_free>
 8005ade:	6f23      	ldr	r3, [r4, #112]	; 0x70
 8005ae0:	b9b3      	cbnz	r3, 8005b10 <tcp_input+0x708>
 8005ae2:	f64f 73ff 	movw	r3, #65535	; 0xffff
 8005ae6:	8623      	strh	r3, [r4, #48]	; 0x30
 8005ae8:	f8d4 3088 	ldr.w	r3, [r4, #136]	; 0x88
 8005aec:	2b00      	cmp	r3, #0
 8005aee:	f43f af71 	beq.w	80059d4 <tcp_input+0x5cc>
 8005af2:	6920      	ldr	r0, [r4, #16]
 8005af4:	2200      	movs	r2, #0
 8005af6:	4621      	mov	r1, r4
 8005af8:	4798      	blx	r3
 8005afa:	300d      	adds	r0, #13
 8005afc:	f47f af6a 	bne.w	80059d4 <tcp_input+0x5cc>
 8005b00:	e5fc      	b.n	80056fc <tcp_input+0x2f4>
 8005b02:	429a      	cmp	r2, r3
 8005b04:	bf88      	it	hi
 8005b06:	b293      	uxthhi	r3, r2
 8005b08:	e7c8      	b.n	8005a9c <tcp_input+0x694>
 8005b0a:	6833      	ldr	r3, [r6, #0]
 8005b0c:	6723      	str	r3, [r4, #112]	; 0x70
 8005b0e:	e7e3      	b.n	8005ad8 <tcp_input+0x6d0>
 8005b10:	2300      	movs	r3, #0
 8005b12:	8623      	strh	r3, [r4, #48]	; 0x30
 8005b14:	f884 3042 	strb.w	r3, [r4, #66]	; 0x42
 8005b18:	e7e6      	b.n	8005ae8 <tcp_input+0x6e0>
 8005b1a:	06d9      	lsls	r1, r3, #27
 8005b1c:	f57f af3c 	bpl.w	8005998 <tcp_input+0x590>
 8005b20:	4a18      	ldr	r2, [pc, #96]	; (8005b84 <tcp_input+0x77c>)
 8005b22:	6833      	ldr	r3, [r6, #0]
 8005b24:	8811      	ldrh	r1, [r2, #0]
 8005b26:	4a0d      	ldr	r2, [pc, #52]	; (8005b5c <tcp_input+0x754>)
 8005b28:	8818      	ldrh	r0, [r3, #0]
 8005b2a:	6812      	ldr	r2, [r2, #0]
 8005b2c:	9002      	str	r0, [sp, #8]
 8005b2e:	885b      	ldrh	r3, [r3, #2]
 8005b30:	9301      	str	r3, [sp, #4]
 8005b32:	4b15      	ldr	r3, [pc, #84]	; (8005b88 <tcp_input+0x780>)
 8005b34:	9300      	str	r3, [sp, #0]
 8005b36:	440a      	add	r2, r1
 8005b38:	3304      	adds	r3, #4
 8005b3a:	f8db 1000 	ldr.w	r1, [fp]
 8005b3e:	4620      	mov	r0, r4
 8005b40:	f001 f85e 	bl	8006c00 <tcp_rst>
 8005b44:	f894 3042 	ldrb.w	r3, [r4, #66]	; 0x42
 8005b48:	2b05      	cmp	r3, #5
 8005b4a:	f63f af25 	bhi.w	8005998 <tcp_input+0x590>
 8005b4e:	2300      	movs	r3, #0
 8005b50:	8623      	strh	r3, [r4, #48]	; 0x30
 8005b52:	4620      	mov	r0, r4
 8005b54:	f001 fa92 	bl	800707c <tcp_rexmit_rto>
 8005b58:	e71e      	b.n	8005998 <tcp_input+0x590>
 8005b5a:	bf00      	nop
 8005b5c:	200082d0 	.word	0x200082d0
 8005b60:	20008294 	.word	0x20008294
 8005b64:	200082b0 	.word	0x200082b0
 8005b68:	20008290 	.word	0x20008290
 8005b6c:	0800a89b 	.word	0x0800a89b
 8005b70:	0800abdd 	.word	0x0800abdd
 8005b74:	08009b3a 	.word	0x08009b3a
 8005b78:	200082a0 	.word	0x200082a0
 8005b7c:	0800abfd 	.word	0x0800abfd
 8005b80:	0800ac13 	.word	0x0800ac13
 8005b84:	200082ea 	.word	0x200082ea
 8005b88:	20004d38 	.word	0x20004d38
 8005b8c:	4b9e      	ldr	r3, [pc, #632]	; (8005e08 <tcp_input+0xa00>)
 8005b8e:	781b      	ldrb	r3, [r3, #0]
 8005b90:	06da      	lsls	r2, r3, #27
 8005b92:	d55f      	bpl.n	8005c54 <tcp_input+0x84c>
 8005b94:	6c63      	ldr	r3, [r4, #68]	; 0x44
 8005b96:	f8db 1000 	ldr.w	r1, [fp]
 8005b9a:	43db      	mvns	r3, r3
 8005b9c:	42cb      	cmn	r3, r1
 8005b9e:	d448      	bmi.n	8005c32 <tcp_input+0x82a>
 8005ba0:	6d23      	ldr	r3, [r4, #80]	; 0x50
 8005ba2:	1acb      	subs	r3, r1, r3
 8005ba4:	2b00      	cmp	r3, #0
 8005ba6:	dc44      	bgt.n	8005c32 <tcp_input+0x82a>
 8005ba8:	2304      	movs	r3, #4
 8005baa:	7523      	strb	r3, [r4, #20]
 8005bac:	6fe3      	ldr	r3, [r4, #124]	; 0x7c
 8005bae:	b91b      	cbnz	r3, 8005bb8 <tcp_input+0x7b0>
 8005bb0:	4620      	mov	r0, r4
 8005bb2:	f7fe fa01 	bl	8003fb8 <tcp_abort>
 8005bb6:	e5a1      	b.n	80056fc <tcp_input+0x2f4>
 8005bb8:	699b      	ldr	r3, [r3, #24]
 8005bba:	b933      	cbnz	r3, 8005bca <tcp_input+0x7c2>
 8005bbc:	4b93      	ldr	r3, [pc, #588]	; (8005e0c <tcp_input+0xa04>)
 8005bbe:	4994      	ldr	r1, [pc, #592]	; (8005e10 <tcp_input+0xa08>)
 8005bc0:	4894      	ldr	r0, [pc, #592]	; (8005e14 <tcp_input+0xa0c>)
 8005bc2:	f44f 726a 	mov.w	r2, #936	; 0x3a8
 8005bc6:	f003 f865 	bl	8008c94 <iprintf>
 8005bca:	6fe3      	ldr	r3, [r4, #124]	; 0x7c
 8005bcc:	699b      	ldr	r3, [r3, #24]
 8005bce:	2b00      	cmp	r3, #0
 8005bd0:	d0ee      	beq.n	8005bb0 <tcp_input+0x7a8>
 8005bd2:	6920      	ldr	r0, [r4, #16]
 8005bd4:	2200      	movs	r2, #0
 8005bd6:	4621      	mov	r1, r4
 8005bd8:	4798      	blx	r3
 8005bda:	b118      	cbz	r0, 8005be4 <tcp_input+0x7dc>
 8005bdc:	300d      	adds	r0, #13
 8005bde:	f43f ad8d 	beq.w	80056fc <tcp_input+0x2f4>
 8005be2:	e7e5      	b.n	8005bb0 <tcp_input+0x7a8>
 8005be4:	4620      	mov	r0, r4
 8005be6:	f7fe ffe1 	bl	8004bac <tcp_receive>
 8005bea:	4a8b      	ldr	r2, [pc, #556]	; (8005e18 <tcp_input+0xa10>)
 8005bec:	8813      	ldrh	r3, [r2, #0]
 8005bee:	b10b      	cbz	r3, 8005bf4 <tcp_input+0x7ec>
 8005bf0:	3b01      	subs	r3, #1
 8005bf2:	8013      	strh	r3, [r2, #0]
 8005bf4:	8e61      	ldrh	r1, [r4, #50]	; 0x32
 8005bf6:	f241 131c 	movw	r3, #4380	; 0x111c
 8005bfa:	004a      	lsls	r2, r1, #1
 8005bfc:	429a      	cmp	r2, r3
 8005bfe:	4616      	mov	r6, r2
 8005c00:	bf38      	it	cc
 8005c02:	461e      	movcc	r6, r3
 8005c04:	ebb6 0f81 	cmp.w	r6, r1, lsl #2
 8005c08:	ea4f 0081 	mov.w	r0, r1, lsl #2
 8005c0c:	d90d      	bls.n	8005c2a <tcp_input+0x822>
 8005c0e:	b283      	uxth	r3, r0
 8005c10:	f8a4 3048 	strh.w	r3, [r4, #72]	; 0x48
 8005c14:	783b      	ldrb	r3, [r7, #0]
 8005c16:	0698      	lsls	r0, r3, #26
 8005c18:	f57f aebe 	bpl.w	8005998 <tcp_input+0x590>
 8005c1c:	8b63      	ldrh	r3, [r4, #26]
 8005c1e:	f043 0302 	orr.w	r3, r3, #2
 8005c22:	8363      	strh	r3, [r4, #26]
 8005c24:	2307      	movs	r3, #7
 8005c26:	7523      	strb	r3, [r4, #20]
 8005c28:	e6b6      	b.n	8005998 <tcp_input+0x590>
 8005c2a:	429a      	cmp	r2, r3
 8005c2c:	bf88      	it	hi
 8005c2e:	b293      	uxthhi	r3, r2
 8005c30:	e7ee      	b.n	8005c10 <tcp_input+0x808>
 8005c32:	4a7a      	ldr	r2, [pc, #488]	; (8005e1c <tcp_input+0xa14>)
 8005c34:	6833      	ldr	r3, [r6, #0]
 8005c36:	8810      	ldrh	r0, [r2, #0]
 8005c38:	4a79      	ldr	r2, [pc, #484]	; (8005e20 <tcp_input+0xa18>)
 8005c3a:	881e      	ldrh	r6, [r3, #0]
 8005c3c:	6812      	ldr	r2, [r2, #0]
 8005c3e:	9602      	str	r6, [sp, #8]
 8005c40:	885b      	ldrh	r3, [r3, #2]
 8005c42:	9301      	str	r3, [sp, #4]
 8005c44:	4b77      	ldr	r3, [pc, #476]	; (8005e24 <tcp_input+0xa1c>)
 8005c46:	9300      	str	r3, [sp, #0]
 8005c48:	4402      	add	r2, r0
 8005c4a:	3304      	adds	r3, #4
 8005c4c:	4620      	mov	r0, r4
 8005c4e:	f000 ffd7 	bl	8006c00 <tcp_rst>
 8005c52:	e6a1      	b.n	8005998 <tcp_input+0x590>
 8005c54:	079e      	lsls	r6, r3, #30
 8005c56:	f57f ae9f 	bpl.w	8005998 <tcp_input+0x590>
 8005c5a:	4a71      	ldr	r2, [pc, #452]	; (8005e20 <tcp_input+0xa18>)
 8005c5c:	6a63      	ldr	r3, [r4, #36]	; 0x24
 8005c5e:	6812      	ldr	r2, [r2, #0]
 8005c60:	3b01      	subs	r3, #1
 8005c62:	4293      	cmp	r3, r2
 8005c64:	f47f ae98 	bne.w	8005998 <tcp_input+0x590>
 8005c68:	4620      	mov	r0, r4
 8005c6a:	f000 ff53 	bl	8006b14 <tcp_rexmit>
 8005c6e:	e693      	b.n	8005998 <tcp_input+0x590>
 8005c70:	4620      	mov	r0, r4
 8005c72:	f7fe ff9b 	bl	8004bac <tcp_receive>
 8005c76:	e7cd      	b.n	8005c14 <tcp_input+0x80c>
 8005c78:	4620      	mov	r0, r4
 8005c7a:	f7fe ff97 	bl	8004bac <tcp_receive>
 8005c7e:	783b      	ldrb	r3, [r7, #0]
 8005c80:	f013 0f20 	tst.w	r3, #32
 8005c84:	4b60      	ldr	r3, [pc, #384]	; (8005e08 <tcp_input+0xa00>)
 8005c86:	781b      	ldrb	r3, [r3, #0]
 8005c88:	d032      	beq.n	8005cf0 <tcp_input+0x8e8>
 8005c8a:	f013 0f10 	tst.w	r3, #16
 8005c8e:	8b63      	ldrh	r3, [r4, #26]
 8005c90:	d029      	beq.n	8005ce6 <tcp_input+0x8de>
 8005c92:	6d21      	ldr	r1, [r4, #80]	; 0x50
 8005c94:	f8db 2000 	ldr.w	r2, [fp]
 8005c98:	4291      	cmp	r1, r2
 8005c9a:	d124      	bne.n	8005ce6 <tcp_input+0x8de>
 8005c9c:	6ee2      	ldr	r2, [r4, #108]	; 0x6c
 8005c9e:	bb12      	cbnz	r2, 8005ce6 <tcp_input+0x8de>
 8005ca0:	f043 0302 	orr.w	r3, r3, #2
 8005ca4:	8363      	strh	r3, [r4, #26]
 8005ca6:	4620      	mov	r0, r4
 8005ca8:	f7fe f86c 	bl	8003d84 <tcp_pcb_purge>
 8005cac:	f8d8 3000 	ldr.w	r3, [r8]
 8005cb0:	429c      	cmp	r4, r3
 8005cb2:	d10a      	bne.n	8005cca <tcp_input+0x8c2>
 8005cb4:	68e3      	ldr	r3, [r4, #12]
 8005cb6:	f8c8 3000 	str.w	r3, [r8]
 8005cba:	e008      	b.n	8005cce <tcp_input+0x8c6>
 8005cbc:	68da      	ldr	r2, [r3, #12]
 8005cbe:	4294      	cmp	r4, r2
 8005cc0:	d102      	bne.n	8005cc8 <tcp_input+0x8c0>
 8005cc2:	68e2      	ldr	r2, [r4, #12]
 8005cc4:	60da      	str	r2, [r3, #12]
 8005cc6:	e002      	b.n	8005cce <tcp_input+0x8c6>
 8005cc8:	4613      	mov	r3, r2
 8005cca:	2b00      	cmp	r3, #0
 8005ccc:	d1f6      	bne.n	8005cbc <tcp_input+0x8b4>
 8005cce:	4b56      	ldr	r3, [pc, #344]	; (8005e28 <tcp_input+0xa20>)
 8005cd0:	2201      	movs	r2, #1
 8005cd2:	701a      	strb	r2, [r3, #0]
 8005cd4:	230a      	movs	r3, #10
 8005cd6:	7523      	strb	r3, [r4, #20]
 8005cd8:	4b54      	ldr	r3, [pc, #336]	; (8005e2c <tcp_input+0xa24>)
 8005cda:	681a      	ldr	r2, [r3, #0]
 8005cdc:	60e2      	str	r2, [r4, #12]
 8005cde:	601c      	str	r4, [r3, #0]
 8005ce0:	f001 fadc 	bl	800729c <tcp_timer_needed>
 8005ce4:	e658      	b.n	8005998 <tcp_input+0x590>
 8005ce6:	f043 0302 	orr.w	r3, r3, #2
 8005cea:	8363      	strh	r3, [r4, #26]
 8005cec:	2308      	movs	r3, #8
 8005cee:	e79a      	b.n	8005c26 <tcp_input+0x81e>
 8005cf0:	06d9      	lsls	r1, r3, #27
 8005cf2:	f57f ae51 	bpl.w	8005998 <tcp_input+0x590>
 8005cf6:	6d22      	ldr	r2, [r4, #80]	; 0x50
 8005cf8:	f8db 3000 	ldr.w	r3, [fp]
 8005cfc:	429a      	cmp	r2, r3
 8005cfe:	f47f ae4b 	bne.w	8005998 <tcp_input+0x590>
 8005d02:	6ee3      	ldr	r3, [r4, #108]	; 0x6c
 8005d04:	2b00      	cmp	r3, #0
 8005d06:	f47f ae47 	bne.w	8005998 <tcp_input+0x590>
 8005d0a:	2306      	movs	r3, #6
 8005d0c:	e78b      	b.n	8005c26 <tcp_input+0x81e>
 8005d0e:	4620      	mov	r0, r4
 8005d10:	f7fe ff4c 	bl	8004bac <tcp_receive>
 8005d14:	783b      	ldrb	r3, [r7, #0]
 8005d16:	069a      	lsls	r2, r3, #26
 8005d18:	f57f ae3e 	bpl.w	8005998 <tcp_input+0x590>
 8005d1c:	8b63      	ldrh	r3, [r4, #26]
 8005d1e:	f043 0302 	orr.w	r3, r3, #2
 8005d22:	8363      	strh	r3, [r4, #26]
 8005d24:	4620      	mov	r0, r4
 8005d26:	f7fe f82d 	bl	8003d84 <tcp_pcb_purge>
 8005d2a:	f8d8 3000 	ldr.w	r3, [r8]
 8005d2e:	429c      	cmp	r4, r3
 8005d30:	d0c0      	beq.n	8005cb4 <tcp_input+0x8ac>
 8005d32:	2b00      	cmp	r3, #0
 8005d34:	d0cb      	beq.n	8005cce <tcp_input+0x8c6>
 8005d36:	68da      	ldr	r2, [r3, #12]
 8005d38:	4294      	cmp	r4, r2
 8005d3a:	d0c2      	beq.n	8005cc2 <tcp_input+0x8ba>
 8005d3c:	4613      	mov	r3, r2
 8005d3e:	e7f8      	b.n	8005d32 <tcp_input+0x92a>
 8005d40:	4620      	mov	r0, r4
 8005d42:	f7fe ff33 	bl	8004bac <tcp_receive>
 8005d46:	4b30      	ldr	r3, [pc, #192]	; (8005e08 <tcp_input+0xa00>)
 8005d48:	781b      	ldrb	r3, [r3, #0]
 8005d4a:	06db      	lsls	r3, r3, #27
 8005d4c:	f57f ae24 	bpl.w	8005998 <tcp_input+0x590>
 8005d50:	6d22      	ldr	r2, [r4, #80]	; 0x50
 8005d52:	f8db 3000 	ldr.w	r3, [fp]
 8005d56:	429a      	cmp	r2, r3
 8005d58:	f47f ae1e 	bne.w	8005998 <tcp_input+0x590>
 8005d5c:	6ee3      	ldr	r3, [r4, #108]	; 0x6c
 8005d5e:	2b00      	cmp	r3, #0
 8005d60:	f47f ae1a 	bne.w	8005998 <tcp_input+0x590>
 8005d64:	4620      	mov	r0, r4
 8005d66:	f7fe f80d 	bl	8003d84 <tcp_pcb_purge>
 8005d6a:	f8d8 3000 	ldr.w	r3, [r8]
 8005d6e:	429c      	cmp	r4, r3
 8005d70:	d0a0      	beq.n	8005cb4 <tcp_input+0x8ac>
 8005d72:	2b00      	cmp	r3, #0
 8005d74:	d0ab      	beq.n	8005cce <tcp_input+0x8c6>
 8005d76:	68da      	ldr	r2, [r3, #12]
 8005d78:	4294      	cmp	r4, r2
 8005d7a:	d0a2      	beq.n	8005cc2 <tcp_input+0x8ba>
 8005d7c:	4613      	mov	r3, r2
 8005d7e:	e7f8      	b.n	8005d72 <tcp_input+0x96a>
 8005d80:	4620      	mov	r0, r4
 8005d82:	f7fe ff13 	bl	8004bac <tcp_receive>
 8005d86:	4b20      	ldr	r3, [pc, #128]	; (8005e08 <tcp_input+0xa00>)
 8005d88:	781b      	ldrb	r3, [r3, #0]
 8005d8a:	06de      	lsls	r6, r3, #27
 8005d8c:	f57f ae04 	bpl.w	8005998 <tcp_input+0x590>
 8005d90:	6d21      	ldr	r1, [r4, #80]	; 0x50
 8005d92:	f8db 2000 	ldr.w	r2, [fp]
 8005d96:	783b      	ldrb	r3, [r7, #0]
 8005d98:	4291      	cmp	r1, r2
 8005d9a:	f47f adfd 	bne.w	8005998 <tcp_input+0x590>
 8005d9e:	6ee2      	ldr	r2, [r4, #108]	; 0x6c
 8005da0:	2a00      	cmp	r2, #0
 8005da2:	f47f adf9 	bne.w	8005998 <tcp_input+0x590>
 8005da6:	f043 0310 	orr.w	r3, r3, #16
 8005daa:	703b      	strb	r3, [r7, #0]
 8005dac:	e5f4      	b.n	8005998 <tcp_input+0x590>
 8005dae:	4b1a      	ldr	r3, [pc, #104]	; (8005e18 <tcp_input+0xa10>)
 8005db0:	881a      	ldrh	r2, [r3, #0]
 8005db2:	b12a      	cbz	r2, 8005dc0 <tcp_input+0x9b8>
 8005db4:	f8d4 3080 	ldr.w	r3, [r4, #128]	; 0x80
 8005db8:	b9fb      	cbnz	r3, 8005dfa <tcp_input+0x9f2>
 8005dba:	4a17      	ldr	r2, [pc, #92]	; (8005e18 <tcp_input+0xa10>)
 8005dbc:	2300      	movs	r3, #0
 8005dbe:	8013      	strh	r3, [r2, #0]
 8005dc0:	4620      	mov	r0, r4
 8005dc2:	f7fe fe65 	bl	8004a90 <tcp_input_delayed_close>
 8005dc6:	2800      	cmp	r0, #0
 8005dc8:	f47f ac98 	bne.w	80056fc <tcp_input+0x2f4>
 8005dcc:	f8da 3000 	ldr.w	r3, [sl]
 8005dd0:	2b00      	cmp	r3, #0
 8005dd2:	d03d      	beq.n	8005e50 <tcp_input+0xa48>
 8005dd4:	6fa3      	ldr	r3, [r4, #120]	; 0x78
 8005dd6:	b133      	cbz	r3, 8005de6 <tcp_input+0x9de>
 8005dd8:	4b0c      	ldr	r3, [pc, #48]	; (8005e0c <tcp_input+0xa04>)
 8005dda:	4915      	ldr	r1, [pc, #84]	; (8005e30 <tcp_input+0xa28>)
 8005ddc:	480d      	ldr	r0, [pc, #52]	; (8005e14 <tcp_input+0xa0c>)
 8005dde:	f44f 72f3 	mov.w	r2, #486	; 0x1e6
 8005de2:	f002 ff57 	bl	8008c94 <iprintf>
 8005de6:	8b63      	ldrh	r3, [r4, #26]
 8005de8:	f8da 2000 	ldr.w	r2, [sl]
 8005dec:	f013 0310 	ands.w	r3, r3, #16
 8005df0:	d020      	beq.n	8005e34 <tcp_input+0xa2c>
 8005df2:	4610      	mov	r0, r2
 8005df4:	f7fd fade 	bl	80033b4 <pbuf_free>
 8005df8:	e6da      	b.n	8005bb0 <tcp_input+0x7a8>
 8005dfa:	6920      	ldr	r0, [r4, #16]
 8005dfc:	4621      	mov	r1, r4
 8005dfe:	4798      	blx	r3
 8005e00:	300d      	adds	r0, #13
 8005e02:	d1da      	bne.n	8005dba <tcp_input+0x9b2>
 8005e04:	e47a      	b.n	80056fc <tcp_input+0x2f4>
 8005e06:	bf00      	nop
 8005e08:	200082b0 	.word	0x200082b0
 8005e0c:	0800a89b 	.word	0x0800a89b
 8005e10:	0800ac26 	.word	0x0800ac26
 8005e14:	08009b3a 	.word	0x08009b3a
 8005e18:	200082c4 	.word	0x200082c4
 8005e1c:	200082ea 	.word	0x200082ea
 8005e20:	200082d0 	.word	0x200082d0
 8005e24:	20004d38 	.word	0x20004d38
 8005e28:	20008294 	.word	0x20008294
 8005e2c:	200082a8 	.word	0x200082a8
 8005e30:	0800ac44 	.word	0x0800ac44
 8005e34:	f8d4 6084 	ldr.w	r6, [r4, #132]	; 0x84
 8005e38:	b1fe      	cbz	r6, 8005e7a <tcp_input+0xa72>
 8005e3a:	6920      	ldr	r0, [r4, #16]
 8005e3c:	4621      	mov	r1, r4
 8005e3e:	47b0      	blx	r6
 8005e40:	f110 0f0d 	cmn.w	r0, #13
 8005e44:	f43f ac5a 	beq.w	80056fc <tcp_input+0x2f4>
 8005e48:	b110      	cbz	r0, 8005e50 <tcp_input+0xa48>
 8005e4a:	f8da 3000 	ldr.w	r3, [sl]
 8005e4e:	67a3      	str	r3, [r4, #120]	; 0x78
 8005e50:	783b      	ldrb	r3, [r7, #0]
 8005e52:	0699      	lsls	r1, r3, #26
 8005e54:	d505      	bpl.n	8005e62 <tcp_input+0xa5a>
 8005e56:	6fa3      	ldr	r3, [r4, #120]	; 0x78
 8005e58:	b1ab      	cbz	r3, 8005e86 <tcp_input+0xa7e>
 8005e5a:	7b5a      	ldrb	r2, [r3, #13]
 8005e5c:	f042 0220 	orr.w	r2, r2, #32
 8005e60:	735a      	strb	r2, [r3, #13]
 8005e62:	2300      	movs	r3, #0
 8005e64:	4620      	mov	r0, r4
 8005e66:	602b      	str	r3, [r5, #0]
 8005e68:	f7fe fe12 	bl	8004a90 <tcp_input_delayed_close>
 8005e6c:	2800      	cmp	r0, #0
 8005e6e:	f47f ac45 	bne.w	80056fc <tcp_input+0x2f4>
 8005e72:	4620      	mov	r0, r4
 8005e74:	f000 ff3c 	bl	8006cf0 <tcp_output>
 8005e78:	e440      	b.n	80056fc <tcp_input+0x2f4>
 8005e7a:	4633      	mov	r3, r6
 8005e7c:	4621      	mov	r1, r4
 8005e7e:	4630      	mov	r0, r6
 8005e80:	f7fe fa82 	bl	8004388 <tcp_recv_null>
 8005e84:	e7dc      	b.n	8005e40 <tcp_input+0xa38>
 8005e86:	8d23      	ldrh	r3, [r4, #40]	; 0x28
 8005e88:	f8d4 6084 	ldr.w	r6, [r4, #132]	; 0x84
 8005e8c:	f5b3 6f06 	cmp.w	r3, #2144	; 0x860
 8005e90:	bf1c      	itt	ne
 8005e92:	3301      	addne	r3, #1
 8005e94:	8523      	strhne	r3, [r4, #40]	; 0x28
 8005e96:	2e00      	cmp	r6, #0
 8005e98:	d0e3      	beq.n	8005e62 <tcp_input+0xa5a>
 8005e9a:	2300      	movs	r3, #0
 8005e9c:	6920      	ldr	r0, [r4, #16]
 8005e9e:	461a      	mov	r2, r3
 8005ea0:	4621      	mov	r1, r4
 8005ea2:	47b0      	blx	r6
 8005ea4:	300d      	adds	r0, #13
 8005ea6:	d1dc      	bne.n	8005e62 <tcp_input+0xa5a>
 8005ea8:	e428      	b.n	80056fc <tcp_input+0x2f4>
 8005eaa:	b13c      	cbz	r4, 8005ebc <tcp_input+0xab4>
 8005eac:	f8d9 300c 	ldr.w	r3, [r9, #12]
 8005eb0:	60e3      	str	r3, [r4, #12]
 8005eb2:	4b11      	ldr	r3, [pc, #68]	; (8005ef8 <tcp_input+0xaf0>)
 8005eb4:	f8c9 200c 	str.w	r2, [r9, #12]
 8005eb8:	f8c3 9000 	str.w	r9, [r3]
 8005ebc:	4b0f      	ldr	r3, [pc, #60]	; (8005efc <tcp_input+0xaf4>)
 8005ebe:	781b      	ldrb	r3, [r3, #0]
 8005ec0:	075c      	lsls	r4, r3, #29
 8005ec2:	f53f ab66 	bmi.w	8005592 <tcp_input+0x18a>
 8005ec6:	f013 0410 	ands.w	r4, r3, #16
 8005eca:	f43f acb6 	beq.w	800583a <tcp_input+0x432>
 8005ece:	4b0c      	ldr	r3, [pc, #48]	; (8005f00 <tcp_input+0xaf8>)
 8005ed0:	881c      	ldrh	r4, [r3, #0]
 8005ed2:	4b0c      	ldr	r3, [pc, #48]	; (8005f04 <tcp_input+0xafc>)
 8005ed4:	681a      	ldr	r2, [r3, #0]
 8005ed6:	880b      	ldrh	r3, [r1, #0]
 8005ed8:	e9cd 0301 	strd	r0, r3, [sp, #4]
 8005edc:	4b0a      	ldr	r3, [pc, #40]	; (8005f08 <tcp_input+0xb00>)
 8005ede:	9300      	str	r3, [sp, #0]
 8005ee0:	4422      	add	r2, r4
 8005ee2:	3304      	adds	r3, #4
 8005ee4:	f8db 1000 	ldr.w	r1, [fp]
 8005ee8:	4648      	mov	r0, r9
 8005eea:	e457      	b.n	800579c <tcp_input+0x394>
 8005eec:	f1ba 0f00 	cmp.w	sl, #0
 8005ef0:	f47f abbd 	bne.w	800566e <tcp_input+0x266>
 8005ef4:	f7ff bbcd 	b.w	8005692 <tcp_input+0x28a>
 8005ef8:	2000829c 	.word	0x2000829c
 8005efc:	200082b0 	.word	0x200082b0
 8005f00:	200082ea 	.word	0x200082ea
 8005f04:	200082d0 	.word	0x200082d0
 8005f08:	20004d38 	.word	0x20004d38

08005f0c <tcp_trigger_input_pcb_close>:
 8005f0c:	4a02      	ldr	r2, [pc, #8]	; (8005f18 <tcp_trigger_input_pcb_close+0xc>)
 8005f0e:	7813      	ldrb	r3, [r2, #0]
 8005f10:	f043 0310 	orr.w	r3, r3, #16
 8005f14:	7013      	strb	r3, [r2, #0]
 8005f16:	4770      	bx	lr
 8005f18:	200082cc 	.word	0x200082cc

08005f1c <tcp_output_segment_busy>:
 8005f1c:	b510      	push	{r4, lr}
 8005f1e:	4604      	mov	r4, r0
 8005f20:	b930      	cbnz	r0, 8005f30 <tcp_output_segment_busy+0x14>
 8005f22:	4b06      	ldr	r3, [pc, #24]	; (8005f3c <tcp_output_segment_busy+0x20>)
 8005f24:	4906      	ldr	r1, [pc, #24]	; (8005f40 <tcp_output_segment_busy+0x24>)
 8005f26:	4807      	ldr	r0, [pc, #28]	; (8005f44 <tcp_output_segment_busy+0x28>)
 8005f28:	f240 529a 	movw	r2, #1434	; 0x59a
 8005f2c:	f002 feb2 	bl	8008c94 <iprintf>
 8005f30:	6863      	ldr	r3, [r4, #4]
 8005f32:	7b98      	ldrb	r0, [r3, #14]
 8005f34:	3801      	subs	r0, #1
 8005f36:	bf18      	it	ne
 8005f38:	2001      	movne	r0, #1
 8005f3a:	bd10      	pop	{r4, pc}
 8005f3c:	0800ac5e 	.word	0x0800ac5e
 8005f40:	0800ac91 	.word	0x0800ac91
 8005f44:	08009b3a 	.word	0x08009b3a

08005f48 <tcp_pbuf_prealloc>:
 8005f48:	e92d 43f8 	stmdb	sp!, {r3, r4, r5, r6, r7, r8, r9, lr}
 8005f4c:	f8dd 8020 	ldr.w	r8, [sp, #32]
 8005f50:	f89d 9028 	ldrb.w	r9, [sp, #40]	; 0x28
 8005f54:	4607      	mov	r7, r0
 8005f56:	460c      	mov	r4, r1
 8005f58:	4615      	mov	r5, r2
 8005f5a:	461e      	mov	r6, r3
 8005f5c:	f1b8 0f00 	cmp.w	r8, #0
 8005f60:	d105      	bne.n	8005f6e <tcp_pbuf_prealloc+0x26>
 8005f62:	4b1e      	ldr	r3, [pc, #120]	; (8005fdc <tcp_pbuf_prealloc+0x94>)
 8005f64:	491e      	ldr	r1, [pc, #120]	; (8005fe0 <tcp_pbuf_prealloc+0x98>)
 8005f66:	481f      	ldr	r0, [pc, #124]	; (8005fe4 <tcp_pbuf_prealloc+0x9c>)
 8005f68:	22e9      	movs	r2, #233	; 0xe9
 8005f6a:	f002 fe93 	bl	8008c94 <iprintf>
 8005f6e:	42ac      	cmp	r4, r5
 8005f70:	d231      	bcs.n	8005fd6 <tcp_pbuf_prealloc+0x8e>
 8005f72:	f89d 3024 	ldrb.w	r3, [sp, #36]	; 0x24
 8005f76:	079a      	lsls	r2, r3, #30
 8005f78:	d40c      	bmi.n	8005f94 <tcp_pbuf_prealloc+0x4c>
 8005f7a:	f8b8 301a 	ldrh.w	r3, [r8, #26]
 8005f7e:	065b      	lsls	r3, r3, #25
 8005f80:	d429      	bmi.n	8005fd6 <tcp_pbuf_prealloc+0x8e>
 8005f82:	f1b9 0f00 	cmp.w	r9, #0
 8005f86:	d005      	beq.n	8005f94 <tcp_pbuf_prealloc+0x4c>
 8005f88:	f8d8 306c 	ldr.w	r3, [r8, #108]	; 0x6c
 8005f8c:	b913      	cbnz	r3, 8005f94 <tcp_pbuf_prealloc+0x4c>
 8005f8e:	f8d8 3070 	ldr.w	r3, [r8, #112]	; 0x70
 8005f92:	b303      	cbz	r3, 8005fd6 <tcp_pbuf_prealloc+0x8e>
 8005f94:	f204 211b 	addw	r1, r4, #539	; 0x21b
 8005f98:	f021 0103 	bic.w	r1, r1, #3
 8005f9c:	42a9      	cmp	r1, r5
 8005f9e:	460a      	mov	r2, r1
 8005fa0:	bf28      	it	cs
 8005fa2:	462a      	movcs	r2, r5
 8005fa4:	b291      	uxth	r1, r2
 8005fa6:	f44f 7220 	mov.w	r2, #640	; 0x280
 8005faa:	4638      	mov	r0, r7
 8005fac:	f7fd fa66 	bl	800347c <pbuf_alloc>
 8005fb0:	4605      	mov	r5, r0
 8005fb2:	b168      	cbz	r0, 8005fd0 <tcp_pbuf_prealloc+0x88>
 8005fb4:	6803      	ldr	r3, [r0, #0]
 8005fb6:	b133      	cbz	r3, 8005fc6 <tcp_pbuf_prealloc+0x7e>
 8005fb8:	4b08      	ldr	r3, [pc, #32]	; (8005fdc <tcp_pbuf_prealloc+0x94>)
 8005fba:	490b      	ldr	r1, [pc, #44]	; (8005fe8 <tcp_pbuf_prealloc+0xa0>)
 8005fbc:	4809      	ldr	r0, [pc, #36]	; (8005fe4 <tcp_pbuf_prealloc+0x9c>)
 8005fbe:	f240 120b 	movw	r2, #267	; 0x10b
 8005fc2:	f002 fe67 	bl	8008c94 <iprintf>
 8005fc6:	896b      	ldrh	r3, [r5, #10]
 8005fc8:	1b1b      	subs	r3, r3, r4
 8005fca:	8033      	strh	r3, [r6, #0]
 8005fcc:	812c      	strh	r4, [r5, #8]
 8005fce:	816c      	strh	r4, [r5, #10]
 8005fd0:	4628      	mov	r0, r5
 8005fd2:	e8bd 83f8 	ldmia.w	sp!, {r3, r4, r5, r6, r7, r8, r9, pc}
 8005fd6:	4621      	mov	r1, r4
 8005fd8:	e7e5      	b.n	8005fa6 <tcp_pbuf_prealloc+0x5e>
 8005fda:	bf00      	nop
 8005fdc:	0800ac5e 	.word	0x0800ac5e
 8005fe0:	0800acb6 	.word	0x0800acb6
 8005fe4:	08009b3a 	.word	0x08009b3a
 8005fe8:	0800acd5 	.word	0x0800acd5

08005fec <tcp_create_segment>:
 8005fec:	e92d 47f0 	stmdb	sp!, {r4, r5, r6, r7, r8, r9, sl, lr}
 8005ff0:	460e      	mov	r6, r1
 8005ff2:	f89d a020 	ldrb.w	sl, [sp, #32]
 8005ff6:	4690      	mov	r8, r2
 8005ff8:	4699      	mov	r9, r3
 8005ffa:	4607      	mov	r7, r0
 8005ffc:	b928      	cbnz	r0, 800600a <tcp_create_segment+0x1e>
 8005ffe:	4b2f      	ldr	r3, [pc, #188]	; (80060bc <tcp_create_segment+0xd0>)
 8006000:	492f      	ldr	r1, [pc, #188]	; (80060c0 <tcp_create_segment+0xd4>)
 8006002:	4830      	ldr	r0, [pc, #192]	; (80060c4 <tcp_create_segment+0xd8>)
 8006004:	22a3      	movs	r2, #163	; 0xa3
 8006006:	f002 fe45 	bl	8008c94 <iprintf>
 800600a:	b92e      	cbnz	r6, 8006018 <tcp_create_segment+0x2c>
 800600c:	4b2b      	ldr	r3, [pc, #172]	; (80060bc <tcp_create_segment+0xd0>)
 800600e:	492e      	ldr	r1, [pc, #184]	; (80060c8 <tcp_create_segment+0xdc>)
 8006010:	482c      	ldr	r0, [pc, #176]	; (80060c4 <tcp_create_segment+0xd8>)
 8006012:	22a4      	movs	r2, #164	; 0xa4
 8006014:	f002 fe3e 	bl	8008c94 <iprintf>
 8006018:	2003      	movs	r0, #3
 800601a:	f7fc ff29 	bl	8002e70 <memp_malloc>
 800601e:	ea4f 058a 	mov.w	r5, sl, lsl #2
 8006022:	f005 0504 	and.w	r5, r5, #4
 8006026:	4604      	mov	r4, r0
 8006028:	b928      	cbnz	r0, 8006036 <tcp_create_segment+0x4a>
 800602a:	4630      	mov	r0, r6
 800602c:	f7fd f9c2 	bl	80033b4 <pbuf_free>
 8006030:	4620      	mov	r0, r4
 8006032:	e8bd 87f0 	ldmia.w	sp!, {r4, r5, r6, r7, r8, r9, sl, pc}
 8006036:	f880 a00a 	strb.w	sl, [r0, #10]
 800603a:	2300      	movs	r3, #0
 800603c:	e9c0 3600 	strd	r3, r6, [r0]
 8006040:	8933      	ldrh	r3, [r6, #8]
 8006042:	42ab      	cmp	r3, r5
 8006044:	fa1f fa85 	uxth.w	sl, r5
 8006048:	d205      	bcs.n	8006056 <tcp_create_segment+0x6a>
 800604a:	4b1c      	ldr	r3, [pc, #112]	; (80060bc <tcp_create_segment+0xd0>)
 800604c:	491f      	ldr	r1, [pc, #124]	; (80060cc <tcp_create_segment+0xe0>)
 800604e:	481d      	ldr	r0, [pc, #116]	; (80060c4 <tcp_create_segment+0xd8>)
 8006050:	22b0      	movs	r2, #176	; 0xb0
 8006052:	f002 fe1f 	bl	8008c94 <iprintf>
 8006056:	8933      	ldrh	r3, [r6, #8]
 8006058:	eba3 030a 	sub.w	r3, r3, sl
 800605c:	4630      	mov	r0, r6
 800605e:	8123      	strh	r3, [r4, #8]
 8006060:	2114      	movs	r1, #20
 8006062:	f7fd f96f 	bl	8003344 <pbuf_add_header>
 8006066:	4606      	mov	r6, r0
 8006068:	b120      	cbz	r0, 8006074 <tcp_create_segment+0x88>
 800606a:	4620      	mov	r0, r4
 800606c:	f7fd fdc8 	bl	8003c00 <tcp_seg_free>
 8006070:	2400      	movs	r4, #0
 8006072:	e7dd      	b.n	8006030 <tcp_create_segment+0x44>
 8006074:	6863      	ldr	r3, [r4, #4]
 8006076:	8af8      	ldrh	r0, [r7, #22]
 8006078:	f8d3 a004 	ldr.w	sl, [r3, #4]
 800607c:	f8c4 a00c 	str.w	sl, [r4, #12]
 8006080:	f7fc fc59 	bl	8002936 <lwip_htons>
 8006084:	f8aa 0000 	strh.w	r0, [sl]
 8006088:	8b38      	ldrh	r0, [r7, #24]
 800608a:	f8d4 a00c 	ldr.w	sl, [r4, #12]
 800608e:	f7fc fc52 	bl	8002936 <lwip_htons>
 8006092:	f8aa 0002 	strh.w	r0, [sl, #2]
 8006096:	4648      	mov	r0, r9
 8006098:	68e7      	ldr	r7, [r4, #12]
 800609a:	f7fc fc4f 	bl	800293c <lwip_htonl>
 800609e:	02ad      	lsls	r5, r5, #10
 80060a0:	f505 45a0 	add.w	r5, r5, #20480	; 0x5000
 80060a4:	6078      	str	r0, [r7, #4]
 80060a6:	ea45 0008 	orr.w	r0, r5, r8
 80060aa:	68e7      	ldr	r7, [r4, #12]
 80060ac:	f7fc fc43 	bl	8002936 <lwip_htons>
 80060b0:	68e3      	ldr	r3, [r4, #12]
 80060b2:	81b8      	strh	r0, [r7, #12]
 80060b4:	749e      	strb	r6, [r3, #18]
 80060b6:	74de      	strb	r6, [r3, #19]
 80060b8:	e7ba      	b.n	8006030 <tcp_create_segment+0x44>
 80060ba:	bf00      	nop
 80060bc:	0800ac5e 	.word	0x0800ac5e
 80060c0:	0800ace9 	.word	0x0800ace9
 80060c4:	08009b3a 	.word	0x08009b3a
 80060c8:	0800ad09 	.word	0x0800ad09
 80060cc:	0800ad2a 	.word	0x0800ad2a

080060d0 <tcp_output_alloc_header_common.constprop.0>:
 80060d0:	3114      	adds	r1, #20
 80060d2:	e92d 41f0 	stmdb	sp!, {r4, r5, r6, r7, r8, lr}
 80060d6:	b289      	uxth	r1, r1
 80060d8:	4606      	mov	r6, r0
 80060da:	4617      	mov	r7, r2
 80060dc:	2022      	movs	r0, #34	; 0x22
 80060de:	f44f 7220 	mov.w	r2, #640	; 0x280
 80060e2:	4698      	mov	r8, r3
 80060e4:	f7fd f9ca 	bl	800347c <pbuf_alloc>
 80060e8:	4605      	mov	r5, r0
 80060ea:	b348      	cbz	r0, 8006140 <tcp_output_alloc_header_common.constprop.0+0x70>
 80060ec:	8943      	ldrh	r3, [r0, #10]
 80060ee:	2b13      	cmp	r3, #19
 80060f0:	d806      	bhi.n	8006100 <tcp_output_alloc_header_common.constprop.0+0x30>
 80060f2:	4b15      	ldr	r3, [pc, #84]	; (8006148 <tcp_output_alloc_header_common.constprop.0+0x78>)
 80060f4:	4915      	ldr	r1, [pc, #84]	; (800614c <tcp_output_alloc_header_common.constprop.0+0x7c>)
 80060f6:	4816      	ldr	r0, [pc, #88]	; (8006150 <tcp_output_alloc_header_common.constprop.0+0x80>)
 80060f8:	f240 7223 	movw	r2, #1827	; 0x723
 80060fc:	f002 fdca 	bl	8008c94 <iprintf>
 8006100:	4640      	mov	r0, r8
 8006102:	686c      	ldr	r4, [r5, #4]
 8006104:	f7fc fc17 	bl	8002936 <lwip_htons>
 8006108:	8020      	strh	r0, [r4, #0]
 800610a:	f8bd 0018 	ldrh.w	r0, [sp, #24]
 800610e:	f7fc fc12 	bl	8002936 <lwip_htons>
 8006112:	6067      	str	r7, [r4, #4]
 8006114:	8060      	strh	r0, [r4, #2]
 8006116:	4630      	mov	r0, r6
 8006118:	f7fc fc10 	bl	800293c <lwip_htonl>
 800611c:	60a0      	str	r0, [r4, #8]
 800611e:	f89d 001c 	ldrb.w	r0, [sp, #28]
 8006122:	f440 40a0 	orr.w	r0, r0, #20480	; 0x5000
 8006126:	f7fc fc06 	bl	8002936 <lwip_htons>
 800612a:	81a0      	strh	r0, [r4, #12]
 800612c:	f8bd 0020 	ldrh.w	r0, [sp, #32]
 8006130:	f7fc fc01 	bl	8002936 <lwip_htons>
 8006134:	2300      	movs	r3, #0
 8006136:	81e0      	strh	r0, [r4, #14]
 8006138:	7423      	strb	r3, [r4, #16]
 800613a:	7463      	strb	r3, [r4, #17]
 800613c:	74a3      	strb	r3, [r4, #18]
 800613e:	74e3      	strb	r3, [r4, #19]
 8006140:	4628      	mov	r0, r5
 8006142:	e8bd 81f0 	ldmia.w	sp!, {r4, r5, r6, r7, r8, pc}
 8006146:	bf00      	nop
 8006148:	0800ac5e 	.word	0x0800ac5e
 800614c:	0800ad3f 	.word	0x0800ad3f
 8006150:	08009b3a 	.word	0x08009b3a

08006154 <tcp_output_alloc_header.constprop.0>:
 8006154:	b57f      	push	{r0, r1, r2, r3, r4, r5, r6, lr}
 8006156:	460d      	mov	r5, r1
 8006158:	4616      	mov	r6, r2
 800615a:	4604      	mov	r4, r0
 800615c:	b930      	cbnz	r0, 800616c <tcp_output_alloc_header.constprop.0+0x18>
 800615e:	4b0d      	ldr	r3, [pc, #52]	; (8006194 <tcp_output_alloc_header.constprop.0+0x40>)
 8006160:	490d      	ldr	r1, [pc, #52]	; (8006198 <tcp_output_alloc_header.constprop.0+0x44>)
 8006162:	480e      	ldr	r0, [pc, #56]	; (800619c <tcp_output_alloc_header.constprop.0+0x48>)
 8006164:	f240 7242 	movw	r2, #1858	; 0x742
 8006168:	f002 fd94 	bl	8008c94 <iprintf>
 800616c:	8d63      	ldrh	r3, [r4, #42]	; 0x2a
 800616e:	9302      	str	r3, [sp, #8]
 8006170:	2310      	movs	r3, #16
 8006172:	9301      	str	r3, [sp, #4]
 8006174:	8b23      	ldrh	r3, [r4, #24]
 8006176:	9300      	str	r3, [sp, #0]
 8006178:	8ae3      	ldrh	r3, [r4, #22]
 800617a:	6a60      	ldr	r0, [r4, #36]	; 0x24
 800617c:	4632      	mov	r2, r6
 800617e:	4629      	mov	r1, r5
 8006180:	f7ff ffa6 	bl	80060d0 <tcp_output_alloc_header_common.constprop.0>
 8006184:	b118      	cbz	r0, 800618e <tcp_output_alloc_header.constprop.0+0x3a>
 8006186:	8d62      	ldrh	r2, [r4, #42]	; 0x2a
 8006188:	6a63      	ldr	r3, [r4, #36]	; 0x24
 800618a:	4413      	add	r3, r2
 800618c:	62e3      	str	r3, [r4, #44]	; 0x2c
 800618e:	b004      	add	sp, #16
 8006190:	bd70      	pop	{r4, r5, r6, pc}
 8006192:	bf00      	nop
 8006194:	0800ac5e 	.word	0x0800ac5e
 8006198:	0800ad6d 	.word	0x0800ad6d
 800619c:	08009b3a 	.word	0x08009b3a

080061a0 <tcp_output_fill_options.constprop.0>:
 80061a0:	b930      	cbnz	r0, 80061b0 <tcp_output_fill_options.constprop.0+0x10>
 80061a2:	4b04      	ldr	r3, [pc, #16]	; (80061b4 <tcp_output_fill_options.constprop.0+0x14>)
 80061a4:	4904      	ldr	r1, [pc, #16]	; (80061b8 <tcp_output_fill_options.constprop.0+0x18>)
 80061a6:	4805      	ldr	r0, [pc, #20]	; (80061bc <tcp_output_fill_options.constprop.0+0x1c>)
 80061a8:	f240 7256 	movw	r2, #1878	; 0x756
 80061ac:	f002 bd72 	b.w	8008c94 <iprintf>
 80061b0:	4770      	bx	lr
 80061b2:	bf00      	nop
 80061b4:	0800ac5e 	.word	0x0800ac5e
 80061b8:	0800ad92 	.word	0x0800ad92
 80061bc:	08009b3a 	.word	0x08009b3a

080061c0 <tcp_output_control_segment>:
 80061c0:	b5f0      	push	{r4, r5, r6, r7, lr}
 80061c2:	4604      	mov	r4, r0
 80061c4:	b085      	sub	sp, #20
 80061c6:	4617      	mov	r7, r2
 80061c8:	461e      	mov	r6, r3
 80061ca:	460d      	mov	r5, r1
 80061cc:	b931      	cbnz	r1, 80061dc <tcp_output_control_segment+0x1c>
 80061ce:	4b15      	ldr	r3, [pc, #84]	; (8006224 <tcp_output_control_segment+0x64>)
 80061d0:	4915      	ldr	r1, [pc, #84]	; (8006228 <tcp_output_control_segment+0x68>)
 80061d2:	4816      	ldr	r0, [pc, #88]	; (800622c <tcp_output_control_segment+0x6c>)
 80061d4:	f240 7287 	movw	r2, #1927	; 0x787
 80061d8:	f002 fd5c 	bl	8008c94 <iprintf>
 80061dc:	b164      	cbz	r4, 80061f8 <tcp_output_control_segment+0x38>
 80061de:	7a20      	ldrb	r0, [r4, #8]
 80061e0:	b150      	cbz	r0, 80061f8 <tcp_output_control_segment+0x38>
 80061e2:	f7fd f81d 	bl	8003220 <netif_get_by_index>
 80061e6:	b968      	cbnz	r0, 8006204 <tcp_output_control_segment+0x44>
 80061e8:	f06f 0403 	mvn.w	r4, #3
 80061ec:	4628      	mov	r0, r5
 80061ee:	f7fd f8e1 	bl	80033b4 <pbuf_free>
 80061f2:	4620      	mov	r0, r4
 80061f4:	b005      	add	sp, #20
 80061f6:	bdf0      	pop	{r4, r5, r6, r7, pc}
 80061f8:	4630      	mov	r0, r6
 80061fa:	f001 fe5d 	bl	8007eb8 <ip4_route>
 80061fe:	2800      	cmp	r0, #0
 8006200:	d0f2      	beq.n	80061e8 <tcp_output_control_segment+0x28>
 8006202:	b164      	cbz	r4, 800621e <tcp_output_control_segment+0x5e>
 8006204:	7ae3      	ldrb	r3, [r4, #11]
 8006206:	7aa4      	ldrb	r4, [r4, #10]
 8006208:	9002      	str	r0, [sp, #8]
 800620a:	2206      	movs	r2, #6
 800620c:	e9cd 4200 	strd	r4, r2, [sp]
 8006210:	4639      	mov	r1, r7
 8006212:	4632      	mov	r2, r6
 8006214:	4628      	mov	r0, r5
 8006216:	f001 ffad 	bl	8008174 <ip4_output_if>
 800621a:	4604      	mov	r4, r0
 800621c:	e7e6      	b.n	80061ec <tcp_output_control_segment+0x2c>
 800621e:	23ff      	movs	r3, #255	; 0xff
 8006220:	e7f2      	b.n	8006208 <tcp_output_control_segment+0x48>
 8006222:	bf00      	nop
 8006224:	0800ac5e 	.word	0x0800ac5e
 8006228:	0800adb8 	.word	0x0800adb8
 800622c:	08009b3a 	.word	0x08009b3a

08006230 <tcp_write>:
 8006230:	e92d 4ff0 	stmdb	sp!, {r4, r5, r6, r7, r8, r9, sl, fp, lr}
 8006234:	ed2d 8b02 	vpush	{d8}
 8006238:	b08f      	sub	sp, #60	; 0x3c
 800623a:	4604      	mov	r4, r0
 800623c:	9308      	str	r3, [sp, #32]
 800623e:	2300      	movs	r3, #0
 8006240:	9107      	str	r1, [sp, #28]
 8006242:	9204      	str	r2, [sp, #16]
 8006244:	f8ad 3036 	strh.w	r3, [sp, #54]	; 0x36
 8006248:	b968      	cbnz	r0, 8006266 <tcp_write+0x36>
 800624a:	4baa      	ldr	r3, [pc, #680]	; (80064f4 <tcp_write+0x2c4>)
 800624c:	49aa      	ldr	r1, [pc, #680]	; (80064f8 <tcp_write+0x2c8>)
 800624e:	f44f 72cf 	mov.w	r2, #414	; 0x19e
 8006252:	48aa      	ldr	r0, [pc, #680]	; (80064fc <tcp_write+0x2cc>)
 8006254:	f002 fd1e 	bl	8008c94 <iprintf>
 8006258:	f06f 000f 	mvn.w	r0, #15
 800625c:	b00f      	add	sp, #60	; 0x3c
 800625e:	ecbd 8b02 	vpop	{d8}
 8006262:	e8bd 8ff0 	ldmia.w	sp!, {r4, r5, r6, r7, r8, r9, sl, fp, pc}
 8006266:	f8b0 3062 	ldrh.w	r3, [r0, #98]	; 0x62
 800626a:	8e42      	ldrh	r2, [r0, #50]	; 0x32
 800626c:	085b      	lsrs	r3, r3, #1
 800626e:	4293      	cmp	r3, r2
 8006270:	bf28      	it	cs
 8006272:	4613      	movcs	r3, r2
 8006274:	2b00      	cmp	r3, #0
 8006276:	bf08      	it	eq
 8006278:	4613      	moveq	r3, r2
 800627a:	9306      	str	r3, [sp, #24]
 800627c:	9b07      	ldr	r3, [sp, #28]
 800627e:	b923      	cbnz	r3, 800628a <tcp_write+0x5a>
 8006280:	4b9c      	ldr	r3, [pc, #624]	; (80064f4 <tcp_write+0x2c4>)
 8006282:	499f      	ldr	r1, [pc, #636]	; (8006500 <tcp_write+0x2d0>)
 8006284:	f240 12ad 	movw	r2, #429	; 0x1ad
 8006288:	e7e3      	b.n	8006252 <tcp_write+0x22>
 800628a:	7d03      	ldrb	r3, [r0, #20]
 800628c:	2b07      	cmp	r3, #7
 800628e:	d003      	beq.n	8006298 <tcp_write+0x68>
 8006290:	3b02      	subs	r3, #2
 8006292:	2b02      	cmp	r3, #2
 8006294:	f200 8258 	bhi.w	8006748 <tcp_write+0x518>
 8006298:	9b04      	ldr	r3, [sp, #16]
 800629a:	b1db      	cbz	r3, 80062d4 <tcp_write+0xa4>
 800629c:	f8b4 3064 	ldrh.w	r3, [r4, #100]	; 0x64
 80062a0:	9a04      	ldr	r2, [sp, #16]
 80062a2:	4293      	cmp	r3, r2
 80062a4:	d206      	bcs.n	80062b4 <tcp_write+0x84>
 80062a6:	8b63      	ldrh	r3, [r4, #26]
 80062a8:	f043 0380 	orr.w	r3, r3, #128	; 0x80
 80062ac:	8363      	strh	r3, [r4, #26]
 80062ae:	f04f 30ff 	mov.w	r0, #4294967295
 80062b2:	e7d3      	b.n	800625c <tcp_write+0x2c>
 80062b4:	f8b4 2066 	ldrh.w	r2, [r4, #102]	; 0x66
 80062b8:	2a08      	cmp	r2, #8
 80062ba:	d8f4      	bhi.n	80062a6 <tcp_write+0x76>
 80062bc:	6f23      	ldr	r3, [r4, #112]	; 0x70
 80062be:	b302      	cbz	r2, 8006302 <tcp_write+0xd2>
 80062c0:	b943      	cbnz	r3, 80062d4 <tcp_write+0xa4>
 80062c2:	6ee3      	ldr	r3, [r4, #108]	; 0x6c
 80062c4:	b933      	cbnz	r3, 80062d4 <tcp_write+0xa4>
 80062c6:	4b8b      	ldr	r3, [pc, #556]	; (80064f4 <tcp_write+0x2c4>)
 80062c8:	498e      	ldr	r1, [pc, #568]	; (8006504 <tcp_write+0x2d4>)
 80062ca:	f240 1255 	movw	r2, #341	; 0x155
 80062ce:	488b      	ldr	r0, [pc, #556]	; (80064fc <tcp_write+0x2cc>)
 80062d0:	f002 fce0 	bl	8008c94 <iprintf>
 80062d4:	6ee6      	ldr	r6, [r4, #108]	; 0x6c
 80062d6:	f8b4 3066 	ldrh.w	r3, [r4, #102]	; 0x66
 80062da:	9305      	str	r3, [sp, #20]
 80062dc:	b9de      	cbnz	r6, 8006316 <tcp_write+0xe6>
 80062de:	f8b4 7068 	ldrh.w	r7, [r4, #104]	; 0x68
 80062e2:	2f00      	cmp	r7, #0
 80062e4:	f000 81ba 	beq.w	800665c <tcp_write+0x42c>
 80062e8:	4b82      	ldr	r3, [pc, #520]	; (80064f4 <tcp_write+0x2c4>)
 80062ea:	4987      	ldr	r1, [pc, #540]	; (8006508 <tcp_write+0x2d8>)
 80062ec:	4883      	ldr	r0, [pc, #524]	; (80064fc <tcp_write+0x2cc>)
 80062ee:	f240 224a 	movw	r2, #586	; 0x24a
 80062f2:	f002 fccf 	bl	8008c94 <iprintf>
 80062f6:	46b0      	mov	r8, r6
 80062f8:	46b2      	mov	sl, r6
 80062fa:	46b1      	mov	r9, r6
 80062fc:	4635      	mov	r5, r6
 80062fe:	4637      	mov	r7, r6
 8006300:	e088      	b.n	8006414 <tcp_write+0x1e4>
 8006302:	b913      	cbnz	r3, 800630a <tcp_write+0xda>
 8006304:	6ee3      	ldr	r3, [r4, #108]	; 0x6c
 8006306:	2b00      	cmp	r3, #0
 8006308:	d0e4      	beq.n	80062d4 <tcp_write+0xa4>
 800630a:	4b7a      	ldr	r3, [pc, #488]	; (80064f4 <tcp_write+0x2c4>)
 800630c:	497f      	ldr	r1, [pc, #508]	; (800650c <tcp_write+0x2dc>)
 800630e:	f44f 72ac 	mov.w	r2, #344	; 0x158
 8006312:	e7dc      	b.n	80062ce <tcp_write+0x9e>
 8006314:	4656      	mov	r6, sl
 8006316:	f8d6 a000 	ldr.w	sl, [r6]
 800631a:	46b0      	mov	r8, r6
 800631c:	f1ba 0f00 	cmp.w	sl, #0
 8006320:	d1f8      	bne.n	8006314 <tcp_write+0xe4>
 8006322:	7ab5      	ldrb	r5, [r6, #10]
 8006324:	8933      	ldrh	r3, [r6, #8]
 8006326:	9a06      	ldr	r2, [sp, #24]
 8006328:	00ad      	lsls	r5, r5, #2
 800632a:	f005 0504 	and.w	r5, r5, #4
 800632e:	442b      	add	r3, r5
 8006330:	429a      	cmp	r2, r3
 8006332:	da06      	bge.n	8006342 <tcp_write+0x112>
 8006334:	4b6f      	ldr	r3, [pc, #444]	; (80064f4 <tcp_write+0x2c4>)
 8006336:	4976      	ldr	r1, [pc, #472]	; (8006510 <tcp_write+0x2e0>)
 8006338:	4870      	ldr	r0, [pc, #448]	; (80064fc <tcp_write+0x2cc>)
 800633a:	f44f 72f3 	mov.w	r2, #486	; 0x1e6
 800633e:	f002 fca9 	bl	8008c94 <iprintf>
 8006342:	8937      	ldrh	r7, [r6, #8]
 8006344:	9b06      	ldr	r3, [sp, #24]
 8006346:	1bdf      	subs	r7, r3, r7
 8006348:	1b7f      	subs	r7, r7, r5
 800634a:	f8b4 5068 	ldrh.w	r5, [r4, #104]	; 0x68
 800634e:	f8ad 5036 	strh.w	r5, [sp, #54]	; 0x36
 8006352:	b2bf      	uxth	r7, r7
 8006354:	2d00      	cmp	r5, #0
 8006356:	d066      	beq.n	8006426 <tcp_write+0x1f6>
 8006358:	42bd      	cmp	r5, r7
 800635a:	d906      	bls.n	800636a <tcp_write+0x13a>
 800635c:	4b65      	ldr	r3, [pc, #404]	; (80064f4 <tcp_write+0x2c4>)
 800635e:	496d      	ldr	r1, [pc, #436]	; (8006514 <tcp_write+0x2e4>)
 8006360:	4866      	ldr	r0, [pc, #408]	; (80064fc <tcp_write+0x2cc>)
 8006362:	f44f 72fc 	mov.w	r2, #504	; 0x1f8
 8006366:	f002 fc95 	bl	8008c94 <iprintf>
 800636a:	9d04      	ldr	r5, [sp, #16]
 800636c:	f8bd 3036 	ldrh.w	r3, [sp, #54]	; 0x36
 8006370:	429d      	cmp	r5, r3
 8006372:	bf28      	it	cs
 8006374:	461d      	movcs	r5, r3
 8006376:	42bd      	cmp	r5, r7
 8006378:	bf28      	it	cs
 800637a:	463d      	movcs	r5, r7
 800637c:	1b5b      	subs	r3, r3, r5
 800637e:	b29b      	uxth	r3, r3
 8006380:	1b7f      	subs	r7, r7, r5
 8006382:	f8ad 3036 	strh.w	r3, [sp, #54]	; 0x36
 8006386:	b2bf      	uxth	r7, r7
 8006388:	b153      	cbz	r3, 80063a0 <tcp_write+0x170>
 800638a:	9b04      	ldr	r3, [sp, #16]
 800638c:	42ab      	cmp	r3, r5
 800638e:	f000 816a 	beq.w	8006666 <tcp_write+0x436>
 8006392:	4b58      	ldr	r3, [pc, #352]	; (80064f4 <tcp_write+0x2c4>)
 8006394:	4960      	ldr	r1, [pc, #384]	; (8006518 <tcp_write+0x2e8>)
 8006396:	4859      	ldr	r0, [pc, #356]	; (80064fc <tcp_write+0x2cc>)
 8006398:	f44f 7200 	mov.w	r2, #512	; 0x200
 800639c:	f002 fc7a 	bl	8008c94 <iprintf>
 80063a0:	9b04      	ldr	r3, [sp, #16]
 80063a2:	429d      	cmp	r5, r3
 80063a4:	f080 815f 	bcs.w	8006666 <tcp_write+0x436>
 80063a8:	2f00      	cmp	r7, #0
 80063aa:	f000 8154 	beq.w	8006656 <tcp_write+0x426>
 80063ae:	f8b8 9008 	ldrh.w	r9, [r8, #8]
 80063b2:	f1b9 0f00 	cmp.w	r9, #0
 80063b6:	f000 814f 	beq.w	8006658 <tcp_write+0x428>
 80063ba:	eba3 0905 	sub.w	r9, r3, r5
 80063be:	9b08      	ldr	r3, [sp, #32]
 80063c0:	45b9      	cmp	r9, r7
 80063c2:	bfa8      	it	ge
 80063c4:	46b9      	movge	r9, r7
 80063c6:	07db      	lsls	r3, r3, #31
 80063c8:	fa1f f689 	uxth.w	r6, r9
 80063cc:	d52d      	bpl.n	800642a <tcp_write+0x1fa>
 80063ce:	2301      	movs	r3, #1
 80063d0:	9302      	str	r3, [sp, #8]
 80063d2:	9b08      	ldr	r3, [sp, #32]
 80063d4:	463a      	mov	r2, r7
 80063d6:	e9cd 4300 	strd	r4, r3, [sp]
 80063da:	4631      	mov	r1, r6
 80063dc:	f10d 0336 	add.w	r3, sp, #54	; 0x36
 80063e0:	2000      	movs	r0, #0
 80063e2:	f7ff fdb1 	bl	8005f48 <tcp_pbuf_prealloc>
 80063e6:	4683      	mov	fp, r0
 80063e8:	2800      	cmp	r0, #0
 80063ea:	f000 81aa 	beq.w	8006742 <tcp_write+0x512>
 80063ee:	9b07      	ldr	r3, [sp, #28]
 80063f0:	6840      	ldr	r0, [r0, #4]
 80063f2:	4632      	mov	r2, r6
 80063f4:	1959      	adds	r1, r3, r5
 80063f6:	f002 fd28 	bl	8008e4a <memcpy>
 80063fa:	4658      	mov	r0, fp
 80063fc:	f7fd f916 	bl	800362c <pbuf_clen>
 8006400:	9b05      	ldr	r3, [sp, #20]
 8006402:	4403      	add	r3, r0
 8006404:	b29b      	uxth	r3, r3
 8006406:	9305      	str	r3, [sp, #20]
 8006408:	f04f 0900 	mov.w	r9, #0
 800640c:	19af      	adds	r7, r5, r6
 800640e:	b2bf      	uxth	r7, r7
 8006410:	4646      	mov	r6, r8
 8006412:	46da      	mov	sl, fp
 8006414:	9b08      	ldr	r3, [sp, #32]
 8006416:	f04f 0b00 	mov.w	fp, #0
 800641a:	f003 0301 	and.w	r3, r3, #1
 800641e:	f8cd b024 	str.w	fp, [sp, #36]	; 0x24
 8006422:	930a      	str	r3, [sp, #40]	; 0x28
 8006424:	e0e6      	b.n	80065f4 <tcp_write+0x3c4>
 8006426:	462e      	mov	r6, r5
 8006428:	e7ba      	b.n	80063a0 <tcp_write+0x170>
 800642a:	f8d8 b004 	ldr.w	fp, [r8, #4]
 800642e:	465b      	mov	r3, fp
 8006430:	f8db b000 	ldr.w	fp, [fp]
 8006434:	f1bb 0f00 	cmp.w	fp, #0
 8006438:	d1f9      	bne.n	800642e <tcp_write+0x1fe>
 800643a:	7b1a      	ldrb	r2, [r3, #12]
 800643c:	f012 0fc0 	tst.w	r2, #192	; 0xc0
 8006440:	d10f      	bne.n	8006462 <tcp_write+0x232>
 8006442:	895a      	ldrh	r2, [r3, #10]
 8006444:	685b      	ldr	r3, [r3, #4]
 8006446:	4413      	add	r3, r2
 8006448:	9a07      	ldr	r2, [sp, #28]
 800644a:	429a      	cmp	r2, r3
 800644c:	d109      	bne.n	8006462 <tcp_write+0x232>
 800644e:	b135      	cbz	r5, 800645e <tcp_write+0x22e>
 8006450:	4b28      	ldr	r3, [pc, #160]	; (80064f4 <tcp_write+0x2c4>)
 8006452:	4932      	ldr	r1, [pc, #200]	; (800651c <tcp_write+0x2ec>)
 8006454:	4829      	ldr	r0, [pc, #164]	; (80064fc <tcp_write+0x2cc>)
 8006456:	f240 2231 	movw	r2, #561	; 0x231
 800645a:	f002 fc1b 	bl	8008c94 <iprintf>
 800645e:	46b1      	mov	r9, r6
 8006460:	e7d4      	b.n	800640c <tcp_write+0x1dc>
 8006462:	2201      	movs	r2, #1
 8006464:	4631      	mov	r1, r6
 8006466:	2000      	movs	r0, #0
 8006468:	f7fd f808 	bl	800347c <pbuf_alloc>
 800646c:	4683      	mov	fp, r0
 800646e:	2800      	cmp	r0, #0
 8006470:	f000 8167 	beq.w	8006742 <tcp_write+0x512>
 8006474:	9b07      	ldr	r3, [sp, #28]
 8006476:	442b      	add	r3, r5
 8006478:	6043      	str	r3, [r0, #4]
 800647a:	e7bf      	b.n	80063fc <tcp_write+0x1cc>
 800647c:	9b04      	ldr	r3, [sp, #16]
 800647e:	9a06      	ldr	r2, [sp, #24]
 8006480:	1bdb      	subs	r3, r3, r7
 8006482:	b29b      	uxth	r3, r3
 8006484:	4293      	cmp	r3, r2
 8006486:	bf28      	it	cs
 8006488:	4613      	movcs	r3, r2
 800648a:	b29b      	uxth	r3, r3
 800648c:	ee08 3a10 	vmov	s16, r3
 8006490:	9b0a      	ldr	r3, [sp, #40]	; 0x28
 8006492:	2b00      	cmp	r3, #0
 8006494:	d046      	beq.n	8006524 <tcp_write+0x2f4>
 8006496:	fabb f38b 	clz	r3, fp
 800649a:	095b      	lsrs	r3, r3, #5
 800649c:	9302      	str	r3, [sp, #8]
 800649e:	9b08      	ldr	r3, [sp, #32]
 80064a0:	ee18 1a10 	vmov	r1, s16
 80064a4:	e9cd 4300 	strd	r4, r3, [sp]
 80064a8:	2036      	movs	r0, #54	; 0x36
 80064aa:	f10d 0336 	add.w	r3, sp, #54	; 0x36
 80064ae:	f7ff fd4b 	bl	8005f48 <tcp_pbuf_prealloc>
 80064b2:	4606      	mov	r6, r0
 80064b4:	2800      	cmp	r0, #0
 80064b6:	d056      	beq.n	8006566 <tcp_write+0x336>
 80064b8:	8943      	ldrh	r3, [r0, #10]
 80064ba:	ee18 2a10 	vmov	r2, s16
 80064be:	4293      	cmp	r3, r2
 80064c0:	d206      	bcs.n	80064d0 <tcp_write+0x2a0>
 80064c2:	4b0c      	ldr	r3, [pc, #48]	; (80064f4 <tcp_write+0x2c4>)
 80064c4:	4916      	ldr	r1, [pc, #88]	; (8006520 <tcp_write+0x2f0>)
 80064c6:	480d      	ldr	r0, [pc, #52]	; (80064fc <tcp_write+0x2cc>)
 80064c8:	f240 2266 	movw	r2, #614	; 0x266
 80064cc:	f002 fbe2 	bl	8008c94 <iprintf>
 80064d0:	9b07      	ldr	r3, [sp, #28]
 80064d2:	6870      	ldr	r0, [r6, #4]
 80064d4:	ee18 2a10 	vmov	r2, s16
 80064d8:	19d9      	adds	r1, r3, r7
 80064da:	f002 fcb6 	bl	8008e4a <memcpy>
 80064de:	4630      	mov	r0, r6
 80064e0:	f7fd f8a4 	bl	800362c <pbuf_clen>
 80064e4:	9b05      	ldr	r3, [sp, #20]
 80064e6:	4403      	add	r3, r0
 80064e8:	b29b      	uxth	r3, r3
 80064ea:	2b09      	cmp	r3, #9
 80064ec:	9305      	str	r3, [sp, #20]
 80064ee:	d963      	bls.n	80065b8 <tcp_write+0x388>
 80064f0:	4630      	mov	r0, r6
 80064f2:	e036      	b.n	8006562 <tcp_write+0x332>
 80064f4:	0800ac5e 	.word	0x0800ac5e
 80064f8:	0800ade1 	.word	0x0800ade1
 80064fc:	08009b3a 	.word	0x08009b3a
 8006500:	0800adf8 	.word	0x0800adf8
 8006504:	0800ae29 	.word	0x0800ae29
 8006508:	0800af13 	.word	0x0800af13
 800650c:	0800ae63 	.word	0x0800ae63
 8006510:	0800ae95 	.word	0x0800ae95
 8006514:	0800aeac 	.word	0x0800aeac
 8006518:	0800aecc 	.word	0x0800aecc
 800651c:	0800aeea 	.word	0x0800aeea
 8006520:	0800af42 	.word	0x0800af42
 8006524:	f8bd 3036 	ldrh.w	r3, [sp, #54]	; 0x36
 8006528:	b133      	cbz	r3, 8006538 <tcp_write+0x308>
 800652a:	4b89      	ldr	r3, [pc, #548]	; (8006750 <tcp_write+0x520>)
 800652c:	4989      	ldr	r1, [pc, #548]	; (8006754 <tcp_write+0x524>)
 800652e:	488a      	ldr	r0, [pc, #552]	; (8006758 <tcp_write+0x528>)
 8006530:	f240 2271 	movw	r2, #625	; 0x271
 8006534:	f002 fbae 	bl	8008c94 <iprintf>
 8006538:	ee18 1a10 	vmov	r1, s16
 800653c:	2201      	movs	r2, #1
 800653e:	2036      	movs	r0, #54	; 0x36
 8006540:	f7fc ff9c 	bl	800347c <pbuf_alloc>
 8006544:	b178      	cbz	r0, 8006566 <tcp_write+0x336>
 8006546:	9a07      	ldr	r2, [sp, #28]
 8006548:	900b      	str	r0, [sp, #44]	; 0x2c
 800654a:	443a      	add	r2, r7
 800654c:	6042      	str	r2, [r0, #4]
 800654e:	2100      	movs	r1, #0
 8006550:	f44f 7220 	mov.w	r2, #640	; 0x280
 8006554:	2036      	movs	r0, #54	; 0x36
 8006556:	f7fc ff91 	bl	800347c <pbuf_alloc>
 800655a:	9b0b      	ldr	r3, [sp, #44]	; 0x2c
 800655c:	4606      	mov	r6, r0
 800655e:	bb38      	cbnz	r0, 80065b0 <tcp_write+0x380>
 8006560:	4618      	mov	r0, r3
 8006562:	f7fc ff27 	bl	80033b4 <pbuf_free>
 8006566:	8b63      	ldrh	r3, [r4, #26]
 8006568:	f043 0380 	orr.w	r3, r3, #128	; 0x80
 800656c:	8363      	strh	r3, [r4, #26]
 800656e:	f1ba 0f00 	cmp.w	sl, #0
 8006572:	d002      	beq.n	800657a <tcp_write+0x34a>
 8006574:	4650      	mov	r0, sl
 8006576:	f7fc ff1d 	bl	80033b4 <pbuf_free>
 800657a:	f1bb 0f00 	cmp.w	fp, #0
 800657e:	d002      	beq.n	8006586 <tcp_write+0x356>
 8006580:	4658      	mov	r0, fp
 8006582:	f7fd fb4b 	bl	8003c1c <tcp_segs_free>
 8006586:	f8b4 3066 	ldrh.w	r3, [r4, #102]	; 0x66
 800658a:	2b00      	cmp	r3, #0
 800658c:	f43f ae8f 	beq.w	80062ae <tcp_write+0x7e>
 8006590:	6f23      	ldr	r3, [r4, #112]	; 0x70
 8006592:	2b00      	cmp	r3, #0
 8006594:	f47f ae8b 	bne.w	80062ae <tcp_write+0x7e>
 8006598:	6ee3      	ldr	r3, [r4, #108]	; 0x6c
 800659a:	2b00      	cmp	r3, #0
 800659c:	f47f ae87 	bne.w	80062ae <tcp_write+0x7e>
 80065a0:	4b6b      	ldr	r3, [pc, #428]	; (8006750 <tcp_write+0x520>)
 80065a2:	496e      	ldr	r1, [pc, #440]	; (800675c <tcp_write+0x52c>)
 80065a4:	486c      	ldr	r0, [pc, #432]	; (8006758 <tcp_write+0x528>)
 80065a6:	f240 3227 	movw	r2, #807	; 0x327
 80065aa:	f002 fb73 	bl	8008c94 <iprintf>
 80065ae:	e67e      	b.n	80062ae <tcp_write+0x7e>
 80065b0:	4619      	mov	r1, r3
 80065b2:	f7fd f857 	bl	8003664 <pbuf_cat>
 80065b6:	e792      	b.n	80064de <tcp_write+0x2ae>
 80065b8:	6de3      	ldr	r3, [r4, #92]	; 0x5c
 80065ba:	2200      	movs	r2, #0
 80065bc:	4631      	mov	r1, r6
 80065be:	9200      	str	r2, [sp, #0]
 80065c0:	443b      	add	r3, r7
 80065c2:	4620      	mov	r0, r4
 80065c4:	f7ff fd12 	bl	8005fec <tcp_create_segment>
 80065c8:	4606      	mov	r6, r0
 80065ca:	2800      	cmp	r0, #0
 80065cc:	d0cb      	beq.n	8006566 <tcp_write+0x336>
 80065ce:	f1bb 0f00 	cmp.w	fp, #0
 80065d2:	d03e      	beq.n	8006652 <tcp_write+0x422>
 80065d4:	9b09      	ldr	r3, [sp, #36]	; 0x24
 80065d6:	b933      	cbnz	r3, 80065e6 <tcp_write+0x3b6>
 80065d8:	4b5d      	ldr	r3, [pc, #372]	; (8006750 <tcp_write+0x520>)
 80065da:	4961      	ldr	r1, [pc, #388]	; (8006760 <tcp_write+0x530>)
 80065dc:	485e      	ldr	r0, [pc, #376]	; (8006758 <tcp_write+0x528>)
 80065de:	f240 22ab 	movw	r2, #683	; 0x2ab
 80065e2:	f002 fb57 	bl	8008c94 <iprintf>
 80065e6:	9b09      	ldr	r3, [sp, #36]	; 0x24
 80065e8:	601e      	str	r6, [r3, #0]
 80065ea:	ee18 3a10 	vmov	r3, s16
 80065ee:	443b      	add	r3, r7
 80065f0:	b29f      	uxth	r7, r3
 80065f2:	9609      	str	r6, [sp, #36]	; 0x24
 80065f4:	9b04      	ldr	r3, [sp, #16]
 80065f6:	429f      	cmp	r7, r3
 80065f8:	f4ff af40 	bcc.w	800647c <tcp_write+0x24c>
 80065fc:	4657      	mov	r7, sl
 80065fe:	46da      	mov	sl, fp
 8006600:	b14d      	cbz	r5, 8006616 <tcp_write+0x3e6>
 8006602:	f8d8 b004 	ldr.w	fp, [r8, #4]
 8006606:	f1bb 0f00 	cmp.w	fp, #0
 800660a:	d12f      	bne.n	800666c <tcp_write+0x43c>
 800660c:	f8b8 3008 	ldrh.w	r3, [r8, #8]
 8006610:	441d      	add	r5, r3
 8006612:	f8a8 5008 	strh.w	r5, [r8, #8]
 8006616:	f8bd 3036 	ldrh.w	r3, [sp, #54]	; 0x36
 800661a:	f8a4 3068 	strh.w	r3, [r4, #104]	; 0x68
 800661e:	2f00      	cmp	r7, #0
 8006620:	d03d      	beq.n	800669e <tcp_write+0x46e>
 8006622:	f1b8 0f00 	cmp.w	r8, #0
 8006626:	d106      	bne.n	8006636 <tcp_write+0x406>
 8006628:	4b49      	ldr	r3, [pc, #292]	; (8006750 <tcp_write+0x520>)
 800662a:	494e      	ldr	r1, [pc, #312]	; (8006764 <tcp_write+0x534>)
 800662c:	484a      	ldr	r0, [pc, #296]	; (8006758 <tcp_write+0x528>)
 800662e:	f44f 7238 	mov.w	r2, #736	; 0x2e0
 8006632:	f002 fb2f 	bl	8008c94 <iprintf>
 8006636:	f8d8 0004 	ldr.w	r0, [r8, #4]
 800663a:	4639      	mov	r1, r7
 800663c:	f7fd f812 	bl	8003664 <pbuf_cat>
 8006640:	f8b8 3008 	ldrh.w	r3, [r8, #8]
 8006644:	893a      	ldrh	r2, [r7, #8]
 8006646:	4413      	add	r3, r2
 8006648:	f8a8 3008 	strh.w	r3, [r8, #8]
 800664c:	f8c8 a000 	str.w	sl, [r8]
 8006650:	e04d      	b.n	80066ee <tcp_write+0x4be>
 8006652:	4683      	mov	fp, r0
 8006654:	e7c9      	b.n	80065ea <tcp_write+0x3ba>
 8006656:	46b9      	mov	r9, r7
 8006658:	462f      	mov	r7, r5
 800665a:	e6db      	b.n	8006414 <tcp_write+0x1e4>
 800665c:	46b9      	mov	r9, r7
 800665e:	463d      	mov	r5, r7
 8006660:	46b8      	mov	r8, r7
 8006662:	46ba      	mov	sl, r7
 8006664:	e6d6      	b.n	8006414 <tcp_write+0x1e4>
 8006666:	2700      	movs	r7, #0
 8006668:	46b9      	mov	r9, r7
 800666a:	e7c9      	b.n	8006600 <tcp_write+0x3d0>
 800666c:	f8bb 3008 	ldrh.w	r3, [fp, #8]
 8006670:	442b      	add	r3, r5
 8006672:	f8ab 3008 	strh.w	r3, [fp, #8]
 8006676:	f8db 3000 	ldr.w	r3, [fp]
 800667a:	b96b      	cbnz	r3, 8006698 <tcp_write+0x468>
 800667c:	f8db 3004 	ldr.w	r3, [fp, #4]
 8006680:	f8bb 000a 	ldrh.w	r0, [fp, #10]
 8006684:	9907      	ldr	r1, [sp, #28]
 8006686:	4418      	add	r0, r3
 8006688:	462a      	mov	r2, r5
 800668a:	f002 fbde 	bl	8008e4a <memcpy>
 800668e:	f8bb 300a 	ldrh.w	r3, [fp, #10]
 8006692:	442b      	add	r3, r5
 8006694:	f8ab 300a 	strh.w	r3, [fp, #10]
 8006698:	f8db b000 	ldr.w	fp, [fp]
 800669c:	e7b3      	b.n	8006606 <tcp_write+0x3d6>
 800669e:	f1b9 0f00 	cmp.w	r9, #0
 80066a2:	d01f      	beq.n	80066e4 <tcp_write+0x4b4>
 80066a4:	f1b8 0f00 	cmp.w	r8, #0
 80066a8:	d002      	beq.n	80066b0 <tcp_write+0x480>
 80066aa:	f8d8 3004 	ldr.w	r3, [r8, #4]
 80066ae:	b933      	cbnz	r3, 80066be <tcp_write+0x48e>
 80066b0:	4b27      	ldr	r3, [pc, #156]	; (8006750 <tcp_write+0x520>)
 80066b2:	492d      	ldr	r1, [pc, #180]	; (8006768 <tcp_write+0x538>)
 80066b4:	4828      	ldr	r0, [pc, #160]	; (8006758 <tcp_write+0x528>)
 80066b6:	f240 22e6 	movw	r2, #742	; 0x2e6
 80066ba:	f002 faeb 	bl	8008c94 <iprintf>
 80066be:	f8d8 3004 	ldr.w	r3, [r8, #4]
 80066c2:	891a      	ldrh	r2, [r3, #8]
 80066c4:	6819      	ldr	r1, [r3, #0]
 80066c6:	444a      	add	r2, r9
 80066c8:	b292      	uxth	r2, r2
 80066ca:	811a      	strh	r2, [r3, #8]
 80066cc:	b941      	cbnz	r1, 80066e0 <tcp_write+0x4b0>
 80066ce:	895a      	ldrh	r2, [r3, #10]
 80066d0:	444a      	add	r2, r9
 80066d2:	815a      	strh	r2, [r3, #10]
 80066d4:	f8b8 3008 	ldrh.w	r3, [r8, #8]
 80066d8:	4499      	add	r9, r3
 80066da:	f8a8 9008 	strh.w	r9, [r8, #8]
 80066de:	e7b5      	b.n	800664c <tcp_write+0x41c>
 80066e0:	460b      	mov	r3, r1
 80066e2:	e7ee      	b.n	80066c2 <tcp_write+0x492>
 80066e4:	f1b8 0f00 	cmp.w	r8, #0
 80066e8:	d1b0      	bne.n	800664c <tcp_write+0x41c>
 80066ea:	f8c4 a06c 	str.w	sl, [r4, #108]	; 0x6c
 80066ee:	6de3      	ldr	r3, [r4, #92]	; 0x5c
 80066f0:	9a04      	ldr	r2, [sp, #16]
 80066f2:	4413      	add	r3, r2
 80066f4:	65e3      	str	r3, [r4, #92]	; 0x5c
 80066f6:	f8b4 3064 	ldrh.w	r3, [r4, #100]	; 0x64
 80066fa:	1a9b      	subs	r3, r3, r2
 80066fc:	f8a4 3064 	strh.w	r3, [r4, #100]	; 0x64
 8006700:	9b05      	ldr	r3, [sp, #20]
 8006702:	f8a4 3066 	strh.w	r3, [r4, #102]	; 0x66
 8006706:	b153      	cbz	r3, 800671e <tcp_write+0x4ee>
 8006708:	6f23      	ldr	r3, [r4, #112]	; 0x70
 800670a:	b943      	cbnz	r3, 800671e <tcp_write+0x4ee>
 800670c:	6ee3      	ldr	r3, [r4, #108]	; 0x6c
 800670e:	b933      	cbnz	r3, 800671e <tcp_write+0x4ee>
 8006710:	4b0f      	ldr	r3, [pc, #60]	; (8006750 <tcp_write+0x520>)
 8006712:	4912      	ldr	r1, [pc, #72]	; (800675c <tcp_write+0x52c>)
 8006714:	4810      	ldr	r0, [pc, #64]	; (8006758 <tcp_write+0x528>)
 8006716:	f240 3212 	movw	r2, #786	; 0x312
 800671a:	f002 fabb 	bl	8008c94 <iprintf>
 800671e:	b176      	cbz	r6, 800673e <tcp_write+0x50e>
 8006720:	68f0      	ldr	r0, [r6, #12]
 8006722:	2800      	cmp	r0, #0
 8006724:	f43f ad9a 	beq.w	800625c <tcp_write+0x2c>
 8006728:	9b08      	ldr	r3, [sp, #32]
 800672a:	f013 0402 	ands.w	r4, r3, #2
 800672e:	d106      	bne.n	800673e <tcp_write+0x50e>
 8006730:	8985      	ldrh	r5, [r0, #12]
 8006732:	2008      	movs	r0, #8
 8006734:	f7fc f8ff 	bl	8002936 <lwip_htons>
 8006738:	68f3      	ldr	r3, [r6, #12]
 800673a:	4328      	orrs	r0, r5
 800673c:	8198      	strh	r0, [r3, #12]
 800673e:	2000      	movs	r0, #0
 8006740:	e58c      	b.n	800625c <tcp_write+0x2c>
 8006742:	f04f 0b00 	mov.w	fp, #0
 8006746:	e70e      	b.n	8006566 <tcp_write+0x336>
 8006748:	f06f 000a 	mvn.w	r0, #10
 800674c:	e586      	b.n	800625c <tcp_write+0x2c>
 800674e:	bf00      	nop
 8006750:	0800ac5e 	.word	0x0800ac5e
 8006754:	0800af80 	.word	0x0800af80
 8006758:	08009b3a 	.word	0x08009b3a
 800675c:	0800b00c 	.word	0x0800b00c
 8006760:	0800af8e 	.word	0x0800af8e
 8006764:	0800af9f 	.word	0x0800af9f
 8006768:	0800afd7 	.word	0x0800afd7

0800676c <tcp_split_unsent_seg>:
 800676c:	e92d 4ff7 	stmdb	sp!, {r0, r1, r2, r4, r5, r6, r7, r8, r9, sl, fp, lr}
 8006770:	460d      	mov	r5, r1
 8006772:	4606      	mov	r6, r0
 8006774:	b930      	cbnz	r0, 8006784 <tcp_split_unsent_seg+0x18>
 8006776:	4b5d      	ldr	r3, [pc, #372]	; (80068ec <tcp_split_unsent_seg+0x180>)
 8006778:	495d      	ldr	r1, [pc, #372]	; (80068f0 <tcp_split_unsent_seg+0x184>)
 800677a:	485e      	ldr	r0, [pc, #376]	; (80068f4 <tcp_split_unsent_seg+0x188>)
 800677c:	f240 324b 	movw	r2, #843	; 0x34b
 8006780:	f002 fa88 	bl	8008c94 <iprintf>
 8006784:	6ef4      	ldr	r4, [r6, #108]	; 0x6c
 8006786:	b914      	cbnz	r4, 800678e <tcp_split_unsent_seg+0x22>
 8006788:	f04f 30ff 	mov.w	r0, #4294967295
 800678c:	e009      	b.n	80067a2 <tcp_split_unsent_seg+0x36>
 800678e:	b95d      	cbnz	r5, 80067a8 <tcp_split_unsent_seg+0x3c>
 8006790:	4b56      	ldr	r3, [pc, #344]	; (80068ec <tcp_split_unsent_seg+0x180>)
 8006792:	4959      	ldr	r1, [pc, #356]	; (80068f8 <tcp_split_unsent_seg+0x18c>)
 8006794:	4857      	ldr	r0, [pc, #348]	; (80068f4 <tcp_split_unsent_seg+0x188>)
 8006796:	f240 3253 	movw	r2, #851	; 0x353
 800679a:	f002 fa7b 	bl	8008c94 <iprintf>
 800679e:	f06f 0005 	mvn.w	r0, #5
 80067a2:	b003      	add	sp, #12
 80067a4:	e8bd 8ff0 	ldmia.w	sp!, {r4, r5, r6, r7, r8, r9, sl, fp, pc}
 80067a8:	8923      	ldrh	r3, [r4, #8]
 80067aa:	42ab      	cmp	r3, r5
 80067ac:	d801      	bhi.n	80067b2 <tcp_split_unsent_seg+0x46>
 80067ae:	2000      	movs	r0, #0
 80067b0:	e7f7      	b.n	80067a2 <tcp_split_unsent_seg+0x36>
 80067b2:	8e73      	ldrh	r3, [r6, #50]	; 0x32
 80067b4:	42ab      	cmp	r3, r5
 80067b6:	d20f      	bcs.n	80067d8 <tcp_split_unsent_seg+0x6c>
 80067b8:	4b4c      	ldr	r3, [pc, #304]	; (80068ec <tcp_split_unsent_seg+0x180>)
 80067ba:	4950      	ldr	r1, [pc, #320]	; (80068fc <tcp_split_unsent_seg+0x190>)
 80067bc:	484d      	ldr	r0, [pc, #308]	; (80068f4 <tcp_split_unsent_seg+0x188>)
 80067be:	f240 325b 	movw	r2, #859	; 0x35b
 80067c2:	f002 fa67 	bl	8008c94 <iprintf>
 80067c6:	8923      	ldrh	r3, [r4, #8]
 80067c8:	b933      	cbnz	r3, 80067d8 <tcp_split_unsent_seg+0x6c>
 80067ca:	4b48      	ldr	r3, [pc, #288]	; (80068ec <tcp_split_unsent_seg+0x180>)
 80067cc:	494c      	ldr	r1, [pc, #304]	; (8006900 <tcp_split_unsent_seg+0x194>)
 80067ce:	4849      	ldr	r0, [pc, #292]	; (80068f4 <tcp_split_unsent_seg+0x188>)
 80067d0:	f44f 7257 	mov.w	r2, #860	; 0x35c
 80067d4:	f002 fa5e 	bl	8008c94 <iprintf>
 80067d8:	f894 b00a 	ldrb.w	fp, [r4, #10]
 80067dc:	f8b4 a008 	ldrh.w	sl, [r4, #8]
 80067e0:	ea4f 078b 	mov.w	r7, fp, lsl #2
 80067e4:	ebaa 0105 	sub.w	r1, sl, r5
 80067e8:	f007 0704 	and.w	r7, r7, #4
 80067ec:	fa1f f881 	uxth.w	r8, r1
 80067f0:	fa17 f181 	uxtah	r1, r7, r1
 80067f4:	f44f 7220 	mov.w	r2, #640	; 0x280
 80067f8:	b289      	uxth	r1, r1
 80067fa:	2036      	movs	r0, #54	; 0x36
 80067fc:	f7fc fe3e 	bl	800347c <pbuf_alloc>
 8006800:	4681      	mov	r9, r0
 8006802:	2800      	cmp	r0, #0
 8006804:	d0c0      	beq.n	8006788 <tcp_split_unsent_seg+0x1c>
 8006806:	6860      	ldr	r0, [r4, #4]
 8006808:	8922      	ldrh	r2, [r4, #8]
 800680a:	8903      	ldrh	r3, [r0, #8]
 800680c:	f8d9 1004 	ldr.w	r1, [r9, #4]
 8006810:	1a9b      	subs	r3, r3, r2
 8006812:	442b      	add	r3, r5
 8006814:	b29b      	uxth	r3, r3
 8006816:	4642      	mov	r2, r8
 8006818:	4439      	add	r1, r7
 800681a:	f7fc ffdf 	bl	80037dc <pbuf_copy_partial>
 800681e:	4540      	cmp	r0, r8
 8006820:	d15f      	bne.n	80068e2 <tcp_split_unsent_seg+0x176>
 8006822:	68e3      	ldr	r3, [r4, #12]
 8006824:	8998      	ldrh	r0, [r3, #12]
 8006826:	f7fc f886 	bl	8002936 <lwip_htons>
 800682a:	f010 0808 	ands.w	r8, r0, #8
 800682e:	b2c7      	uxtb	r7, r0
 8006830:	bf0e      	itee	eq
 8006832:	f007 073f 	andeq.w	r7, r7, #63	; 0x3f
 8006836:	f007 0737 	andne.w	r7, r7, #55	; 0x37
 800683a:	f04f 0808 	movne.w	r8, #8
 800683e:	07fb      	lsls	r3, r7, #31
 8006840:	68e3      	ldr	r3, [r4, #12]
 8006842:	6858      	ldr	r0, [r3, #4]
 8006844:	bf44      	itt	mi
 8006846:	f048 0801 	orrmi.w	r8, r8, #1
 800684a:	f007 07fe 	andmi.w	r7, r7, #254	; 0xfe
 800684e:	f7fc f875 	bl	800293c <lwip_htonl>
 8006852:	4642      	mov	r2, r8
 8006854:	182b      	adds	r3, r5, r0
 8006856:	f8cd b000 	str.w	fp, [sp]
 800685a:	4649      	mov	r1, r9
 800685c:	4630      	mov	r0, r6
 800685e:	f7ff fbc5 	bl	8005fec <tcp_create_segment>
 8006862:	4680      	mov	r8, r0
 8006864:	2800      	cmp	r0, #0
 8006866:	d03c      	beq.n	80068e2 <tcp_split_unsent_seg+0x176>
 8006868:	6860      	ldr	r0, [r4, #4]
 800686a:	f7fc fedf 	bl	800362c <pbuf_clen>
 800686e:	f8b6 3066 	ldrh.w	r3, [r6, #102]	; 0x66
 8006872:	1a18      	subs	r0, r3, r0
 8006874:	f8a6 0066 	strh.w	r0, [r6, #102]	; 0x66
 8006878:	6860      	ldr	r0, [r4, #4]
 800687a:	8903      	ldrh	r3, [r0, #8]
 800687c:	eba5 050a 	sub.w	r5, r5, sl
 8006880:	fa1f f985 	uxth.w	r9, r5
 8006884:	fa13 f585 	uxtah	r5, r3, r5
 8006888:	b2a9      	uxth	r1, r5
 800688a:	f7fc fe77 	bl	800357c <pbuf_realloc>
 800688e:	8923      	ldrh	r3, [r4, #8]
 8006890:	4499      	add	r9, r3
 8006892:	68e3      	ldr	r3, [r4, #12]
 8006894:	f8a4 9008 	strh.w	r9, [r4, #8]
 8006898:	4638      	mov	r0, r7
 800689a:	899d      	ldrh	r5, [r3, #12]
 800689c:	f7fc f84b 	bl	8002936 <lwip_htons>
 80068a0:	68e3      	ldr	r3, [r4, #12]
 80068a2:	4328      	orrs	r0, r5
 80068a4:	8198      	strh	r0, [r3, #12]
 80068a6:	6860      	ldr	r0, [r4, #4]
 80068a8:	f7fc fec0 	bl	800362c <pbuf_clen>
 80068ac:	f8b6 3066 	ldrh.w	r3, [r6, #102]	; 0x66
 80068b0:	4418      	add	r0, r3
 80068b2:	f8a6 0066 	strh.w	r0, [r6, #102]	; 0x66
 80068b6:	f8d8 0004 	ldr.w	r0, [r8, #4]
 80068ba:	f7fc feb7 	bl	800362c <pbuf_clen>
 80068be:	f8b6 3066 	ldrh.w	r3, [r6, #102]	; 0x66
 80068c2:	4418      	add	r0, r3
 80068c4:	6823      	ldr	r3, [r4, #0]
 80068c6:	f8a6 0066 	strh.w	r0, [r6, #102]	; 0x66
 80068ca:	f8c8 3000 	str.w	r3, [r8]
 80068ce:	f8c4 8000 	str.w	r8, [r4]
 80068d2:	f8d8 0000 	ldr.w	r0, [r8]
 80068d6:	2800      	cmp	r0, #0
 80068d8:	f47f af69 	bne.w	80067ae <tcp_split_unsent_seg+0x42>
 80068dc:	f8a6 0068 	strh.w	r0, [r6, #104]	; 0x68
 80068e0:	e75f      	b.n	80067a2 <tcp_split_unsent_seg+0x36>
 80068e2:	4648      	mov	r0, r9
 80068e4:	f7fc fd66 	bl	80033b4 <pbuf_free>
 80068e8:	e74e      	b.n	8006788 <tcp_split_unsent_seg+0x1c>
 80068ea:	bf00      	nop
 80068ec:	0800ac5e 	.word	0x0800ac5e
 80068f0:	0800b02a 	.word	0x0800b02a
 80068f4:	08009b3a 	.word	0x08009b3a
 80068f8:	0800b04c 	.word	0x0800b04c
 80068fc:	0800b06e 	.word	0x0800b06e
 8006900:	0800b07b 	.word	0x0800b07b

08006904 <tcp_enqueue_flags>:
 8006904:	e92d 43f7 	stmdb	sp!, {r0, r1, r2, r4, r5, r6, r7, r8, r9, lr}
 8006908:	f011 0803 	ands.w	r8, r1, #3
 800690c:	4604      	mov	r4, r0
 800690e:	460e      	mov	r6, r1
 8006910:	d106      	bne.n	8006920 <tcp_enqueue_flags+0x1c>
 8006912:	4b3e      	ldr	r3, [pc, #248]	; (8006a0c <tcp_enqueue_flags+0x108>)
 8006914:	493e      	ldr	r1, [pc, #248]	; (8006a10 <tcp_enqueue_flags+0x10c>)
 8006916:	483f      	ldr	r0, [pc, #252]	; (8006a14 <tcp_enqueue_flags+0x110>)
 8006918:	f240 4211 	movw	r2, #1041	; 0x411
 800691c:	f002 f9ba 	bl	8008c94 <iprintf>
 8006920:	b934      	cbnz	r4, 8006930 <tcp_enqueue_flags+0x2c>
 8006922:	4b3a      	ldr	r3, [pc, #232]	; (8006a0c <tcp_enqueue_flags+0x108>)
 8006924:	493c      	ldr	r1, [pc, #240]	; (8006a18 <tcp_enqueue_flags+0x114>)
 8006926:	483b      	ldr	r0, [pc, #236]	; (8006a14 <tcp_enqueue_flags+0x110>)
 8006928:	f240 4213 	movw	r2, #1043	; 0x413
 800692c:	f002 f9b2 	bl	8008c94 <iprintf>
 8006930:	f3c6 0740 	ubfx	r7, r6, #1, #1
 8006934:	ea4f 0987 	mov.w	r9, r7, lsl #2
 8006938:	f44f 7220 	mov.w	r2, #640	; 0x280
 800693c:	4649      	mov	r1, r9
 800693e:	2036      	movs	r0, #54	; 0x36
 8006940:	f7fc fd9c 	bl	800347c <pbuf_alloc>
 8006944:	4605      	mov	r5, r0
 8006946:	b940      	cbnz	r0, 800695a <tcp_enqueue_flags+0x56>
 8006948:	8b63      	ldrh	r3, [r4, #26]
 800694a:	f043 0380 	orr.w	r3, r3, #128	; 0x80
 800694e:	8363      	strh	r3, [r4, #26]
 8006950:	f04f 30ff 	mov.w	r0, #4294967295
 8006954:	b003      	add	sp, #12
 8006956:	e8bd 83f0 	ldmia.w	sp!, {r4, r5, r6, r7, r8, r9, pc}
 800695a:	8943      	ldrh	r3, [r0, #10]
 800695c:	454b      	cmp	r3, r9
 800695e:	d206      	bcs.n	800696e <tcp_enqueue_flags+0x6a>
 8006960:	4b2a      	ldr	r3, [pc, #168]	; (8006a0c <tcp_enqueue_flags+0x108>)
 8006962:	492e      	ldr	r1, [pc, #184]	; (8006a1c <tcp_enqueue_flags+0x118>)
 8006964:	482b      	ldr	r0, [pc, #172]	; (8006a14 <tcp_enqueue_flags+0x110>)
 8006966:	f240 4239 	movw	r2, #1081	; 0x439
 800696a:	f002 f993 	bl	8008c94 <iprintf>
 800696e:	9700      	str	r7, [sp, #0]
 8006970:	4629      	mov	r1, r5
 8006972:	6de3      	ldr	r3, [r4, #92]	; 0x5c
 8006974:	4632      	mov	r2, r6
 8006976:	4620      	mov	r0, r4
 8006978:	f7ff fb38 	bl	8005fec <tcp_create_segment>
 800697c:	4605      	mov	r5, r0
 800697e:	2800      	cmp	r0, #0
 8006980:	d0e2      	beq.n	8006948 <tcp_enqueue_flags+0x44>
 8006982:	68c3      	ldr	r3, [r0, #12]
 8006984:	079a      	lsls	r2, r3, #30
 8006986:	d006      	beq.n	8006996 <tcp_enqueue_flags+0x92>
 8006988:	4b20      	ldr	r3, [pc, #128]	; (8006a0c <tcp_enqueue_flags+0x108>)
 800698a:	4925      	ldr	r1, [pc, #148]	; (8006a20 <tcp_enqueue_flags+0x11c>)
 800698c:	4821      	ldr	r0, [pc, #132]	; (8006a14 <tcp_enqueue_flags+0x110>)
 800698e:	f240 4242 	movw	r2, #1090	; 0x442
 8006992:	f002 f97f 	bl	8008c94 <iprintf>
 8006996:	892b      	ldrh	r3, [r5, #8]
 8006998:	b133      	cbz	r3, 80069a8 <tcp_enqueue_flags+0xa4>
 800699a:	4b1c      	ldr	r3, [pc, #112]	; (8006a0c <tcp_enqueue_flags+0x108>)
 800699c:	4921      	ldr	r1, [pc, #132]	; (8006a24 <tcp_enqueue_flags+0x120>)
 800699e:	481d      	ldr	r0, [pc, #116]	; (8006a14 <tcp_enqueue_flags+0x110>)
 80069a0:	f240 4243 	movw	r2, #1091	; 0x443
 80069a4:	f002 f976 	bl	8008c94 <iprintf>
 80069a8:	6ee3      	ldr	r3, [r4, #108]	; 0x6c
 80069aa:	bb4b      	cbnz	r3, 8006a00 <tcp_enqueue_flags+0xfc>
 80069ac:	66e5      	str	r5, [r4, #108]	; 0x6c
 80069ae:	2300      	movs	r3, #0
 80069b0:	f8a4 3068 	strh.w	r3, [r4, #104]	; 0x68
 80069b4:	f1b8 0f00 	cmp.w	r8, #0
 80069b8:	d002      	beq.n	80069c0 <tcp_enqueue_flags+0xbc>
 80069ba:	6de3      	ldr	r3, [r4, #92]	; 0x5c
 80069bc:	3301      	adds	r3, #1
 80069be:	65e3      	str	r3, [r4, #92]	; 0x5c
 80069c0:	07f3      	lsls	r3, r6, #31
 80069c2:	bf48      	it	mi
 80069c4:	8b63      	ldrhmi	r3, [r4, #26]
 80069c6:	6868      	ldr	r0, [r5, #4]
 80069c8:	bf44      	itt	mi
 80069ca:	f043 0320 	orrmi.w	r3, r3, #32
 80069ce:	8363      	strhmi	r3, [r4, #26]
 80069d0:	f7fc fe2c 	bl	800362c <pbuf_clen>
 80069d4:	f8b4 3066 	ldrh.w	r3, [r4, #102]	; 0x66
 80069d8:	4418      	add	r0, r3
 80069da:	b280      	uxth	r0, r0
 80069dc:	f8a4 0066 	strh.w	r0, [r4, #102]	; 0x66
 80069e0:	2800      	cmp	r0, #0
 80069e2:	d0b7      	beq.n	8006954 <tcp_enqueue_flags+0x50>
 80069e4:	6f20      	ldr	r0, [r4, #112]	; 0x70
 80069e6:	b948      	cbnz	r0, 80069fc <tcp_enqueue_flags+0xf8>
 80069e8:	6ee4      	ldr	r4, [r4, #108]	; 0x6c
 80069ea:	2c00      	cmp	r4, #0
 80069ec:	d1b2      	bne.n	8006954 <tcp_enqueue_flags+0x50>
 80069ee:	4b07      	ldr	r3, [pc, #28]	; (8006a0c <tcp_enqueue_flags+0x108>)
 80069f0:	490d      	ldr	r1, [pc, #52]	; (8006a28 <tcp_enqueue_flags+0x124>)
 80069f2:	4808      	ldr	r0, [pc, #32]	; (8006a14 <tcp_enqueue_flags+0x110>)
 80069f4:	f240 4265 	movw	r2, #1125	; 0x465
 80069f8:	f002 f94c 	bl	8008c94 <iprintf>
 80069fc:	2000      	movs	r0, #0
 80069fe:	e7a9      	b.n	8006954 <tcp_enqueue_flags+0x50>
 8006a00:	461a      	mov	r2, r3
 8006a02:	681b      	ldr	r3, [r3, #0]
 8006a04:	2b00      	cmp	r3, #0
 8006a06:	d1fb      	bne.n	8006a00 <tcp_enqueue_flags+0xfc>
 8006a08:	6015      	str	r5, [r2, #0]
 8006a0a:	e7d0      	b.n	80069ae <tcp_enqueue_flags+0xaa>
 8006a0c:	0800ac5e 	.word	0x0800ac5e
 8006a10:	0800b089 	.word	0x0800b089
 8006a14:	08009b3a 	.word	0x08009b3a
 8006a18:	0800b0de 	.word	0x0800b0de
 8006a1c:	0800b0fd 	.word	0x0800b0fd
 8006a20:	0800b136 	.word	0x0800b136
 8006a24:	0800b14e 	.word	0x0800b14e
 8006a28:	0800b178 	.word	0x0800b178

08006a2c <tcp_send_fin>:
 8006a2c:	b5f8      	push	{r3, r4, r5, r6, r7, lr}
 8006a2e:	4604      	mov	r4, r0
 8006a30:	b930      	cbnz	r0, 8006a40 <tcp_send_fin+0x14>
 8006a32:	4b13      	ldr	r3, [pc, #76]	; (8006a80 <tcp_send_fin+0x54>)
 8006a34:	4913      	ldr	r1, [pc, #76]	; (8006a84 <tcp_send_fin+0x58>)
 8006a36:	4814      	ldr	r0, [pc, #80]	; (8006a88 <tcp_send_fin+0x5c>)
 8006a38:	f240 32eb 	movw	r2, #1003	; 0x3eb
 8006a3c:	f002 f92a 	bl	8008c94 <iprintf>
 8006a40:	6ee5      	ldr	r5, [r4, #108]	; 0x6c
 8006a42:	b14d      	cbz	r5, 8006a58 <tcp_send_fin+0x2c>
 8006a44:	462f      	mov	r7, r5
 8006a46:	682d      	ldr	r5, [r5, #0]
 8006a48:	2d00      	cmp	r5, #0
 8006a4a:	d1fb      	bne.n	8006a44 <tcp_send_fin+0x18>
 8006a4c:	68fb      	ldr	r3, [r7, #12]
 8006a4e:	8998      	ldrh	r0, [r3, #12]
 8006a50:	f7fb ff71 	bl	8002936 <lwip_htons>
 8006a54:	0743      	lsls	r3, r0, #29
 8006a56:	d005      	beq.n	8006a64 <tcp_send_fin+0x38>
 8006a58:	4620      	mov	r0, r4
 8006a5a:	2101      	movs	r1, #1
 8006a5c:	e8bd 40f8 	ldmia.w	sp!, {r3, r4, r5, r6, r7, lr}
 8006a60:	f7ff bf50 	b.w	8006904 <tcp_enqueue_flags>
 8006a64:	68fb      	ldr	r3, [r7, #12]
 8006a66:	2001      	movs	r0, #1
 8006a68:	899e      	ldrh	r6, [r3, #12]
 8006a6a:	f7fb ff64 	bl	8002936 <lwip_htons>
 8006a6e:	68fb      	ldr	r3, [r7, #12]
 8006a70:	4330      	orrs	r0, r6
 8006a72:	8198      	strh	r0, [r3, #12]
 8006a74:	8b63      	ldrh	r3, [r4, #26]
 8006a76:	f043 0320 	orr.w	r3, r3, #32
 8006a7a:	8363      	strh	r3, [r4, #26]
 8006a7c:	4628      	mov	r0, r5
 8006a7e:	bdf8      	pop	{r3, r4, r5, r6, r7, pc}
 8006a80:	0800ac5e 	.word	0x0800ac5e
 8006a84:	0800b1a0 	.word	0x0800b1a0
 8006a88:	08009b3a 	.word	0x08009b3a

08006a8c <tcp_rexmit_rto_prepare>:
 8006a8c:	e92d 41f0 	stmdb	sp!, {r4, r5, r6, r7, r8, lr}
 8006a90:	4604      	mov	r4, r0
 8006a92:	b930      	cbnz	r0, 8006aa2 <tcp_rexmit_rto_prepare+0x16>
 8006a94:	4b1c      	ldr	r3, [pc, #112]	; (8006b08 <tcp_rexmit_rto_prepare+0x7c>)
 8006a96:	491d      	ldr	r1, [pc, #116]	; (8006b0c <tcp_rexmit_rto_prepare+0x80>)
 8006a98:	481d      	ldr	r0, [pc, #116]	; (8006b10 <tcp_rexmit_rto_prepare+0x84>)
 8006a9a:	f240 6263 	movw	r2, #1635	; 0x663
 8006a9e:	f002 f8f9 	bl	8008c94 <iprintf>
 8006aa2:	6f25      	ldr	r5, [r4, #112]	; 0x70
 8006aa4:	b945      	cbnz	r5, 8006ab8 <tcp_rexmit_rto_prepare+0x2c>
 8006aa6:	f06f 0005 	mvn.w	r0, #5
 8006aaa:	e8bd 81f0 	ldmia.w	sp!, {r4, r5, r6, r7, r8, pc}
 8006aae:	f7ff fa35 	bl	8005f1c <tcp_output_segment_busy>
 8006ab2:	2800      	cmp	r0, #0
 8006ab4:	d1f7      	bne.n	8006aa6 <tcp_rexmit_rto_prepare+0x1a>
 8006ab6:	682d      	ldr	r5, [r5, #0]
 8006ab8:	682b      	ldr	r3, [r5, #0]
 8006aba:	4628      	mov	r0, r5
 8006abc:	2b00      	cmp	r3, #0
 8006abe:	d1f6      	bne.n	8006aae <tcp_rexmit_rto_prepare+0x22>
 8006ac0:	f7ff fa2c 	bl	8005f1c <tcp_output_segment_busy>
 8006ac4:	4606      	mov	r6, r0
 8006ac6:	2800      	cmp	r0, #0
 8006ac8:	d1ed      	bne.n	8006aa6 <tcp_rexmit_rto_prepare+0x1a>
 8006aca:	6ee3      	ldr	r3, [r4, #108]	; 0x6c
 8006acc:	602b      	str	r3, [r5, #0]
 8006ace:	6f23      	ldr	r3, [r4, #112]	; 0x70
 8006ad0:	e9c4 301b 	strd	r3, r0, [r4, #108]	; 0x6c
 8006ad4:	8b63      	ldrh	r3, [r4, #26]
 8006ad6:	f443 6300 	orr.w	r3, r3, #2048	; 0x800
 8006ada:	8363      	strh	r3, [r4, #26]
 8006adc:	68eb      	ldr	r3, [r5, #12]
 8006ade:	6858      	ldr	r0, [r3, #4]
 8006ae0:	f7fb ff2c 	bl	800293c <lwip_htonl>
 8006ae4:	68eb      	ldr	r3, [r5, #12]
 8006ae6:	f8b5 8008 	ldrh.w	r8, [r5, #8]
 8006aea:	4607      	mov	r7, r0
 8006aec:	8998      	ldrh	r0, [r3, #12]
 8006aee:	f7fb ff22 	bl	8002936 <lwip_htons>
 8006af2:	f010 0303 	ands.w	r3, r0, #3
 8006af6:	bf18      	it	ne
 8006af8:	2301      	movne	r3, #1
 8006afa:	4447      	add	r7, r8
 8006afc:	443b      	add	r3, r7
 8006afe:	64e3      	str	r3, [r4, #76]	; 0x4c
 8006b00:	6366      	str	r6, [r4, #52]	; 0x34
 8006b02:	4630      	mov	r0, r6
 8006b04:	e7d1      	b.n	8006aaa <tcp_rexmit_rto_prepare+0x1e>
 8006b06:	bf00      	nop
 8006b08:	0800ac5e 	.word	0x0800ac5e
 8006b0c:	0800b1ba 	.word	0x0800b1ba
 8006b10:	08009b3a 	.word	0x08009b3a

08006b14 <tcp_rexmit>:
 8006b14:	b5f8      	push	{r3, r4, r5, r6, r7, lr}
 8006b16:	4604      	mov	r4, r0
 8006b18:	b930      	cbnz	r0, 8006b28 <tcp_rexmit+0x14>
 8006b1a:	4b1c      	ldr	r3, [pc, #112]	; (8006b8c <tcp_rexmit+0x78>)
 8006b1c:	491c      	ldr	r1, [pc, #112]	; (8006b90 <tcp_rexmit+0x7c>)
 8006b1e:	481d      	ldr	r0, [pc, #116]	; (8006b94 <tcp_rexmit+0x80>)
 8006b20:	f240 62c1 	movw	r2, #1729	; 0x6c1
 8006b24:	f002 f8b6 	bl	8008c94 <iprintf>
 8006b28:	6f25      	ldr	r5, [r4, #112]	; 0x70
 8006b2a:	b915      	cbnz	r5, 8006b32 <tcp_rexmit+0x1e>
 8006b2c:	f06f 0005 	mvn.w	r0, #5
 8006b30:	bdf8      	pop	{r3, r4, r5, r6, r7, pc}
 8006b32:	4628      	mov	r0, r5
 8006b34:	f7ff f9f2 	bl	8005f1c <tcp_output_segment_busy>
 8006b38:	2800      	cmp	r0, #0
 8006b3a:	d1f7      	bne.n	8006b2c <tcp_rexmit+0x18>
 8006b3c:	682b      	ldr	r3, [r5, #0]
 8006b3e:	6723      	str	r3, [r4, #112]	; 0x70
 8006b40:	f104 066c 	add.w	r6, r4, #108	; 0x6c
 8006b44:	6833      	ldr	r3, [r6, #0]
 8006b46:	b993      	cbnz	r3, 8006b6e <tcp_rexmit+0x5a>
 8006b48:	6833      	ldr	r3, [r6, #0]
 8006b4a:	602b      	str	r3, [r5, #0]
 8006b4c:	6035      	str	r5, [r6, #0]
 8006b4e:	682b      	ldr	r3, [r5, #0]
 8006b50:	b90b      	cbnz	r3, 8006b56 <tcp_rexmit+0x42>
 8006b52:	f8a4 3068 	strh.w	r3, [r4, #104]	; 0x68
 8006b56:	f894 3042 	ldrb.w	r3, [r4, #66]	; 0x42
 8006b5a:	2bff      	cmp	r3, #255	; 0xff
 8006b5c:	bf18      	it	ne
 8006b5e:	3301      	addne	r3, #1
 8006b60:	f04f 0000 	mov.w	r0, #0
 8006b64:	bf18      	it	ne
 8006b66:	f884 3042 	strbne.w	r3, [r4, #66]	; 0x42
 8006b6a:	6360      	str	r0, [r4, #52]	; 0x34
 8006b6c:	e7e0      	b.n	8006b30 <tcp_rexmit+0x1c>
 8006b6e:	68db      	ldr	r3, [r3, #12]
 8006b70:	6858      	ldr	r0, [r3, #4]
 8006b72:	f7fb fee3 	bl	800293c <lwip_htonl>
 8006b76:	68eb      	ldr	r3, [r5, #12]
 8006b78:	4607      	mov	r7, r0
 8006b7a:	6858      	ldr	r0, [r3, #4]
 8006b7c:	f7fb fede 	bl	800293c <lwip_htonl>
 8006b80:	1a38      	subs	r0, r7, r0
 8006b82:	2800      	cmp	r0, #0
 8006b84:	dae0      	bge.n	8006b48 <tcp_rexmit+0x34>
 8006b86:	6836      	ldr	r6, [r6, #0]
 8006b88:	e7dc      	b.n	8006b44 <tcp_rexmit+0x30>
 8006b8a:	bf00      	nop
 8006b8c:	0800ac5e 	.word	0x0800ac5e
 8006b90:	0800b1de 	.word	0x0800b1de
 8006b94:	08009b3a 	.word	0x08009b3a

08006b98 <tcp_rexmit_fast>:
 8006b98:	b538      	push	{r3, r4, r5, lr}
 8006b9a:	4604      	mov	r4, r0
 8006b9c:	b930      	cbnz	r0, 8006bac <tcp_rexmit_fast+0x14>
 8006b9e:	4b15      	ldr	r3, [pc, #84]	; (8006bf4 <tcp_rexmit_fast+0x5c>)
 8006ba0:	4915      	ldr	r1, [pc, #84]	; (8006bf8 <tcp_rexmit_fast+0x60>)
 8006ba2:	4816      	ldr	r0, [pc, #88]	; (8006bfc <tcp_rexmit_fast+0x64>)
 8006ba4:	f240 62f9 	movw	r2, #1785	; 0x6f9
 8006ba8:	f002 f874 	bl	8008c94 <iprintf>
 8006bac:	6f23      	ldr	r3, [r4, #112]	; 0x70
 8006bae:	b303      	cbz	r3, 8006bf2 <tcp_rexmit_fast+0x5a>
 8006bb0:	8b63      	ldrh	r3, [r4, #26]
 8006bb2:	075b      	lsls	r3, r3, #29
 8006bb4:	d41d      	bmi.n	8006bf2 <tcp_rexmit_fast+0x5a>
 8006bb6:	4620      	mov	r0, r4
 8006bb8:	f7ff ffac 	bl	8006b14 <tcp_rexmit>
 8006bbc:	b9c8      	cbnz	r0, 8006bf2 <tcp_rexmit_fast+0x5a>
 8006bbe:	f8b4 1060 	ldrh.w	r1, [r4, #96]	; 0x60
 8006bc2:	f8b4 3048 	ldrh.w	r3, [r4, #72]	; 0x48
 8006bc6:	8620      	strh	r0, [r4, #48]	; 0x30
 8006bc8:	4299      	cmp	r1, r3
 8006bca:	bf28      	it	cs
 8006bcc:	4619      	movcs	r1, r3
 8006bce:	8e63      	ldrh	r3, [r4, #50]	; 0x32
 8006bd0:	005d      	lsls	r5, r3, #1
 8006bd2:	ebb5 0f51 	cmp.w	r5, r1, lsr #1
 8006bd6:	ea4f 0261 	mov.w	r2, r1, asr #1
 8006bda:	442b      	add	r3, r5
 8006bdc:	bf88      	it	hi
 8006bde:	462a      	movhi	r2, r5
 8006be0:	4413      	add	r3, r2
 8006be2:	f8a4 3048 	strh.w	r3, [r4, #72]	; 0x48
 8006be6:	8b63      	ldrh	r3, [r4, #26]
 8006be8:	f8a4 204a 	strh.w	r2, [r4, #74]	; 0x4a
 8006bec:	f043 0304 	orr.w	r3, r3, #4
 8006bf0:	8363      	strh	r3, [r4, #26]
 8006bf2:	bd38      	pop	{r3, r4, r5, pc}
 8006bf4:	0800ac5e 	.word	0x0800ac5e
 8006bf8:	0800b1f6 	.word	0x0800b1f6
 8006bfc:	08009b3a 	.word	0x08009b3a

08006c00 <tcp_rst>:
 8006c00:	e92d 47ff 	stmdb	sp!, {r0, r1, r2, r3, r4, r5, r6, r7, r8, r9, sl, lr}
 8006c04:	f8dd 8030 	ldr.w	r8, [sp, #48]	; 0x30
 8006c08:	f8bd 9034 	ldrh.w	r9, [sp, #52]	; 0x34
 8006c0c:	f8bd a038 	ldrh.w	sl, [sp, #56]	; 0x38
 8006c10:	4606      	mov	r6, r0
 8006c12:	460f      	mov	r7, r1
 8006c14:	4614      	mov	r4, r2
 8006c16:	461d      	mov	r5, r3
 8006c18:	b933      	cbnz	r3, 8006c28 <tcp_rst+0x28>
 8006c1a:	4b18      	ldr	r3, [pc, #96]	; (8006c7c <tcp_rst+0x7c>)
 8006c1c:	4918      	ldr	r1, [pc, #96]	; (8006c80 <tcp_rst+0x80>)
 8006c1e:	4819      	ldr	r0, [pc, #100]	; (8006c84 <tcp_rst+0x84>)
 8006c20:	f240 72c4 	movw	r2, #1988	; 0x7c4
 8006c24:	f002 f836 	bl	8008c94 <iprintf>
 8006c28:	f1b8 0f00 	cmp.w	r8, #0
 8006c2c:	d106      	bne.n	8006c3c <tcp_rst+0x3c>
 8006c2e:	4b13      	ldr	r3, [pc, #76]	; (8006c7c <tcp_rst+0x7c>)
 8006c30:	4915      	ldr	r1, [pc, #84]	; (8006c88 <tcp_rst+0x88>)
 8006c32:	4814      	ldr	r0, [pc, #80]	; (8006c84 <tcp_rst+0x84>)
 8006c34:	f240 72c5 	movw	r2, #1989	; 0x7c5
 8006c38:	f002 f82c 	bl	8008c94 <iprintf>
 8006c3c:	4638      	mov	r0, r7
 8006c3e:	f7fb fe7d 	bl	800293c <lwip_htonl>
 8006c42:	2314      	movs	r3, #20
 8006c44:	f246 0108 	movw	r1, #24584	; 0x6008
 8006c48:	e9cd 3101 	strd	r3, r1, [sp, #4]
 8006c4c:	4602      	mov	r2, r0
 8006c4e:	f8cd a000 	str.w	sl, [sp]
 8006c52:	4620      	mov	r0, r4
 8006c54:	464b      	mov	r3, r9
 8006c56:	2100      	movs	r1, #0
 8006c58:	f7ff fa3a 	bl	80060d0 <tcp_output_alloc_header_common.constprop.0>
 8006c5c:	4604      	mov	r4, r0
 8006c5e:	b150      	cbz	r0, 8006c76 <tcp_rst+0x76>
 8006c60:	f7ff fa9e 	bl	80061a0 <tcp_output_fill_options.constprop.0>
 8006c64:	4643      	mov	r3, r8
 8006c66:	462a      	mov	r2, r5
 8006c68:	4621      	mov	r1, r4
 8006c6a:	4630      	mov	r0, r6
 8006c6c:	b004      	add	sp, #16
 8006c6e:	e8bd 47f0 	ldmia.w	sp!, {r4, r5, r6, r7, r8, r9, sl, lr}
 8006c72:	f7ff baa5 	b.w	80061c0 <tcp_output_control_segment>
 8006c76:	b004      	add	sp, #16
 8006c78:	e8bd 87f0 	ldmia.w	sp!, {r4, r5, r6, r7, r8, r9, sl, pc}
 8006c7c:	0800ac5e 	.word	0x0800ac5e
 8006c80:	0800b213 	.word	0x0800b213
 8006c84:	08009b3a 	.word	0x08009b3a
 8006c88:	0800b22d 	.word	0x0800b22d

08006c8c <tcp_send_empty_ack>:
 8006c8c:	b538      	push	{r3, r4, r5, lr}
 8006c8e:	4604      	mov	r4, r0
 8006c90:	b930      	cbnz	r0, 8006ca0 <tcp_send_empty_ack+0x14>
 8006c92:	4b14      	ldr	r3, [pc, #80]	; (8006ce4 <tcp_send_empty_ack+0x58>)
 8006c94:	4914      	ldr	r1, [pc, #80]	; (8006ce8 <tcp_send_empty_ack+0x5c>)
 8006c96:	4815      	ldr	r0, [pc, #84]	; (8006cec <tcp_send_empty_ack+0x60>)
 8006c98:	f240 72ea 	movw	r2, #2026	; 0x7ea
 8006c9c:	f001 fffa 	bl	8008c94 <iprintf>
 8006ca0:	6d20      	ldr	r0, [r4, #80]	; 0x50
 8006ca2:	f7fb fe4b 	bl	800293c <lwip_htonl>
 8006ca6:	2100      	movs	r1, #0
 8006ca8:	4602      	mov	r2, r0
 8006caa:	4620      	mov	r0, r4
 8006cac:	f7ff fa52 	bl	8006154 <tcp_output_alloc_header.constprop.0>
 8006cb0:	4605      	mov	r5, r0
 8006cb2:	b930      	cbnz	r0, 8006cc2 <tcp_send_empty_ack+0x36>
 8006cb4:	8b63      	ldrh	r3, [r4, #26]
 8006cb6:	f06f 0001 	mvn.w	r0, #1
 8006cba:	f043 0303 	orr.w	r3, r3, #3
 8006cbe:	8363      	strh	r3, [r4, #26]
 8006cc0:	bd38      	pop	{r3, r4, r5, pc}
 8006cc2:	f7ff fa6d 	bl	80061a0 <tcp_output_fill_options.constprop.0>
 8006cc6:	1d23      	adds	r3, r4, #4
 8006cc8:	4622      	mov	r2, r4
 8006cca:	4629      	mov	r1, r5
 8006ccc:	4620      	mov	r0, r4
 8006cce:	f7ff fa77 	bl	80061c0 <tcp_output_control_segment>
 8006cd2:	8b63      	ldrh	r3, [r4, #26]
 8006cd4:	b118      	cbz	r0, 8006cde <tcp_send_empty_ack+0x52>
 8006cd6:	f043 0303 	orr.w	r3, r3, #3
 8006cda:	b29b      	uxth	r3, r3
 8006cdc:	e7ef      	b.n	8006cbe <tcp_send_empty_ack+0x32>
 8006cde:	f023 0303 	bic.w	r3, r3, #3
 8006ce2:	e7fa      	b.n	8006cda <tcp_send_empty_ack+0x4e>
 8006ce4:	0800ac5e 	.word	0x0800ac5e
 8006ce8:	0800b248 	.word	0x0800b248
 8006cec:	08009b3a 	.word	0x08009b3a

08006cf0 <tcp_output>:
 8006cf0:	e92d 4ff0 	stmdb	sp!, {r4, r5, r6, r7, r8, r9, sl, fp, lr}
 8006cf4:	4604      	mov	r4, r0
 8006cf6:	b087      	sub	sp, #28
 8006cf8:	b930      	cbnz	r0, 8006d08 <tcp_output+0x18>
 8006cfa:	4b8f      	ldr	r3, [pc, #572]	; (8006f38 <tcp_output+0x248>)
 8006cfc:	498f      	ldr	r1, [pc, #572]	; (8006f3c <tcp_output+0x24c>)
 8006cfe:	4890      	ldr	r0, [pc, #576]	; (8006f40 <tcp_output+0x250>)
 8006d00:	f240 42e1 	movw	r2, #1249	; 0x4e1
 8006d04:	f001 ffc6 	bl	8008c94 <iprintf>
 8006d08:	7d23      	ldrb	r3, [r4, #20]
 8006d0a:	2b01      	cmp	r3, #1
 8006d0c:	d106      	bne.n	8006d1c <tcp_output+0x2c>
 8006d0e:	4b8a      	ldr	r3, [pc, #552]	; (8006f38 <tcp_output+0x248>)
 8006d10:	498c      	ldr	r1, [pc, #560]	; (8006f44 <tcp_output+0x254>)
 8006d12:	488b      	ldr	r0, [pc, #556]	; (8006f40 <tcp_output+0x250>)
 8006d14:	f240 42e3 	movw	r2, #1251	; 0x4e3
 8006d18:	f001 ffbc 	bl	8008c94 <iprintf>
 8006d1c:	4b8a      	ldr	r3, [pc, #552]	; (8006f48 <tcp_output+0x258>)
 8006d1e:	681b      	ldr	r3, [r3, #0]
 8006d20:	42a3      	cmp	r3, r4
 8006d22:	f000 8171 	beq.w	8007008 <tcp_output+0x318>
 8006d26:	6ee5      	ldr	r5, [r4, #108]	; 0x6c
 8006d28:	f8b4 8048 	ldrh.w	r8, [r4, #72]	; 0x48
 8006d2c:	f8b4 6060 	ldrh.w	r6, [r4, #96]	; 0x60
 8006d30:	b94d      	cbnz	r5, 8006d46 <tcp_output+0x56>
 8006d32:	8b63      	ldrh	r3, [r4, #26]
 8006d34:	0798      	lsls	r0, r3, #30
 8006d36:	f140 8163 	bpl.w	8007000 <tcp_output+0x310>
 8006d3a:	4620      	mov	r0, r4
 8006d3c:	b007      	add	sp, #28
 8006d3e:	e8bd 4ff0 	ldmia.w	sp!, {r4, r5, r6, r7, r8, r9, sl, fp, lr}
 8006d42:	f7ff bfa3 	b.w	8006c8c <tcp_send_empty_ack>
 8006d46:	7a20      	ldrb	r0, [r4, #8]
 8006d48:	f104 0904 	add.w	r9, r4, #4
 8006d4c:	b340      	cbz	r0, 8006da0 <tcp_output+0xb0>
 8006d4e:	f7fc fa67 	bl	8003220 <netif_get_by_index>
 8006d52:	4607      	mov	r7, r0
 8006d54:	2800      	cmp	r0, #0
 8006d56:	f000 8170 	beq.w	800703a <tcp_output+0x34a>
 8006d5a:	6823      	ldr	r3, [r4, #0]
 8006d5c:	b90b      	cbnz	r3, 8006d62 <tcp_output+0x72>
 8006d5e:	6843      	ldr	r3, [r0, #4]
 8006d60:	6023      	str	r3, [r4, #0]
 8006d62:	68eb      	ldr	r3, [r5, #12]
 8006d64:	45b0      	cmp	r8, r6
 8006d66:	6858      	ldr	r0, [r3, #4]
 8006d68:	bf28      	it	cs
 8006d6a:	46b0      	movcs	r8, r6
 8006d6c:	f7fb fde6 	bl	800293c <lwip_htonl>
 8006d70:	892b      	ldrh	r3, [r5, #8]
 8006d72:	6c62      	ldr	r2, [r4, #68]	; 0x44
 8006d74:	1a9b      	subs	r3, r3, r2
 8006d76:	4418      	add	r0, r3
 8006d78:	4540      	cmp	r0, r8
 8006d7a:	d915      	bls.n	8006da8 <tcp_output+0xb8>
 8006d7c:	f8b4 3060 	ldrh.w	r3, [r4, #96]	; 0x60
 8006d80:	4543      	cmp	r3, r8
 8006d82:	d1d6      	bne.n	8006d32 <tcp_output+0x42>
 8006d84:	6f23      	ldr	r3, [r4, #112]	; 0x70
 8006d86:	2b00      	cmp	r3, #0
 8006d88:	d1d3      	bne.n	8006d32 <tcp_output+0x42>
 8006d8a:	f894 3099 	ldrb.w	r3, [r4, #153]	; 0x99
 8006d8e:	2b00      	cmp	r3, #0
 8006d90:	d1cf      	bne.n	8006d32 <tcp_output+0x42>
 8006d92:	f44f 7280 	mov.w	r2, #256	; 0x100
 8006d96:	f8a4 2098 	strh.w	r2, [r4, #152]	; 0x98
 8006d9a:	f884 309a 	strb.w	r3, [r4, #154]	; 0x9a
 8006d9e:	e7c8      	b.n	8006d32 <tcp_output+0x42>
 8006da0:	4648      	mov	r0, r9
 8006da2:	f001 f889 	bl	8007eb8 <ip4_route>
 8006da6:	e7d4      	b.n	8006d52 <tcp_output+0x62>
 8006da8:	6f26      	ldr	r6, [r4, #112]	; 0x70
 8006daa:	2300      	movs	r3, #0
 8006dac:	f884 3099 	strb.w	r3, [r4, #153]	; 0x99
 8006db0:	b126      	cbz	r6, 8006dbc <tcp_output+0xcc>
 8006db2:	4633      	mov	r3, r6
 8006db4:	6836      	ldr	r6, [r6, #0]
 8006db6:	2e00      	cmp	r6, #0
 8006db8:	d1fb      	bne.n	8006db2 <tcp_output+0xc2>
 8006dba:	461e      	mov	r6, r3
 8006dbc:	f8df a178 	ldr.w	sl, [pc, #376]	; 8006f38 <tcp_output+0x248>
 8006dc0:	f8df b17c 	ldr.w	fp, [pc, #380]	; 8006f40 <tcp_output+0x250>
 8006dc4:	e0de      	b.n	8006f84 <tcp_output+0x294>
 8006dc6:	7d23      	ldrb	r3, [r4, #20]
 8006dc8:	2b02      	cmp	r3, #2
 8006dca:	d009      	beq.n	8006de0 <tcp_output+0xf0>
 8006dcc:	68eb      	ldr	r3, [r5, #12]
 8006dce:	2010      	movs	r0, #16
 8006dd0:	899b      	ldrh	r3, [r3, #12]
 8006dd2:	9304      	str	r3, [sp, #16]
 8006dd4:	f7fb fdaf 	bl	8002936 <lwip_htons>
 8006dd8:	9b04      	ldr	r3, [sp, #16]
 8006dda:	68ea      	ldr	r2, [r5, #12]
 8006ddc:	4318      	orrs	r0, r3
 8006dde:	8190      	strh	r0, [r2, #12]
 8006de0:	4628      	mov	r0, r5
 8006de2:	f7ff f89b 	bl	8005f1c <tcp_output_segment_busy>
 8006de6:	2800      	cmp	r0, #0
 8006de8:	d170      	bne.n	8006ecc <tcp_output+0x1dc>
 8006dea:	68eb      	ldr	r3, [r5, #12]
 8006dec:	6a60      	ldr	r0, [r4, #36]	; 0x24
 8006dee:	9304      	str	r3, [sp, #16]
 8006df0:	f7fb fda4 	bl	800293c <lwip_htonl>
 8006df4:	9b04      	ldr	r3, [sp, #16]
 8006df6:	6098      	str	r0, [r3, #8]
 8006df8:	68eb      	ldr	r3, [r5, #12]
 8006dfa:	8d60      	ldrh	r0, [r4, #42]	; 0x2a
 8006dfc:	9304      	str	r3, [sp, #16]
 8006dfe:	f7fb fd9a 	bl	8002936 <lwip_htons>
 8006e02:	9b04      	ldr	r3, [sp, #16]
 8006e04:	8d62      	ldrh	r2, [r4, #42]	; 0x2a
 8006e06:	81d8      	strh	r0, [r3, #14]
 8006e08:	6a63      	ldr	r3, [r4, #36]	; 0x24
 8006e0a:	4413      	add	r3, r2
 8006e0c:	62e3      	str	r3, [r4, #44]	; 0x2c
 8006e0e:	7aaa      	ldrb	r2, [r5, #10]
 8006e10:	68eb      	ldr	r3, [r5, #12]
 8006e12:	07d2      	lsls	r2, r2, #31
 8006e14:	d44a      	bmi.n	8006eac <tcp_output+0x1bc>
 8006e16:	f103 0214 	add.w	r2, r3, #20
 8006e1a:	f9b4 3030 	ldrsh.w	r3, [r4, #48]	; 0x30
 8006e1e:	2b00      	cmp	r3, #0
 8006e20:	bfbc      	itt	lt
 8006e22:	2300      	movlt	r3, #0
 8006e24:	8623      	strhlt	r3, [r4, #48]	; 0x30
 8006e26:	6b63      	ldr	r3, [r4, #52]	; 0x34
 8006e28:	b94b      	cbnz	r3, 8006e3e <tcp_output+0x14e>
 8006e2a:	4948      	ldr	r1, [pc, #288]	; (8006f4c <tcp_output+0x25c>)
 8006e2c:	68eb      	ldr	r3, [r5, #12]
 8006e2e:	6809      	ldr	r1, [r1, #0]
 8006e30:	9204      	str	r2, [sp, #16]
 8006e32:	6361      	str	r1, [r4, #52]	; 0x34
 8006e34:	6858      	ldr	r0, [r3, #4]
 8006e36:	f7fb fd81 	bl	800293c <lwip_htonl>
 8006e3a:	9a04      	ldr	r2, [sp, #16]
 8006e3c:	63a0      	str	r0, [r4, #56]	; 0x38
 8006e3e:	6869      	ldr	r1, [r5, #4]
 8006e40:	68eb      	ldr	r3, [r5, #12]
 8006e42:	6848      	ldr	r0, [r1, #4]
 8006e44:	f8b1 c00a 	ldrh.w	ip, [r1, #10]
 8006e48:	604b      	str	r3, [r1, #4]
 8006e4a:	1a18      	subs	r0, r3, r0
 8006e4c:	b280      	uxth	r0, r0
 8006e4e:	ebac 0c00 	sub.w	ip, ip, r0
 8006e52:	f8a1 c00a 	strh.w	ip, [r1, #10]
 8006e56:	f8b1 c008 	ldrh.w	ip, [r1, #8]
 8006e5a:	ebac 0000 	sub.w	r0, ip, r0
 8006e5e:	8108      	strh	r0, [r1, #8]
 8006e60:	2100      	movs	r1, #0
 8006e62:	7419      	strb	r1, [r3, #16]
 8006e64:	7459      	strb	r1, [r3, #17]
 8006e66:	7aa9      	ldrb	r1, [r5, #10]
 8006e68:	f011 0f01 	tst.w	r1, #1
 8006e6c:	bf14      	ite	ne
 8006e6e:	2118      	movne	r1, #24
 8006e70:	2114      	moveq	r1, #20
 8006e72:	440b      	add	r3, r1
 8006e74:	429a      	cmp	r2, r3
 8006e76:	d006      	beq.n	8006e86 <tcp_output+0x196>
 8006e78:	4935      	ldr	r1, [pc, #212]	; (8006f50 <tcp_output+0x260>)
 8006e7a:	4653      	mov	r3, sl
 8006e7c:	f240 621c 	movw	r2, #1564	; 0x61c
 8006e80:	4658      	mov	r0, fp
 8006e82:	f001 ff07 	bl	8008c94 <iprintf>
 8006e86:	2306      	movs	r3, #6
 8006e88:	9702      	str	r7, [sp, #8]
 8006e8a:	9301      	str	r3, [sp, #4]
 8006e8c:	7aa3      	ldrb	r3, [r4, #10]
 8006e8e:	9300      	str	r3, [sp, #0]
 8006e90:	7ae3      	ldrb	r3, [r4, #11]
 8006e92:	6868      	ldr	r0, [r5, #4]
 8006e94:	464a      	mov	r2, r9
 8006e96:	4621      	mov	r1, r4
 8006e98:	f001 f96c 	bl	8008174 <ip4_output_if>
 8006e9c:	b1b0      	cbz	r0, 8006ecc <tcp_output+0x1dc>
 8006e9e:	8b63      	ldrh	r3, [r4, #26]
 8006ea0:	f043 0380 	orr.w	r3, r3, #128	; 0x80
 8006ea4:	8363      	strh	r3, [r4, #26]
 8006ea6:	b007      	add	sp, #28
 8006ea8:	e8bd 8ff0 	ldmia.w	sp!, {r4, r5, r6, r7, r8, r9, sl, fp, pc}
 8006eac:	464a      	mov	r2, r9
 8006eae:	4639      	mov	r1, r7
 8006eb0:	f44f 7006 	mov.w	r0, #536	; 0x218
 8006eb4:	9304      	str	r3, [sp, #16]
 8006eb6:	f7fc ff3d 	bl	8003d34 <tcp_eff_send_mss_netif>
 8006eba:	f040 7001 	orr.w	r0, r0, #33816576	; 0x2040000
 8006ebe:	f7fb fd3d 	bl	800293c <lwip_htonl>
 8006ec2:	9b04      	ldr	r3, [sp, #16]
 8006ec4:	6158      	str	r0, [r3, #20]
 8006ec6:	f103 0218 	add.w	r2, r3, #24
 8006eca:	e7a6      	b.n	8006e1a <tcp_output+0x12a>
 8006ecc:	682b      	ldr	r3, [r5, #0]
 8006ece:	66e3      	str	r3, [r4, #108]	; 0x6c
 8006ed0:	7d23      	ldrb	r3, [r4, #20]
 8006ed2:	2b02      	cmp	r3, #2
 8006ed4:	bf1e      	ittt	ne
 8006ed6:	8b63      	ldrhne	r3, [r4, #26]
 8006ed8:	f023 0303 	bicne.w	r3, r3, #3
 8006edc:	8363      	strhne	r3, [r4, #26]
 8006ede:	68eb      	ldr	r3, [r5, #12]
 8006ee0:	6858      	ldr	r0, [r3, #4]
 8006ee2:	f7fb fd2b 	bl	800293c <lwip_htonl>
 8006ee6:	8929      	ldrh	r1, [r5, #8]
 8006ee8:	68eb      	ldr	r3, [r5, #12]
 8006eea:	9104      	str	r1, [sp, #16]
 8006eec:	9005      	str	r0, [sp, #20]
 8006eee:	8998      	ldrh	r0, [r3, #12]
 8006ef0:	f7fb fd21 	bl	8002936 <lwip_htons>
 8006ef4:	e9dd 1204 	ldrd	r1, r2, [sp, #16]
 8006ef8:	f010 0303 	ands.w	r3, r0, #3
 8006efc:	bf18      	it	ne
 8006efe:	2301      	movne	r3, #1
 8006f00:	440a      	add	r2, r1
 8006f02:	441a      	add	r2, r3
 8006f04:	6d23      	ldr	r3, [r4, #80]	; 0x50
 8006f06:	1a9b      	subs	r3, r3, r2
 8006f08:	2b00      	cmp	r3, #0
 8006f0a:	bfb8      	it	lt
 8006f0c:	6522      	strlt	r2, [r4, #80]	; 0x50
 8006f0e:	892b      	ldrh	r3, [r5, #8]
 8006f10:	68ea      	ldr	r2, [r5, #12]
 8006f12:	9304      	str	r3, [sp, #16]
 8006f14:	8990      	ldrh	r0, [r2, #12]
 8006f16:	f7fb fd0e 	bl	8002936 <lwip_htons>
 8006f1a:	9b04      	ldr	r3, [sp, #16]
 8006f1c:	f010 0003 	ands.w	r0, r0, #3
 8006f20:	bf18      	it	ne
 8006f22:	2001      	movne	r0, #1
 8006f24:	42d8      	cmn	r0, r3
 8006f26:	f000 8084 	beq.w	8007032 <tcp_output+0x342>
 8006f2a:	2300      	movs	r3, #0
 8006f2c:	602b      	str	r3, [r5, #0]
 8006f2e:	6f23      	ldr	r3, [r4, #112]	; 0x70
 8006f30:	b983      	cbnz	r3, 8006f54 <tcp_output+0x264>
 8006f32:	6725      	str	r5, [r4, #112]	; 0x70
 8006f34:	462e      	mov	r6, r5
 8006f36:	e022      	b.n	8006f7e <tcp_output+0x28e>
 8006f38:	0800ac5e 	.word	0x0800ac5e
 8006f3c:	0800b268 	.word	0x0800b268
 8006f40:	08009b3a 	.word	0x08009b3a
 8006f44:	0800b280 	.word	0x0800b280
 8006f48:	200082d4 	.word	0x200082d4
 8006f4c:	200082a0 	.word	0x200082a0
 8006f50:	0800b2bd 	.word	0x0800b2bd
 8006f54:	68eb      	ldr	r3, [r5, #12]
 8006f56:	6858      	ldr	r0, [r3, #4]
 8006f58:	f7fb fcf0 	bl	800293c <lwip_htonl>
 8006f5c:	68f2      	ldr	r2, [r6, #12]
 8006f5e:	9004      	str	r0, [sp, #16]
 8006f60:	6850      	ldr	r0, [r2, #4]
 8006f62:	f7fb fceb 	bl	800293c <lwip_htonl>
 8006f66:	9b04      	ldr	r3, [sp, #16]
 8006f68:	1a18      	subs	r0, r3, r0
 8006f6a:	2800      	cmp	r0, #0
 8006f6c:	da5f      	bge.n	800702e <tcp_output+0x33e>
 8006f6e:	f104 0370 	add.w	r3, r4, #112	; 0x70
 8006f72:	681a      	ldr	r2, [r3, #0]
 8006f74:	2a00      	cmp	r2, #0
 8006f76:	d149      	bne.n	800700c <tcp_output+0x31c>
 8006f78:	681a      	ldr	r2, [r3, #0]
 8006f7a:	602a      	str	r2, [r5, #0]
 8006f7c:	601d      	str	r5, [r3, #0]
 8006f7e:	6ee5      	ldr	r5, [r4, #108]	; 0x6c
 8006f80:	2d00      	cmp	r5, #0
 8006f82:	d03a      	beq.n	8006ffa <tcp_output+0x30a>
 8006f84:	68eb      	ldr	r3, [r5, #12]
 8006f86:	6858      	ldr	r0, [r3, #4]
 8006f88:	f7fb fcd8 	bl	800293c <lwip_htonl>
 8006f8c:	6c63      	ldr	r3, [r4, #68]	; 0x44
 8006f8e:	1ac0      	subs	r0, r0, r3
 8006f90:	892b      	ldrh	r3, [r5, #8]
 8006f92:	4418      	add	r0, r3
 8006f94:	4540      	cmp	r0, r8
 8006f96:	d82e      	bhi.n	8006ff6 <tcp_output+0x306>
 8006f98:	68eb      	ldr	r3, [r5, #12]
 8006f9a:	8998      	ldrh	r0, [r3, #12]
 8006f9c:	f7fb fccb 	bl	8002936 <lwip_htons>
 8006fa0:	0741      	lsls	r1, r0, #29
 8006fa2:	d506      	bpl.n	8006fb2 <tcp_output+0x2c2>
 8006fa4:	4926      	ldr	r1, [pc, #152]	; (8007040 <tcp_output+0x350>)
 8006fa6:	4653      	mov	r3, sl
 8006fa8:	f240 5236 	movw	r2, #1334	; 0x536
 8006fac:	4658      	mov	r0, fp
 8006fae:	f001 fe71 	bl	8008c94 <iprintf>
 8006fb2:	6f23      	ldr	r3, [r4, #112]	; 0x70
 8006fb4:	2b00      	cmp	r3, #0
 8006fb6:	f43f af06 	beq.w	8006dc6 <tcp_output+0xd6>
 8006fba:	8b62      	ldrh	r2, [r4, #26]
 8006fbc:	f012 0f44 	tst.w	r2, #68	; 0x44
 8006fc0:	f47f af01 	bne.w	8006dc6 <tcp_output+0xd6>
 8006fc4:	6ee3      	ldr	r3, [r4, #108]	; 0x6c
 8006fc6:	b143      	cbz	r3, 8006fda <tcp_output+0x2ea>
 8006fc8:	6819      	ldr	r1, [r3, #0]
 8006fca:	2900      	cmp	r1, #0
 8006fcc:	f47f aefb 	bne.w	8006dc6 <tcp_output+0xd6>
 8006fd0:	8919      	ldrh	r1, [r3, #8]
 8006fd2:	8e63      	ldrh	r3, [r4, #50]	; 0x32
 8006fd4:	4299      	cmp	r1, r3
 8006fd6:	f4bf aef6 	bcs.w	8006dc6 <tcp_output+0xd6>
 8006fda:	f8b4 3064 	ldrh.w	r3, [r4, #100]	; 0x64
 8006fde:	2b00      	cmp	r3, #0
 8006fe0:	f43f aef1 	beq.w	8006dc6 <tcp_output+0xd6>
 8006fe4:	f8b4 3066 	ldrh.w	r3, [r4, #102]	; 0x66
 8006fe8:	2b08      	cmp	r3, #8
 8006fea:	f63f aeec 	bhi.w	8006dc6 <tcp_output+0xd6>
 8006fee:	f012 0fa0 	tst.w	r2, #160	; 0xa0
 8006ff2:	f47f aee8 	bne.w	8006dc6 <tcp_output+0xd6>
 8006ff6:	6ee3      	ldr	r3, [r4, #108]	; 0x6c
 8006ff8:	b913      	cbnz	r3, 8007000 <tcp_output+0x310>
 8006ffa:	2300      	movs	r3, #0
 8006ffc:	f8a4 3068 	strh.w	r3, [r4, #104]	; 0x68
 8007000:	8b63      	ldrh	r3, [r4, #26]
 8007002:	f023 0380 	bic.w	r3, r3, #128	; 0x80
 8007006:	8363      	strh	r3, [r4, #26]
 8007008:	2000      	movs	r0, #0
 800700a:	e74c      	b.n	8006ea6 <tcp_output+0x1b6>
 800700c:	68d2      	ldr	r2, [r2, #12]
 800700e:	9305      	str	r3, [sp, #20]
 8007010:	6850      	ldr	r0, [r2, #4]
 8007012:	f7fb fc93 	bl	800293c <lwip_htonl>
 8007016:	68e9      	ldr	r1, [r5, #12]
 8007018:	9004      	str	r0, [sp, #16]
 800701a:	6848      	ldr	r0, [r1, #4]
 800701c:	f7fb fc8e 	bl	800293c <lwip_htonl>
 8007020:	9a04      	ldr	r2, [sp, #16]
 8007022:	9b05      	ldr	r3, [sp, #20]
 8007024:	1a10      	subs	r0, r2, r0
 8007026:	2800      	cmp	r0, #0
 8007028:	daa6      	bge.n	8006f78 <tcp_output+0x288>
 800702a:	681b      	ldr	r3, [r3, #0]
 800702c:	e7a1      	b.n	8006f72 <tcp_output+0x282>
 800702e:	6035      	str	r5, [r6, #0]
 8007030:	e780      	b.n	8006f34 <tcp_output+0x244>
 8007032:	4628      	mov	r0, r5
 8007034:	f7fc fde4 	bl	8003c00 <tcp_seg_free>
 8007038:	e7a1      	b.n	8006f7e <tcp_output+0x28e>
 800703a:	f06f 0003 	mvn.w	r0, #3
 800703e:	e732      	b.n	8006ea6 <tcp_output+0x1b6>
 8007040:	0800b2a6 	.word	0x0800b2a6

08007044 <tcp_rexmit_rto_commit>:
 8007044:	b510      	push	{r4, lr}
 8007046:	4604      	mov	r4, r0
 8007048:	b930      	cbnz	r0, 8007058 <tcp_rexmit_rto_commit+0x14>
 800704a:	4b09      	ldr	r3, [pc, #36]	; (8007070 <tcp_rexmit_rto_commit+0x2c>)
 800704c:	4909      	ldr	r1, [pc, #36]	; (8007074 <tcp_rexmit_rto_commit+0x30>)
 800704e:	480a      	ldr	r0, [pc, #40]	; (8007078 <tcp_rexmit_rto_commit+0x34>)
 8007050:	f44f 62d3 	mov.w	r2, #1688	; 0x698
 8007054:	f001 fe1e 	bl	8008c94 <iprintf>
 8007058:	f894 3042 	ldrb.w	r3, [r4, #66]	; 0x42
 800705c:	2bff      	cmp	r3, #255	; 0xff
 800705e:	bf1c      	itt	ne
 8007060:	3301      	addne	r3, #1
 8007062:	f884 3042 	strbne.w	r3, [r4, #66]	; 0x42
 8007066:	4620      	mov	r0, r4
 8007068:	e8bd 4010 	ldmia.w	sp!, {r4, lr}
 800706c:	f7ff be40 	b.w	8006cf0 <tcp_output>
 8007070:	0800ac5e 	.word	0x0800ac5e
 8007074:	0800b2d0 	.word	0x0800b2d0
 8007078:	08009b3a 	.word	0x08009b3a

0800707c <tcp_rexmit_rto>:
 800707c:	b510      	push	{r4, lr}
 800707e:	4604      	mov	r4, r0
 8007080:	b930      	cbnz	r0, 8007090 <tcp_rexmit_rto+0x14>
 8007082:	4b08      	ldr	r3, [pc, #32]	; (80070a4 <tcp_rexmit_rto+0x28>)
 8007084:	4908      	ldr	r1, [pc, #32]	; (80070a8 <tcp_rexmit_rto+0x2c>)
 8007086:	4809      	ldr	r0, [pc, #36]	; (80070ac <tcp_rexmit_rto+0x30>)
 8007088:	f240 62ad 	movw	r2, #1709	; 0x6ad
 800708c:	f001 fe02 	bl	8008c94 <iprintf>
 8007090:	4620      	mov	r0, r4
 8007092:	f7ff fcfb 	bl	8006a8c <tcp_rexmit_rto_prepare>
 8007096:	b920      	cbnz	r0, 80070a2 <tcp_rexmit_rto+0x26>
 8007098:	4620      	mov	r0, r4
 800709a:	e8bd 4010 	ldmia.w	sp!, {r4, lr}
 800709e:	f7ff bfd1 	b.w	8007044 <tcp_rexmit_rto_commit>
 80070a2:	bd10      	pop	{r4, pc}
 80070a4:	0800ac5e 	.word	0x0800ac5e
 80070a8:	0800b2f3 	.word	0x0800b2f3
 80070ac:	08009b3a 	.word	0x08009b3a

080070b0 <tcp_keepalive>:
 80070b0:	b570      	push	{r4, r5, r6, lr}
 80070b2:	4604      	mov	r4, r0
 80070b4:	b930      	cbnz	r0, 80070c4 <tcp_keepalive+0x14>
 80070b6:	4b0f      	ldr	r3, [pc, #60]	; (80070f4 <tcp_keepalive+0x44>)
 80070b8:	490f      	ldr	r1, [pc, #60]	; (80070f8 <tcp_keepalive+0x48>)
 80070ba:	4810      	ldr	r0, [pc, #64]	; (80070fc <tcp_keepalive+0x4c>)
 80070bc:	f640 0224 	movw	r2, #2084	; 0x824
 80070c0:	f001 fde8 	bl	8008c94 <iprintf>
 80070c4:	6d20      	ldr	r0, [r4, #80]	; 0x50
 80070c6:	3801      	subs	r0, #1
 80070c8:	f7fb fc38 	bl	800293c <lwip_htonl>
 80070cc:	2100      	movs	r1, #0
 80070ce:	4602      	mov	r2, r0
 80070d0:	4620      	mov	r0, r4
 80070d2:	f7ff f83f 	bl	8006154 <tcp_output_alloc_header.constprop.0>
 80070d6:	4605      	mov	r5, r0
 80070d8:	b148      	cbz	r0, 80070ee <tcp_keepalive+0x3e>
 80070da:	f7ff f861 	bl	80061a0 <tcp_output_fill_options.constprop.0>
 80070de:	1d23      	adds	r3, r4, #4
 80070e0:	4622      	mov	r2, r4
 80070e2:	4629      	mov	r1, r5
 80070e4:	4620      	mov	r0, r4
 80070e6:	e8bd 4070 	ldmia.w	sp!, {r4, r5, r6, lr}
 80070ea:	f7ff b869 	b.w	80061c0 <tcp_output_control_segment>
 80070ee:	f04f 30ff 	mov.w	r0, #4294967295
 80070f2:	bd70      	pop	{r4, r5, r6, pc}
 80070f4:	0800ac5e 	.word	0x0800ac5e
 80070f8:	0800b30f 	.word	0x0800b30f
 80070fc:	08009b3a 	.word	0x08009b3a

08007100 <tcp_zero_window_probe>:
 8007100:	e92d 41f0 	stmdb	sp!, {r4, r5, r6, r7, r8, lr}
 8007104:	4606      	mov	r6, r0
 8007106:	b930      	cbnz	r0, 8007116 <tcp_zero_window_probe+0x16>
 8007108:	4b2c      	ldr	r3, [pc, #176]	; (80071bc <tcp_zero_window_probe+0xbc>)
 800710a:	492d      	ldr	r1, [pc, #180]	; (80071c0 <tcp_zero_window_probe+0xc0>)
 800710c:	482d      	ldr	r0, [pc, #180]	; (80071c4 <tcp_zero_window_probe+0xc4>)
 800710e:	f640 024f 	movw	r2, #2127	; 0x84f
 8007112:	f001 fdbf 	bl	8008c94 <iprintf>
 8007116:	6ef5      	ldr	r5, [r6, #108]	; 0x6c
 8007118:	2d00      	cmp	r5, #0
 800711a:	d048      	beq.n	80071ae <tcp_zero_window_probe+0xae>
 800711c:	f896 309a 	ldrb.w	r3, [r6, #154]	; 0x9a
 8007120:	2bff      	cmp	r3, #255	; 0xff
 8007122:	bf1c      	itt	ne
 8007124:	3301      	addne	r3, #1
 8007126:	f886 309a 	strbne.w	r3, [r6, #154]	; 0x9a
 800712a:	68eb      	ldr	r3, [r5, #12]
 800712c:	8998      	ldrh	r0, [r3, #12]
 800712e:	f7fb fc02 	bl	8002936 <lwip_htons>
 8007132:	f010 0401 	ands.w	r4, r0, #1
 8007136:	bf18      	it	ne
 8007138:	892c      	ldrhne	r4, [r5, #8]
 800713a:	68eb      	ldr	r3, [r5, #12]
 800713c:	bf1c      	itt	ne
 800713e:	fab4 f484 	clzne	r4, r4
 8007142:	0964      	lsrne	r4, r4, #5
 8007144:	685a      	ldr	r2, [r3, #4]
 8007146:	f084 0101 	eor.w	r1, r4, #1
 800714a:	4630      	mov	r0, r6
 800714c:	f7ff f802 	bl	8006154 <tcp_output_alloc_header.constprop.0>
 8007150:	4607      	mov	r7, r0
 8007152:	b378      	cbz	r0, 80071b4 <tcp_zero_window_probe+0xb4>
 8007154:	f8d0 8004 	ldr.w	r8, [r0, #4]
 8007158:	b1f4      	cbz	r4, 8007198 <tcp_zero_window_probe+0x98>
 800715a:	2011      	movs	r0, #17
 800715c:	f9b8 400c 	ldrsh.w	r4, [r8, #12]
 8007160:	f7fb fbe9 	bl	8002936 <lwip_htons>
 8007164:	f424 547c 	bic.w	r4, r4, #16128	; 0x3f00
 8007168:	4320      	orrs	r0, r4
 800716a:	f8a8 000c 	strh.w	r0, [r8, #12]
 800716e:	68eb      	ldr	r3, [r5, #12]
 8007170:	6858      	ldr	r0, [r3, #4]
 8007172:	f7fb fbe3 	bl	800293c <lwip_htonl>
 8007176:	6d33      	ldr	r3, [r6, #80]	; 0x50
 8007178:	3001      	adds	r0, #1
 800717a:	1a1b      	subs	r3, r3, r0
 800717c:	2b00      	cmp	r3, #0
 800717e:	bfb8      	it	lt
 8007180:	6530      	strlt	r0, [r6, #80]	; 0x50
 8007182:	4638      	mov	r0, r7
 8007184:	f7ff f80c 	bl	80061a0 <tcp_output_fill_options.constprop.0>
 8007188:	1d33      	adds	r3, r6, #4
 800718a:	4632      	mov	r2, r6
 800718c:	4639      	mov	r1, r7
 800718e:	4630      	mov	r0, r6
 8007190:	e8bd 41f0 	ldmia.w	sp!, {r4, r5, r6, r7, r8, lr}
 8007194:	f7ff b814 	b.w	80061c0 <tcp_output_control_segment>
 8007198:	6868      	ldr	r0, [r5, #4]
 800719a:	892a      	ldrh	r2, [r5, #8]
 800719c:	8903      	ldrh	r3, [r0, #8]
 800719e:	1a9b      	subs	r3, r3, r2
 80071a0:	b29b      	uxth	r3, r3
 80071a2:	2201      	movs	r2, #1
 80071a4:	f108 0114 	add.w	r1, r8, #20
 80071a8:	f7fc fb18 	bl	80037dc <pbuf_copy_partial>
 80071ac:	e7df      	b.n	800716e <tcp_zero_window_probe+0x6e>
 80071ae:	4628      	mov	r0, r5
 80071b0:	e8bd 81f0 	ldmia.w	sp!, {r4, r5, r6, r7, r8, pc}
 80071b4:	f04f 30ff 	mov.w	r0, #4294967295
 80071b8:	e7fa      	b.n	80071b0 <tcp_zero_window_probe+0xb0>
 80071ba:	bf00      	nop
 80071bc:	0800ac5e 	.word	0x0800ac5e
 80071c0:	0800b32a 	.word	0x0800b32a
 80071c4:	08009b3a 	.word	0x08009b3a

080071c8 <sys_timeout_abs>:
 80071c8:	b570      	push	{r4, r5, r6, lr}
 80071ca:	4604      	mov	r4, r0
 80071cc:	2006      	movs	r0, #6
 80071ce:	460e      	mov	r6, r1
 80071d0:	4615      	mov	r5, r2
 80071d2:	f7fb fe4d 	bl	8002e70 <memp_malloc>
 80071d6:	b938      	cbnz	r0, 80071e8 <sys_timeout_abs+0x20>
 80071d8:	e8bd 4070 	ldmia.w	sp!, {r4, r5, r6, lr}
 80071dc:	4b0f      	ldr	r3, [pc, #60]	; (800721c <sys_timeout_abs+0x54>)
 80071de:	4910      	ldr	r1, [pc, #64]	; (8007220 <sys_timeout_abs+0x58>)
 80071e0:	4810      	ldr	r0, [pc, #64]	; (8007224 <sys_timeout_abs+0x5c>)
 80071e2:	22be      	movs	r2, #190	; 0xbe
 80071e4:	f001 bd56 	b.w	8008c94 <iprintf>
 80071e8:	4a0f      	ldr	r2, [pc, #60]	; (8007228 <sys_timeout_abs+0x60>)
 80071ea:	6044      	str	r4, [r0, #4]
 80071ec:	2300      	movs	r3, #0
 80071ee:	6003      	str	r3, [r0, #0]
 80071f0:	6813      	ldr	r3, [r2, #0]
 80071f2:	e9c0 6502 	strd	r6, r5, [r0, #8]
 80071f6:	b90b      	cbnz	r3, 80071fc <sys_timeout_abs+0x34>
 80071f8:	6010      	str	r0, [r2, #0]
 80071fa:	bd70      	pop	{r4, r5, r6, pc}
 80071fc:	6859      	ldr	r1, [r3, #4]
 80071fe:	1a61      	subs	r1, r4, r1
 8007200:	2900      	cmp	r1, #0
 8007202:	da01      	bge.n	8007208 <sys_timeout_abs+0x40>
 8007204:	6003      	str	r3, [r0, #0]
 8007206:	e7f7      	b.n	80071f8 <sys_timeout_abs+0x30>
 8007208:	4619      	mov	r1, r3
 800720a:	681b      	ldr	r3, [r3, #0]
 800720c:	b11b      	cbz	r3, 8007216 <sys_timeout_abs+0x4e>
 800720e:	685a      	ldr	r2, [r3, #4]
 8007210:	1aa2      	subs	r2, r4, r2
 8007212:	2a00      	cmp	r2, #0
 8007214:	daf8      	bge.n	8007208 <sys_timeout_abs+0x40>
 8007216:	6003      	str	r3, [r0, #0]
 8007218:	6008      	str	r0, [r1, #0]
 800721a:	e7ee      	b.n	80071fa <sys_timeout_abs+0x32>
 800721c:	0800b34d 	.word	0x0800b34d
 8007220:	0800b381 	.word	0x0800b381
 8007224:	08009b3a 	.word	0x08009b3a
 8007228:	200082f0 	.word	0x200082f0

0800722c <lwip_cyclic_timer>:
 800722c:	b538      	push	{r3, r4, r5, lr}
 800722e:	6843      	ldr	r3, [r0, #4]
 8007230:	4604      	mov	r4, r0
 8007232:	4798      	blx	r3
 8007234:	f7fb fa00 	bl	8002638 <sys_now>
 8007238:	4b07      	ldr	r3, [pc, #28]	; (8007258 <lwip_cyclic_timer+0x2c>)
 800723a:	6825      	ldr	r5, [r4, #0]
 800723c:	681b      	ldr	r3, [r3, #0]
 800723e:	4907      	ldr	r1, [pc, #28]	; (800725c <lwip_cyclic_timer+0x30>)
 8007240:	442b      	add	r3, r5
 8007242:	1a1a      	subs	r2, r3, r0
 8007244:	2a00      	cmp	r2, #0
 8007246:	bfb8      	it	lt
 8007248:	1940      	addlt	r0, r0, r5
 800724a:	4622      	mov	r2, r4
 800724c:	bfa8      	it	ge
 800724e:	4618      	movge	r0, r3
 8007250:	e8bd 4038 	ldmia.w	sp!, {r3, r4, r5, lr}
 8007254:	f7ff bfb8 	b.w	80071c8 <sys_timeout_abs>
 8007258:	200082ec 	.word	0x200082ec
 800725c:	0800722d 	.word	0x0800722d

08007260 <sys_timeout>:
 8007260:	f1b0 4f80 	cmp.w	r0, #1073741824	; 0x40000000
 8007264:	b570      	push	{r4, r5, r6, lr}
 8007266:	4604      	mov	r4, r0
 8007268:	460d      	mov	r5, r1
 800726a:	4616      	mov	r6, r2
 800726c:	d306      	bcc.n	800727c <sys_timeout+0x1c>
 800726e:	4b08      	ldr	r3, [pc, #32]	; (8007290 <sys_timeout+0x30>)
 8007270:	4908      	ldr	r1, [pc, #32]	; (8007294 <sys_timeout+0x34>)
 8007272:	4809      	ldr	r0, [pc, #36]	; (8007298 <sys_timeout+0x38>)
 8007274:	f240 1229 	movw	r2, #297	; 0x129
 8007278:	f001 fd0c 	bl	8008c94 <iprintf>
 800727c:	f7fb f9dc 	bl	8002638 <sys_now>
 8007280:	4632      	mov	r2, r6
 8007282:	4629      	mov	r1, r5
 8007284:	4420      	add	r0, r4
 8007286:	e8bd 4070 	ldmia.w	sp!, {r4, r5, r6, lr}
 800728a:	f7ff bf9d 	b.w	80071c8 <sys_timeout_abs>
 800728e:	bf00      	nop
 8007290:	0800b34d 	.word	0x0800b34d
 8007294:	0800b3be 	.word	0x0800b3be
 8007298:	08009b3a 	.word	0x08009b3a

0800729c <tcp_timer_needed>:
 800729c:	4b08      	ldr	r3, [pc, #32]	; (80072c0 <tcp_timer_needed+0x24>)
 800729e:	681a      	ldr	r2, [r3, #0]
 80072a0:	b962      	cbnz	r2, 80072bc <tcp_timer_needed+0x20>
 80072a2:	4a08      	ldr	r2, [pc, #32]	; (80072c4 <tcp_timer_needed+0x28>)
 80072a4:	6812      	ldr	r2, [r2, #0]
 80072a6:	b912      	cbnz	r2, 80072ae <tcp_timer_needed+0x12>
 80072a8:	4a07      	ldr	r2, [pc, #28]	; (80072c8 <tcp_timer_needed+0x2c>)
 80072aa:	6812      	ldr	r2, [r2, #0]
 80072ac:	b132      	cbz	r2, 80072bc <tcp_timer_needed+0x20>
 80072ae:	2201      	movs	r2, #1
 80072b0:	601a      	str	r2, [r3, #0]
 80072b2:	4906      	ldr	r1, [pc, #24]	; (80072cc <tcp_timer_needed+0x30>)
 80072b4:	2200      	movs	r2, #0
 80072b6:	20fa      	movs	r0, #250	; 0xfa
 80072b8:	f7ff bfd2 	b.w	8007260 <sys_timeout>
 80072bc:	4770      	bx	lr
 80072be:	bf00      	nop
 80072c0:	200082f4 	.word	0x200082f4
 80072c4:	20008290 	.word	0x20008290
 80072c8:	200082a8 	.word	0x200082a8
 80072cc:	080072d1 	.word	0x080072d1

080072d0 <tcpip_tcp_timer>:
 80072d0:	b508      	push	{r3, lr}
 80072d2:	f7fd fb1d 	bl	8004910 <tcp_tmr>
 80072d6:	4b08      	ldr	r3, [pc, #32]	; (80072f8 <tcpip_tcp_timer+0x28>)
 80072d8:	681b      	ldr	r3, [r3, #0]
 80072da:	b913      	cbnz	r3, 80072e2 <tcpip_tcp_timer+0x12>
 80072dc:	4b07      	ldr	r3, [pc, #28]	; (80072fc <tcpip_tcp_timer+0x2c>)
 80072de:	681b      	ldr	r3, [r3, #0]
 80072e0:	b133      	cbz	r3, 80072f0 <tcpip_tcp_timer+0x20>
 80072e2:	e8bd 4008 	ldmia.w	sp!, {r3, lr}
 80072e6:	4906      	ldr	r1, [pc, #24]	; (8007300 <tcpip_tcp_timer+0x30>)
 80072e8:	2200      	movs	r2, #0
 80072ea:	20fa      	movs	r0, #250	; 0xfa
 80072ec:	f7ff bfb8 	b.w	8007260 <sys_timeout>
 80072f0:	4a04      	ldr	r2, [pc, #16]	; (8007304 <tcpip_tcp_timer+0x34>)
 80072f2:	6013      	str	r3, [r2, #0]
 80072f4:	bd08      	pop	{r3, pc}
 80072f6:	bf00      	nop
 80072f8:	20008290 	.word	0x20008290
 80072fc:	200082a8 	.word	0x200082a8
 8007300:	080072d1 	.word	0x080072d1
 8007304:	200082f4 	.word	0x200082f4

08007308 <sys_timeouts_init>:
 8007308:	b510      	push	{r4, lr}
 800730a:	4c08      	ldr	r4, [pc, #32]	; (800732c <sys_timeouts_init+0x24>)
 800730c:	4908      	ldr	r1, [pc, #32]	; (8007330 <sys_timeouts_init+0x28>)
 800730e:	f104 0208 	add.w	r2, r4, #8
 8007312:	f44f 707a 	mov.w	r0, #1000	; 0x3e8
 8007316:	f7ff ffa3 	bl	8007260 <sys_timeout>
 800731a:	f104 0210 	add.w	r2, r4, #16
 800731e:	4904      	ldr	r1, [pc, #16]	; (8007330 <sys_timeouts_init+0x28>)
 8007320:	e8bd 4010 	ldmia.w	sp!, {r4, lr}
 8007324:	f44f 707a 	mov.w	r0, #1000	; 0x3e8
 8007328:	f7ff bf9a 	b.w	8007260 <sys_timeout>
 800732c:	0800b3f4 	.word	0x0800b3f4
 8007330:	0800722d 	.word	0x0800722d

08007334 <sys_check_timeouts>:
 8007334:	e92d 43f8 	stmdb	sp!, {r3, r4, r5, r6, r7, r8, r9, lr}
 8007338:	f7fb f97e 	bl	8002638 <sys_now>
 800733c:	f8df 8044 	ldr.w	r8, [pc, #68]	; 8007384 <sys_check_timeouts+0x50>
 8007340:	f8df 9044 	ldr.w	r9, [pc, #68]	; 8007388 <sys_check_timeouts+0x54>
 8007344:	4604      	mov	r4, r0
 8007346:	4e0e      	ldr	r6, [pc, #56]	; (8007380 <sys_check_timeouts+0x4c>)
 8007348:	f898 3000 	ldrb.w	r3, [r8]
 800734c:	b10b      	cbz	r3, 8007352 <sys_check_timeouts+0x1e>
 800734e:	f7fb ffa9 	bl	80032a4 <pbuf_free_ooseq>
 8007352:	6831      	ldr	r1, [r6, #0]
 8007354:	b189      	cbz	r1, 800737a <sys_check_timeouts+0x46>
 8007356:	684b      	ldr	r3, [r1, #4]
 8007358:	1ae2      	subs	r2, r4, r3
 800735a:	2a00      	cmp	r2, #0
 800735c:	db0d      	blt.n	800737a <sys_check_timeouts+0x46>
 800735e:	e9d1 5702 	ldrd	r5, r7, [r1, #8]
 8007362:	680a      	ldr	r2, [r1, #0]
 8007364:	6032      	str	r2, [r6, #0]
 8007366:	2006      	movs	r0, #6
 8007368:	f8c9 3000 	str.w	r3, [r9]
 800736c:	f7fb fdb0 	bl	8002ed0 <memp_free>
 8007370:	2d00      	cmp	r5, #0
 8007372:	d0e9      	beq.n	8007348 <sys_check_timeouts+0x14>
 8007374:	4638      	mov	r0, r7
 8007376:	47a8      	blx	r5
 8007378:	e7e5      	b.n	8007346 <sys_check_timeouts+0x12>
 800737a:	e8bd 83f8 	ldmia.w	sp!, {r3, r4, r5, r6, r7, r8, r9, pc}
 800737e:	bf00      	nop
 8007380:	200082f0 	.word	0x200082f0
 8007384:	2000828d 	.word	0x2000828d
 8007388:	200082ec 	.word	0x200082ec

0800738c <udp_init>:
 800738c:	b508      	push	{r3, lr}
 800738e:	f001 fb81 	bl	8008a94 <rand>
 8007392:	4b03      	ldr	r3, [pc, #12]	; (80073a0 <udp_init+0x14>)
 8007394:	ea6f 4080 	mvn.w	r0, r0, lsl #18
 8007398:	ea6f 4090 	mvn.w	r0, r0, lsr #18
 800739c:	8018      	strh	r0, [r3, #0]
 800739e:	bd08      	pop	{r3, pc}
 80073a0:	20000026 	.word	0x20000026

080073a4 <udp_input>:
 80073a4:	e92d 4ff0 	stmdb	sp!, {r4, r5, r6, r7, r8, r9, sl, fp, lr}
 80073a8:	4688      	mov	r8, r1
 80073aa:	b085      	sub	sp, #20
 80073ac:	4606      	mov	r6, r0
 80073ae:	b928      	cbnz	r0, 80073bc <udp_input+0x18>
 80073b0:	4b5f      	ldr	r3, [pc, #380]	; (8007530 <udp_input+0x18c>)
 80073b2:	4960      	ldr	r1, [pc, #384]	; (8007534 <udp_input+0x190>)
 80073b4:	4860      	ldr	r0, [pc, #384]	; (8007538 <udp_input+0x194>)
 80073b6:	22cf      	movs	r2, #207	; 0xcf
 80073b8:	f001 fc6c 	bl	8008c94 <iprintf>
 80073bc:	f1b8 0f00 	cmp.w	r8, #0
 80073c0:	d105      	bne.n	80073ce <udp_input+0x2a>
 80073c2:	4b5b      	ldr	r3, [pc, #364]	; (8007530 <udp_input+0x18c>)
 80073c4:	495d      	ldr	r1, [pc, #372]	; (800753c <udp_input+0x198>)
 80073c6:	485c      	ldr	r0, [pc, #368]	; (8007538 <udp_input+0x194>)
 80073c8:	22d0      	movs	r2, #208	; 0xd0
 80073ca:	f001 fc63 	bl	8008c94 <iprintf>
 80073ce:	8973      	ldrh	r3, [r6, #10]
 80073d0:	2b07      	cmp	r3, #7
 80073d2:	d805      	bhi.n	80073e0 <udp_input+0x3c>
 80073d4:	4630      	mov	r0, r6
 80073d6:	b005      	add	sp, #20
 80073d8:	e8bd 4ff0 	ldmia.w	sp!, {r4, r5, r6, r7, r8, r9, sl, fp, lr}
 80073dc:	f7fb bfea 	b.w	80033b4 <pbuf_free>
 80073e0:	4f57      	ldr	r7, [pc, #348]	; (8007540 <udp_input+0x19c>)
 80073e2:	6874      	ldr	r4, [r6, #4]
 80073e4:	6839      	ldr	r1, [r7, #0]
 80073e6:	6978      	ldr	r0, [r7, #20]
 80073e8:	f8df b164 	ldr.w	fp, [pc, #356]	; 8007550 <udp_input+0x1ac>
 80073ec:	f000 fed3 	bl	8008196 <ip4_addr_isbroadcast_u32>
 80073f0:	4681      	mov	r9, r0
 80073f2:	8820      	ldrh	r0, [r4, #0]
 80073f4:	f7fb fa9f 	bl	8002936 <lwip_htons>
 80073f8:	9002      	str	r0, [sp, #8]
 80073fa:	8860      	ldrh	r0, [r4, #2]
 80073fc:	f7fb fa9b 	bl	8002936 <lwip_htons>
 8007400:	2500      	movs	r5, #0
 8007402:	f8db 4000 	ldr.w	r4, [fp]
 8007406:	f8df c128 	ldr.w	ip, [pc, #296]	; 8007530 <udp_input+0x18c>
 800740a:	494e      	ldr	r1, [pc, #312]	; (8007544 <udp_input+0x1a0>)
 800740c:	9003      	str	r0, [sp, #12]
 800740e:	46aa      	mov	sl, r5
 8007410:	b99c      	cbnz	r4, 800743a <udp_input+0x96>
 8007412:	b925      	cbnz	r5, 800741e <udp_input+0x7a>
 8007414:	f8d8 2004 	ldr.w	r2, [r8, #4]
 8007418:	697b      	ldr	r3, [r7, #20]
 800741a:	429a      	cmp	r2, r3
 800741c:	d1da      	bne.n	80073d4 <udp_input+0x30>
 800741e:	2108      	movs	r1, #8
 8007420:	4630      	mov	r0, r6
 8007422:	f7fb ff93 	bl	800334c <pbuf_remove_header>
 8007426:	2800      	cmp	r0, #0
 8007428:	d05e      	beq.n	80074e8 <udp_input+0x144>
 800742a:	4b41      	ldr	r3, [pc, #260]	; (8007530 <udp_input+0x18c>)
 800742c:	4946      	ldr	r1, [pc, #280]	; (8007548 <udp_input+0x1a4>)
 800742e:	4842      	ldr	r0, [pc, #264]	; (8007538 <udp_input+0x194>)
 8007430:	f44f 72b8 	mov.w	r2, #368	; 0x170
 8007434:	f001 fc2e 	bl	8008c94 <iprintf>
 8007438:	e7cc      	b.n	80073d4 <udp_input+0x30>
 800743a:	8a62      	ldrh	r2, [r4, #18]
 800743c:	9803      	ldr	r0, [sp, #12]
 800743e:	4282      	cmp	r2, r0
 8007440:	d14d      	bne.n	80074de <udp_input+0x13a>
 8007442:	f1b8 0f00 	cmp.w	r8, #0
 8007446:	d107      	bne.n	8007458 <udp_input+0xb4>
 8007448:	4663      	mov	r3, ip
 800744a:	483b      	ldr	r0, [pc, #236]	; (8007538 <udp_input+0x194>)
 800744c:	2288      	movs	r2, #136	; 0x88
 800744e:	f001 fc21 	bl	8008c94 <iprintf>
 8007452:	f8df c0dc 	ldr.w	ip, [pc, #220]	; 8007530 <udp_input+0x18c>
 8007456:	493b      	ldr	r1, [pc, #236]	; (8007544 <udp_input+0x1a0>)
 8007458:	7a20      	ldrb	r0, [r4, #8]
 800745a:	b130      	cbz	r0, 800746a <udp_input+0xc6>
 800745c:	687a      	ldr	r2, [r7, #4]
 800745e:	f892 2030 	ldrb.w	r2, [r2, #48]	; 0x30
 8007462:	3201      	adds	r2, #1
 8007464:	b2d2      	uxtb	r2, r2
 8007466:	4290      	cmp	r0, r2
 8007468:	d139      	bne.n	80074de <udp_input+0x13a>
 800746a:	6822      	ldr	r2, [r4, #0]
 800746c:	f1b9 0f00 	cmp.w	r9, #0
 8007470:	d030      	beq.n	80074d4 <udp_input+0x130>
 8007472:	b13a      	cbz	r2, 8007484 <udp_input+0xe0>
 8007474:	6978      	ldr	r0, [r7, #20]
 8007476:	1c43      	adds	r3, r0, #1
 8007478:	d004      	beq.n	8007484 <udp_input+0xe0>
 800747a:	f8d8 3008 	ldr.w	r3, [r8, #8]
 800747e:	4050      	eors	r0, r2
 8007480:	4218      	tst	r0, r3
 8007482:	d12c      	bne.n	80074de <udp_input+0x13a>
 8007484:	7c20      	ldrb	r0, [r4, #16]
 8007486:	0743      	lsls	r3, r0, #29
 8007488:	d40e      	bmi.n	80074a8 <udp_input+0x104>
 800748a:	b35d      	cbz	r5, 80074e4 <udp_input+0x140>
 800748c:	f1b9 0f00 	cmp.w	r9, #0
 8007490:	d00a      	beq.n	80074a8 <udp_input+0x104>
 8007492:	6978      	ldr	r0, [r7, #20]
 8007494:	3001      	adds	r0, #1
 8007496:	d107      	bne.n	80074a8 <udp_input+0x104>
 8007498:	f8d8 0004 	ldr.w	r0, [r8, #4]
 800749c:	682b      	ldr	r3, [r5, #0]
 800749e:	4283      	cmp	r3, r0
 80074a0:	d002      	beq.n	80074a8 <udp_input+0x104>
 80074a2:	4290      	cmp	r0, r2
 80074a4:	bf08      	it	eq
 80074a6:	4625      	moveq	r5, r4
 80074a8:	8aa2      	ldrh	r2, [r4, #20]
 80074aa:	9b02      	ldr	r3, [sp, #8]
 80074ac:	429a      	cmp	r2, r3
 80074ae:	d116      	bne.n	80074de <udp_input+0x13a>
 80074b0:	6862      	ldr	r2, [r4, #4]
 80074b2:	b112      	cbz	r2, 80074ba <udp_input+0x116>
 80074b4:	6938      	ldr	r0, [r7, #16]
 80074b6:	4282      	cmp	r2, r0
 80074b8:	d111      	bne.n	80074de <udp_input+0x13a>
 80074ba:	f1ba 0f00 	cmp.w	sl, #0
 80074be:	d007      	beq.n	80074d0 <udp_input+0x12c>
 80074c0:	68e3      	ldr	r3, [r4, #12]
 80074c2:	f8ca 300c 	str.w	r3, [sl, #12]
 80074c6:	f8db 3000 	ldr.w	r3, [fp]
 80074ca:	60e3      	str	r3, [r4, #12]
 80074cc:	f8cb 4000 	str.w	r4, [fp]
 80074d0:	4625      	mov	r5, r4
 80074d2:	e7a4      	b.n	800741e <udp_input+0x7a>
 80074d4:	2a00      	cmp	r2, #0
 80074d6:	d0d5      	beq.n	8007484 <udp_input+0xe0>
 80074d8:	6978      	ldr	r0, [r7, #20]
 80074da:	4290      	cmp	r0, r2
 80074dc:	d0d2      	beq.n	8007484 <udp_input+0xe0>
 80074de:	46a2      	mov	sl, r4
 80074e0:	68e4      	ldr	r4, [r4, #12]
 80074e2:	e795      	b.n	8007410 <udp_input+0x6c>
 80074e4:	4625      	mov	r5, r4
 80074e6:	e7df      	b.n	80074a8 <udp_input+0x104>
 80074e8:	b16d      	cbz	r5, 8007506 <udp_input+0x162>
 80074ea:	69ac      	ldr	r4, [r5, #24]
 80074ec:	2c00      	cmp	r4, #0
 80074ee:	f43f af71 	beq.w	80073d4 <udp_input+0x30>
 80074f2:	9b02      	ldr	r3, [sp, #8]
 80074f4:	9300      	str	r3, [sp, #0]
 80074f6:	69e8      	ldr	r0, [r5, #28]
 80074f8:	4b14      	ldr	r3, [pc, #80]	; (800754c <udp_input+0x1a8>)
 80074fa:	4632      	mov	r2, r6
 80074fc:	4629      	mov	r1, r5
 80074fe:	47a0      	blx	r4
 8007500:	b005      	add	sp, #20
 8007502:	e8bd 8ff0 	ldmia.w	sp!, {r4, r5, r6, r7, r8, r9, sl, fp, pc}
 8007506:	f1b9 0f00 	cmp.w	r9, #0
 800750a:	f47f af63 	bne.w	80073d4 <udp_input+0x30>
 800750e:	697b      	ldr	r3, [r7, #20]
 8007510:	f003 03f0 	and.w	r3, r3, #240	; 0xf0
 8007514:	2be0      	cmp	r3, #224	; 0xe0
 8007516:	f43f af5d 	beq.w	80073d4 <udp_input+0x30>
 800751a:	89b9      	ldrh	r1, [r7, #12]
 800751c:	3108      	adds	r1, #8
 800751e:	b209      	sxth	r1, r1
 8007520:	4630      	mov	r0, r6
 8007522:	f7fb ff3f 	bl	80033a4 <pbuf_header_force>
 8007526:	2103      	movs	r1, #3
 8007528:	4630      	mov	r0, r6
 800752a:	f000 fca3 	bl	8007e74 <icmp_dest_unreach>
 800752e:	e751      	b.n	80073d4 <udp_input+0x30>
 8007530:	0800b40c 	.word	0x0800b40c
 8007534:	0800b43b 	.word	0x0800b43b
 8007538:	08009b3a 	.word	0x08009b3a
 800753c:	0800b453 	.word	0x0800b453
 8007540:	20004d28 	.word	0x20004d28
 8007544:	0800b46c 	.word	0x0800b46c
 8007548:	0800b491 	.word	0x0800b491
 800754c:	20004d38 	.word	0x20004d38
 8007550:	200082f8 	.word	0x200082f8

08007554 <udp_netif_ip_addr_changed>:
 8007554:	b510      	push	{r4, lr}
 8007556:	b138      	cbz	r0, 8007568 <udp_netif_ip_addr_changed+0x14>
 8007558:	6803      	ldr	r3, [r0, #0]
 800755a:	b12b      	cbz	r3, 8007568 <udp_netif_ip_addr_changed+0x14>
 800755c:	b121      	cbz	r1, 8007568 <udp_netif_ip_addr_changed+0x14>
 800755e:	680b      	ldr	r3, [r1, #0]
 8007560:	b113      	cbz	r3, 8007568 <udp_netif_ip_addr_changed+0x14>
 8007562:	4b06      	ldr	r3, [pc, #24]	; (800757c <udp_netif_ip_addr_changed+0x28>)
 8007564:	681b      	ldr	r3, [r3, #0]
 8007566:	b903      	cbnz	r3, 800756a <udp_netif_ip_addr_changed+0x16>
 8007568:	bd10      	pop	{r4, pc}
 800756a:	681c      	ldr	r4, [r3, #0]
 800756c:	6802      	ldr	r2, [r0, #0]
 800756e:	4294      	cmp	r4, r2
 8007570:	bf04      	itt	eq
 8007572:	680a      	ldreq	r2, [r1, #0]
 8007574:	601a      	streq	r2, [r3, #0]
 8007576:	68db      	ldr	r3, [r3, #12]
 8007578:	e7f5      	b.n	8007566 <udp_netif_ip_addr_changed+0x12>
 800757a:	bf00      	nop
 800757c:	200082f8 	.word	0x200082f8

08007580 <etharp_free_entry>:
 8007580:	b570      	push	{r4, r5, r6, lr}
 8007582:	2618      	movs	r6, #24
 8007584:	4c07      	ldr	r4, [pc, #28]	; (80075a4 <etharp_free_entry+0x24>)
 8007586:	4346      	muls	r6, r0
 8007588:	4605      	mov	r5, r0
 800758a:	59a0      	ldr	r0, [r4, r6]
 800758c:	b118      	cbz	r0, 8007596 <etharp_free_entry+0x16>
 800758e:	f7fb ff11 	bl	80033b4 <pbuf_free>
 8007592:	2300      	movs	r3, #0
 8007594:	51a3      	str	r3, [r4, r6]
 8007596:	2318      	movs	r3, #24
 8007598:	fb03 4005 	mla	r0, r3, r5, r4
 800759c:	2300      	movs	r3, #0
 800759e:	7503      	strb	r3, [r0, #20]
 80075a0:	bd70      	pop	{r4, r5, r6, pc}
 80075a2:	bf00      	nop
 80075a4:	200082fc 	.word	0x200082fc

080075a8 <etharp_find_entry>:
 80075a8:	e92d 4ff7 	stmdb	sp!, {r0, r1, r2, r4, r5, r6, r7, r8, r9, sl, fp, lr}
 80075ac:	f04f 0c00 	mov.w	ip, #0
 80075b0:	f04f 0e0a 	mov.w	lr, #10
 80075b4:	4b41      	ldr	r3, [pc, #260]	; (80076bc <etharp_find_entry+0x114>)
 80075b6:	9101      	str	r1, [sp, #4]
 80075b8:	4606      	mov	r6, r0
 80075ba:	4617      	mov	r7, r2
 80075bc:	46e1      	mov	r9, ip
 80075be:	46e3      	mov	fp, ip
 80075c0:	f8cd c000 	str.w	ip, [sp]
 80075c4:	4674      	mov	r4, lr
 80075c6:	4675      	mov	r5, lr
 80075c8:	46f0      	mov	r8, lr
 80075ca:	2c0a      	cmp	r4, #10
 80075cc:	f893 a014 	ldrb.w	sl, [r3, #20]
 80075d0:	fa0f f08c 	sxth.w	r0, ip
 80075d4:	d119      	bne.n	800760a <etharp_find_entry+0x62>
 80075d6:	f1ba 0f00 	cmp.w	sl, #0
 80075da:	d060      	beq.n	800769e <etharp_find_entry+0xf6>
 80075dc:	b146      	cbz	r6, 80075f0 <etharp_find_entry+0x48>
 80075de:	6831      	ldr	r1, [r6, #0]
 80075e0:	685a      	ldr	r2, [r3, #4]
 80075e2:	4291      	cmp	r1, r2
 80075e4:	d104      	bne.n	80075f0 <etharp_find_entry+0x48>
 80075e6:	2f00      	cmp	r7, #0
 80075e8:	d04c      	beq.n	8007684 <etharp_find_entry+0xdc>
 80075ea:	6899      	ldr	r1, [r3, #8]
 80075ec:	42b9      	cmp	r1, r7
 80075ee:	d049      	beq.n	8007684 <etharp_find_entry+0xdc>
 80075f0:	f1ba 0f01 	cmp.w	sl, #1
 80075f4:	8a59      	ldrh	r1, [r3, #18]
 80075f6:	d14d      	bne.n	8007694 <etharp_find_entry+0xec>
 80075f8:	681a      	ldr	r2, [r3, #0]
 80075fa:	2a00      	cmp	r2, #0
 80075fc:	d045      	beq.n	800768a <etharp_find_entry+0xe2>
 80075fe:	9a00      	ldr	r2, [sp, #0]
 8007600:	4291      	cmp	r1, r2
 8007602:	d305      	bcc.n	8007610 <etharp_find_entry+0x68>
 8007604:	9100      	str	r1, [sp, #0]
 8007606:	4686      	mov	lr, r0
 8007608:	e002      	b.n	8007610 <etharp_find_entry+0x68>
 800760a:	f1ba 0f00 	cmp.w	sl, #0
 800760e:	d1e5      	bne.n	80075dc <etharp_find_entry+0x34>
 8007610:	f10c 0c01 	add.w	ip, ip, #1
 8007614:	f1bc 0f0a 	cmp.w	ip, #10
 8007618:	f103 0318 	add.w	r3, r3, #24
 800761c:	d1d5      	bne.n	80075ca <etharp_find_entry+0x22>
 800761e:	9b01      	ldr	r3, [sp, #4]
 8007620:	2b01      	cmp	r3, #1
 8007622:	d148      	bne.n	80076b6 <etharp_find_entry+0x10e>
 8007624:	2c0a      	cmp	r4, #10
 8007626:	d111      	bne.n	800764c <etharp_find_entry+0xa4>
 8007628:	2d0a      	cmp	r5, #10
 800762a:	d03a      	beq.n	80076a2 <etharp_find_entry+0xfa>
 800762c:	2318      	movs	r3, #24
 800762e:	4a23      	ldr	r2, [pc, #140]	; (80076bc <etharp_find_entry+0x114>)
 8007630:	436b      	muls	r3, r5
 8007632:	58d3      	ldr	r3, [r2, r3]
 8007634:	b133      	cbz	r3, 8007644 <etharp_find_entry+0x9c>
 8007636:	4b22      	ldr	r3, [pc, #136]	; (80076c0 <etharp_find_entry+0x118>)
 8007638:	4922      	ldr	r1, [pc, #136]	; (80076c4 <etharp_find_entry+0x11c>)
 800763a:	4823      	ldr	r0, [pc, #140]	; (80076c8 <etharp_find_entry+0x120>)
 800763c:	f240 126d 	movw	r2, #365	; 0x16d
 8007640:	f001 fb28 	bl	8008c94 <iprintf>
 8007644:	4628      	mov	r0, r5
 8007646:	f7ff ff9b 	bl	8007580 <etharp_free_entry>
 800764a:	462c      	mov	r4, r5
 800764c:	4a1b      	ldr	r2, [pc, #108]	; (80076bc <etharp_find_entry+0x114>)
 800764e:	2318      	movs	r3, #24
 8007650:	fb03 2304 	mla	r3, r3, r4, r2
 8007654:	7d1b      	ldrb	r3, [r3, #20]
 8007656:	b133      	cbz	r3, 8007666 <etharp_find_entry+0xbe>
 8007658:	4b19      	ldr	r3, [pc, #100]	; (80076c0 <etharp_find_entry+0x118>)
 800765a:	491c      	ldr	r1, [pc, #112]	; (80076cc <etharp_find_entry+0x124>)
 800765c:	481a      	ldr	r0, [pc, #104]	; (80076c8 <etharp_find_entry+0x120>)
 800765e:	f44f 72c2 	mov.w	r2, #388	; 0x184
 8007662:	f001 fb17 	bl	8008c94 <iprintf>
 8007666:	b12e      	cbz	r6, 8007674 <etharp_find_entry+0xcc>
 8007668:	4b14      	ldr	r3, [pc, #80]	; (80076bc <etharp_find_entry+0x114>)
 800766a:	6832      	ldr	r2, [r6, #0]
 800766c:	2118      	movs	r1, #24
 800766e:	fb01 3304 	mla	r3, r1, r4, r3
 8007672:	605a      	str	r2, [r3, #4]
 8007674:	4a11      	ldr	r2, [pc, #68]	; (80076bc <etharp_find_entry+0x114>)
 8007676:	2318      	movs	r3, #24
 8007678:	fb03 2304 	mla	r3, r3, r4, r2
 800767c:	2200      	movs	r2, #0
 800767e:	825a      	strh	r2, [r3, #18]
 8007680:	609f      	str	r7, [r3, #8]
 8007682:	4620      	mov	r0, r4
 8007684:	b003      	add	sp, #12
 8007686:	e8bd 8ff0 	ldmia.w	sp!, {r4, r5, r6, r7, r8, r9, sl, fp, pc}
 800768a:	4559      	cmp	r1, fp
 800768c:	d3c0      	bcc.n	8007610 <etharp_find_entry+0x68>
 800768e:	468b      	mov	fp, r1
 8007690:	4680      	mov	r8, r0
 8007692:	e7bd      	b.n	8007610 <etharp_find_entry+0x68>
 8007694:	4549      	cmp	r1, r9
 8007696:	d3bb      	bcc.n	8007610 <etharp_find_entry+0x68>
 8007698:	4689      	mov	r9, r1
 800769a:	4605      	mov	r5, r0
 800769c:	e7b8      	b.n	8007610 <etharp_find_entry+0x68>
 800769e:	4604      	mov	r4, r0
 80076a0:	e7b6      	b.n	8007610 <etharp_find_entry+0x68>
 80076a2:	f1b8 0f0a 	cmp.w	r8, #10
 80076a6:	d104      	bne.n	80076b2 <etharp_find_entry+0x10a>
 80076a8:	f1be 0f0a 	cmp.w	lr, #10
 80076ac:	d003      	beq.n	80076b6 <etharp_find_entry+0x10e>
 80076ae:	4675      	mov	r5, lr
 80076b0:	e7c8      	b.n	8007644 <etharp_find_entry+0x9c>
 80076b2:	4645      	mov	r5, r8
 80076b4:	e7c6      	b.n	8007644 <etharp_find_entry+0x9c>
 80076b6:	f04f 30ff 	mov.w	r0, #4294967295
 80076ba:	e7e3      	b.n	8007684 <etharp_find_entry+0xdc>
 80076bc:	200082fc 	.word	0x200082fc
 80076c0:	0800b4ac 	.word	0x0800b4ac
 80076c4:	0800b4e3 	.word	0x0800b4e3
 80076c8:	08009b3a 	.word	0x08009b3a
 80076cc:	0800b4fa 	.word	0x0800b4fa

080076d0 <etharp_raw>:
 80076d0:	e92d 47f3 	stmdb	sp!, {r0, r1, r4, r5, r6, r7, r8, r9, sl, lr}
 80076d4:	f8dd a02c 	ldr.w	sl, [sp, #44]	; 0x2c
 80076d8:	4688      	mov	r8, r1
 80076da:	4691      	mov	r9, r2
 80076dc:	461e      	mov	r6, r3
 80076de:	4607      	mov	r7, r0
 80076e0:	b930      	cbnz	r0, 80076f0 <etharp_raw+0x20>
 80076e2:	4b2d      	ldr	r3, [pc, #180]	; (8007798 <etharp_raw+0xc8>)
 80076e4:	492d      	ldr	r1, [pc, #180]	; (800779c <etharp_raw+0xcc>)
 80076e6:	482e      	ldr	r0, [pc, #184]	; (80077a0 <etharp_raw+0xd0>)
 80076e8:	f240 4257 	movw	r2, #1111	; 0x457
 80076ec:	f001 fad2 	bl	8008c94 <iprintf>
 80076f0:	f44f 7220 	mov.w	r2, #640	; 0x280
 80076f4:	211c      	movs	r1, #28
 80076f6:	200e      	movs	r0, #14
 80076f8:	f7fb fec0 	bl	800347c <pbuf_alloc>
 80076fc:	4605      	mov	r5, r0
 80076fe:	2800      	cmp	r0, #0
 8007700:	d047      	beq.n	8007792 <etharp_raw+0xc2>
 8007702:	8943      	ldrh	r3, [r0, #10]
 8007704:	2b1b      	cmp	r3, #27
 8007706:	d806      	bhi.n	8007716 <etharp_raw+0x46>
 8007708:	4b23      	ldr	r3, [pc, #140]	; (8007798 <etharp_raw+0xc8>)
 800770a:	4926      	ldr	r1, [pc, #152]	; (80077a4 <etharp_raw+0xd4>)
 800770c:	4824      	ldr	r0, [pc, #144]	; (80077a0 <etharp_raw+0xd0>)
 800770e:	f240 4262 	movw	r2, #1122	; 0x462
 8007712:	f001 fabf 	bl	8008c94 <iprintf>
 8007716:	f8bd 0034 	ldrh.w	r0, [sp, #52]	; 0x34
 800771a:	686c      	ldr	r4, [r5, #4]
 800771c:	f7fb f90b 	bl	8002936 <lwip_htons>
 8007720:	80e0      	strh	r0, [r4, #6]
 8007722:	f897 302c 	ldrb.w	r3, [r7, #44]	; 0x2c
 8007726:	2b06      	cmp	r3, #6
 8007728:	d006      	beq.n	8007738 <etharp_raw+0x68>
 800772a:	4b1b      	ldr	r3, [pc, #108]	; (8007798 <etharp_raw+0xc8>)
 800772c:	491e      	ldr	r1, [pc, #120]	; (80077a8 <etharp_raw+0xd8>)
 800772e:	481c      	ldr	r0, [pc, #112]	; (80077a0 <etharp_raw+0xd0>)
 8007730:	f240 4269 	movw	r2, #1129	; 0x469
 8007734:	f001 faae 	bl	8008c94 <iprintf>
 8007738:	6833      	ldr	r3, [r6, #0]
 800773a:	60a3      	str	r3, [r4, #8]
 800773c:	88b3      	ldrh	r3, [r6, #4]
 800773e:	81a3      	strh	r3, [r4, #12]
 8007740:	f8da 3000 	ldr.w	r3, [sl]
 8007744:	f8c4 3012 	str.w	r3, [r4, #18]
 8007748:	f8ba 3004 	ldrh.w	r3, [sl, #4]
 800774c:	82e3      	strh	r3, [r4, #22]
 800774e:	9b0a      	ldr	r3, [sp, #40]	; 0x28
 8007750:	681b      	ldr	r3, [r3, #0]
 8007752:	f8c4 300e 	str.w	r3, [r4, #14]
 8007756:	9b0c      	ldr	r3, [sp, #48]	; 0x30
 8007758:	681b      	ldr	r3, [r3, #0]
 800775a:	61a3      	str	r3, [r4, #24]
 800775c:	2301      	movs	r3, #1
 800775e:	7063      	strb	r3, [r4, #1]
 8007760:	2308      	movs	r3, #8
 8007762:	70a3      	strb	r3, [r4, #2]
 8007764:	2306      	movs	r3, #6
 8007766:	7123      	strb	r3, [r4, #4]
 8007768:	2304      	movs	r3, #4
 800776a:	2600      	movs	r6, #0
 800776c:	7163      	strb	r3, [r4, #5]
 800776e:	f640 0306 	movw	r3, #2054	; 0x806
 8007772:	7026      	strb	r6, [r4, #0]
 8007774:	70e6      	strb	r6, [r4, #3]
 8007776:	4642      	mov	r2, r8
 8007778:	9300      	str	r3, [sp, #0]
 800777a:	4629      	mov	r1, r5
 800777c:	464b      	mov	r3, r9
 800777e:	4638      	mov	r0, r7
 8007780:	f001 f950 	bl	8008a24 <ethernet_output>
 8007784:	4628      	mov	r0, r5
 8007786:	f7fb fe15 	bl	80033b4 <pbuf_free>
 800778a:	4630      	mov	r0, r6
 800778c:	b002      	add	sp, #8
 800778e:	e8bd 87f0 	ldmia.w	sp!, {r4, r5, r6, r7, r8, r9, sl, pc}
 8007792:	f04f 30ff 	mov.w	r0, #4294967295
 8007796:	e7f9      	b.n	800778c <etharp_raw+0xbc>
 8007798:	0800b4ac 	.word	0x0800b4ac
 800779c:	08009b2c 	.word	0x08009b2c
 80077a0:	08009b3a 	.word	0x08009b3a
 80077a4:	0800b523 	.word	0x0800b523
 80077a8:	0800b554 	.word	0x0800b554

080077ac <etharp_cleanup_netif>:
 80077ac:	b570      	push	{r4, r5, r6, lr}
 80077ae:	4d08      	ldr	r5, [pc, #32]	; (80077d0 <etharp_cleanup_netif+0x24>)
 80077b0:	4606      	mov	r6, r0
 80077b2:	2400      	movs	r4, #0
 80077b4:	7d2b      	ldrb	r3, [r5, #20]
 80077b6:	b12b      	cbz	r3, 80077c4 <etharp_cleanup_netif+0x18>
 80077b8:	68ab      	ldr	r3, [r5, #8]
 80077ba:	42b3      	cmp	r3, r6
 80077bc:	d102      	bne.n	80077c4 <etharp_cleanup_netif+0x18>
 80077be:	4620      	mov	r0, r4
 80077c0:	f7ff fede 	bl	8007580 <etharp_free_entry>
 80077c4:	3401      	adds	r4, #1
 80077c6:	2c0a      	cmp	r4, #10
 80077c8:	f105 0518 	add.w	r5, r5, #24
 80077cc:	d1f2      	bne.n	80077b4 <etharp_cleanup_netif+0x8>
 80077ce:	bd70      	pop	{r4, r5, r6, pc}
 80077d0:	200082fc 	.word	0x200082fc

080077d4 <etharp_input>:
 80077d4:	e92d 4ff0 	stmdb	sp!, {r4, r5, r6, r7, r8, r9, sl, fp, lr}
 80077d8:	4607      	mov	r7, r0
 80077da:	b089      	sub	sp, #36	; 0x24
 80077dc:	460c      	mov	r4, r1
 80077de:	b949      	cbnz	r1, 80077f4 <etharp_input+0x20>
 80077e0:	4b48      	ldr	r3, [pc, #288]	; (8007904 <etharp_input+0x130>)
 80077e2:	4949      	ldr	r1, [pc, #292]	; (8007908 <etharp_input+0x134>)
 80077e4:	4849      	ldr	r0, [pc, #292]	; (800790c <etharp_input+0x138>)
 80077e6:	f240 228a 	movw	r2, #650	; 0x28a
 80077ea:	b009      	add	sp, #36	; 0x24
 80077ec:	e8bd 4ff0 	ldmia.w	sp!, {r4, r5, r6, r7, r8, r9, sl, fp, lr}
 80077f0:	f001 ba50 	b.w	8008c94 <iprintf>
 80077f4:	6845      	ldr	r5, [r0, #4]
 80077f6:	882b      	ldrh	r3, [r5, #0]
 80077f8:	f5b3 7f80 	cmp.w	r3, #256	; 0x100
 80077fc:	d108      	bne.n	8007810 <etharp_input+0x3c>
 80077fe:	792b      	ldrb	r3, [r5, #4]
 8007800:	2b06      	cmp	r3, #6
 8007802:	d105      	bne.n	8007810 <etharp_input+0x3c>
 8007804:	796b      	ldrb	r3, [r5, #5]
 8007806:	2b04      	cmp	r3, #4
 8007808:	d102      	bne.n	8007810 <etharp_input+0x3c>
 800780a:	886b      	ldrh	r3, [r5, #2]
 800780c:	2b08      	cmp	r3, #8
 800780e:	d005      	beq.n	800781c <etharp_input+0x48>
 8007810:	4638      	mov	r0, r7
 8007812:	b009      	add	sp, #36	; 0x24
 8007814:	e8bd 4ff0 	ldmia.w	sp!, {r4, r5, r6, r7, r8, r9, sl, fp, lr}
 8007818:	f7fb bdcc 	b.w	80033b4 <pbuf_free>
 800781c:	684e      	ldr	r6, [r1, #4]
 800781e:	f8d5 a00e 	ldr.w	sl, [r5, #14]
 8007822:	69ab      	ldr	r3, [r5, #24]
 8007824:	f8cd a01c 	str.w	sl, [sp, #28]
 8007828:	f105 0808 	add.w	r8, r5, #8
 800782c:	2e00      	cmp	r6, #0
 800782e:	d065      	beq.n	80078fc <etharp_input+0x128>
 8007830:	429e      	cmp	r6, r3
 8007832:	d162      	bne.n	80078fa <etharp_input+0x126>
 8007834:	2601      	movs	r6, #1
 8007836:	46b3      	mov	fp, r6
 8007838:	f894 302c 	ldrb.w	r3, [r4, #44]	; 0x2c
 800783c:	2b06      	cmp	r3, #6
 800783e:	d006      	beq.n	800784e <etharp_input+0x7a>
 8007840:	4b30      	ldr	r3, [pc, #192]	; (8007904 <etharp_input+0x130>)
 8007842:	4933      	ldr	r1, [pc, #204]	; (8007910 <etharp_input+0x13c>)
 8007844:	4831      	ldr	r0, [pc, #196]	; (800790c <etharp_input+0x138>)
 8007846:	f240 12a9 	movw	r2, #425	; 0x1a9
 800784a:	f001 fa23 	bl	8008c94 <iprintf>
 800784e:	f1ba 0f00 	cmp.w	sl, #0
 8007852:	d03d      	beq.n	80078d0 <etharp_input+0xfc>
 8007854:	4621      	mov	r1, r4
 8007856:	4650      	mov	r0, sl
 8007858:	f000 fc9d 	bl	8008196 <ip4_addr_isbroadcast_u32>
 800785c:	4681      	mov	r9, r0
 800785e:	bbb8      	cbnz	r0, 80078d0 <etharp_input+0xfc>
 8007860:	f00a 0af0 	and.w	sl, sl, #240	; 0xf0
 8007864:	f1ba 0fe0 	cmp.w	sl, #224	; 0xe0
 8007868:	d032      	beq.n	80078d0 <etharp_input+0xfc>
 800786a:	4622      	mov	r2, r4
 800786c:	4659      	mov	r1, fp
 800786e:	a807      	add	r0, sp, #28
 8007870:	f7ff fe9a 	bl	80075a8 <etharp_find_entry>
 8007874:	1e03      	subs	r3, r0, #0
 8007876:	db2b      	blt.n	80078d0 <etharp_input+0xfc>
 8007878:	4a26      	ldr	r2, [pc, #152]	; (8007914 <etharp_input+0x140>)
 800787a:	2018      	movs	r0, #24
 800787c:	fb00 fc03 	mul.w	ip, r0, r3
 8007880:	eb02 010c 	add.w	r1, r2, ip
 8007884:	f04f 0e02 	mov.w	lr, #2
 8007888:	f881 e014 	strb.w	lr, [r1, #20]
 800788c:	f04f 0e0c 	mov.w	lr, #12
 8007890:	608c      	str	r4, [r1, #8]
 8007892:	fb13 e300 	smlabb	r3, r3, r0, lr
 8007896:	68a8      	ldr	r0, [r5, #8]
 8007898:	50d0      	str	r0, [r2, r3]
 800789a:	eb02 0e03 	add.w	lr, r2, r3
 800789e:	f8b8 3004 	ldrh.w	r3, [r8, #4]
 80078a2:	f8ae 3004 	strh.w	r3, [lr, #4]
 80078a6:	f8a1 9012 	strh.w	r9, [r1, #18]
 80078aa:	f852 100c 	ldr.w	r1, [r2, ip]
 80078ae:	b179      	cbz	r1, 80078d0 <etharp_input+0xfc>
 80078b0:	f44f 6300 	mov.w	r3, #2048	; 0x800
 80078b4:	f842 900c 	str.w	r9, [r2, ip]
 80078b8:	4620      	mov	r0, r4
 80078ba:	9300      	str	r3, [sp, #0]
 80078bc:	f104 0226 	add.w	r2, r4, #38	; 0x26
 80078c0:	4643      	mov	r3, r8
 80078c2:	9105      	str	r1, [sp, #20]
 80078c4:	f001 f8ae 	bl	8008a24 <ethernet_output>
 80078c8:	9905      	ldr	r1, [sp, #20]
 80078ca:	4608      	mov	r0, r1
 80078cc:	f7fb fd72 	bl	80033b4 <pbuf_free>
 80078d0:	88eb      	ldrh	r3, [r5, #6]
 80078d2:	f5b3 7f80 	cmp.w	r3, #256	; 0x100
 80078d6:	d19b      	bne.n	8007810 <etharp_input+0x3c>
 80078d8:	2e00      	cmp	r6, #0
 80078da:	d099      	beq.n	8007810 <etharp_input+0x3c>
 80078dc:	2202      	movs	r2, #2
 80078de:	9203      	str	r2, [sp, #12]
 80078e0:	aa07      	add	r2, sp, #28
 80078e2:	e9cd 8201 	strd	r8, r2, [sp, #4]
 80078e6:	f104 0326 	add.w	r3, r4, #38	; 0x26
 80078ea:	1d22      	adds	r2, r4, #4
 80078ec:	9200      	str	r2, [sp, #0]
 80078ee:	4619      	mov	r1, r3
 80078f0:	4642      	mov	r2, r8
 80078f2:	4620      	mov	r0, r4
 80078f4:	f7ff feec 	bl	80076d0 <etharp_raw>
 80078f8:	e78a      	b.n	8007810 <etharp_input+0x3c>
 80078fa:	2600      	movs	r6, #0
 80078fc:	f04f 0b02 	mov.w	fp, #2
 8007900:	e79a      	b.n	8007838 <etharp_input+0x64>
 8007902:	bf00      	nop
 8007904:	0800b4ac 	.word	0x0800b4ac
 8007908:	08009b2c 	.word	0x08009b2c
 800790c:	08009b3a 	.word	0x08009b3a
 8007910:	0800b5b4 	.word	0x0800b5b4
 8007914:	200082fc 	.word	0x200082fc

08007918 <etharp_request>:
 8007918:	b51f      	push	{r0, r1, r2, r3, r4, lr}
 800791a:	4602      	mov	r2, r0
 800791c:	2401      	movs	r4, #1
 800791e:	e9cd 1402 	strd	r1, r4, [sp, #8]
 8007922:	f100 0326 	add.w	r3, r0, #38	; 0x26
 8007926:	4905      	ldr	r1, [pc, #20]	; (800793c <etharp_request+0x24>)
 8007928:	9101      	str	r1, [sp, #4]
 800792a:	3204      	adds	r2, #4
 800792c:	9200      	str	r2, [sp, #0]
 800792e:	4619      	mov	r1, r3
 8007930:	4a03      	ldr	r2, [pc, #12]	; (8007940 <etharp_request+0x28>)
 8007932:	f7ff fecd 	bl	80076d0 <etharp_raw>
 8007936:	b004      	add	sp, #16
 8007938:	bd10      	pop	{r4, pc}
 800793a:	bf00      	nop
 800793c:	0800b99c 	.word	0x0800b99c
 8007940:	0800b996 	.word	0x0800b996

08007944 <etharp_tmr>:
 8007944:	b5f8      	push	{r3, r4, r5, r6, r7, lr}
 8007946:	4c13      	ldr	r4, [pc, #76]	; (8007994 <etharp_tmr+0x50>)
 8007948:	2500      	movs	r5, #0
 800794a:	2602      	movs	r6, #2
 800794c:	2704      	movs	r7, #4
 800794e:	7d22      	ldrb	r2, [r4, #20]
 8007950:	b16a      	cbz	r2, 800796e <etharp_tmr+0x2a>
 8007952:	8a63      	ldrh	r3, [r4, #18]
 8007954:	3301      	adds	r3, #1
 8007956:	b29b      	uxth	r3, r3
 8007958:	f5b3 7f96 	cmp.w	r3, #300	; 0x12c
 800795c:	8263      	strh	r3, [r4, #18]
 800795e:	d203      	bcs.n	8007968 <etharp_tmr+0x24>
 8007960:	2a01      	cmp	r2, #1
 8007962:	d10a      	bne.n	800797a <etharp_tmr+0x36>
 8007964:	2b04      	cmp	r3, #4
 8007966:	d910      	bls.n	800798a <etharp_tmr+0x46>
 8007968:	4628      	mov	r0, r5
 800796a:	f7ff fe09 	bl	8007580 <etharp_free_entry>
 800796e:	3501      	adds	r5, #1
 8007970:	2d0a      	cmp	r5, #10
 8007972:	f104 0418 	add.w	r4, r4, #24
 8007976:	d1ea      	bne.n	800794e <etharp_tmr+0xa>
 8007978:	bdf8      	pop	{r3, r4, r5, r6, r7, pc}
 800797a:	2a03      	cmp	r2, #3
 800797c:	d101      	bne.n	8007982 <etharp_tmr+0x3e>
 800797e:	7527      	strb	r7, [r4, #20]
 8007980:	e7f5      	b.n	800796e <etharp_tmr+0x2a>
 8007982:	2a04      	cmp	r2, #4
 8007984:	d1f3      	bne.n	800796e <etharp_tmr+0x2a>
 8007986:	7526      	strb	r6, [r4, #20]
 8007988:	e7f1      	b.n	800796e <etharp_tmr+0x2a>
 800798a:	68a0      	ldr	r0, [r4, #8]
 800798c:	1d21      	adds	r1, r4, #4
 800798e:	f7ff ffc3 	bl	8007918 <etharp_request>
 8007992:	e7ec      	b.n	800796e <etharp_tmr+0x2a>
 8007994:	200082fc 	.word	0x200082fc

08007998 <etharp_output_to_arp_index>:
 8007998:	e92d 47ff 	stmdb	sp!, {r0, r1, r2, r3, r4, r5, r6, r7, r8, r9, sl, lr}
 800799c:	4f24      	ldr	r7, [pc, #144]	; (8007a30 <etharp_output_to_arp_index+0x98>)
 800799e:	2318      	movs	r3, #24
 80079a0:	fb03 7302 	mla	r3, r3, r2, r7
 80079a4:	4606      	mov	r6, r0
 80079a6:	7d1b      	ldrb	r3, [r3, #20]
 80079a8:	2b01      	cmp	r3, #1
 80079aa:	4688      	mov	r8, r1
 80079ac:	4614      	mov	r4, r2
 80079ae:	d806      	bhi.n	80079be <etharp_output_to_arp_index+0x26>
 80079b0:	4b20      	ldr	r3, [pc, #128]	; (8007a34 <etharp_output_to_arp_index+0x9c>)
 80079b2:	4921      	ldr	r1, [pc, #132]	; (8007a38 <etharp_output_to_arp_index+0xa0>)
 80079b4:	4821      	ldr	r0, [pc, #132]	; (8007a3c <etharp_output_to_arp_index+0xa4>)
 80079b6:	f240 22ee 	movw	r2, #750	; 0x2ee
 80079ba:	f001 f96b 	bl	8008c94 <iprintf>
 80079be:	2318      	movs	r3, #24
 80079c0:	eb04 0544 	add.w	r5, r4, r4, lsl #1
 80079c4:	fb03 7404 	mla	r4, r3, r4, r7
 80079c8:	00ed      	lsls	r5, r5, #3
 80079ca:	7d23      	ldrb	r3, [r4, #20]
 80079cc:	f105 0a0c 	add.w	sl, r5, #12
 80079d0:	2b02      	cmp	r3, #2
 80079d2:	44ba      	add	sl, r7
 80079d4:	f106 0926 	add.w	r9, r6, #38	; 0x26
 80079d8:	d10b      	bne.n	80079f2 <etharp_output_to_arp_index+0x5a>
 80079da:	8a63      	ldrh	r3, [r4, #18]
 80079dc:	f5b3 7f8e 	cmp.w	r3, #284	; 0x11c
 80079e0:	d913      	bls.n	8007a0a <etharp_output_to_arp_index+0x72>
 80079e2:	3504      	adds	r5, #4
 80079e4:	1979      	adds	r1, r7, r5
 80079e6:	4630      	mov	r0, r6
 80079e8:	f7ff ff96 	bl	8007918 <etharp_request>
 80079ec:	b908      	cbnz	r0, 80079f2 <etharp_output_to_arp_index+0x5a>
 80079ee:	2303      	movs	r3, #3
 80079f0:	7523      	strb	r3, [r4, #20]
 80079f2:	f44f 6300 	mov.w	r3, #2048	; 0x800
 80079f6:	9300      	str	r3, [sp, #0]
 80079f8:	464a      	mov	r2, r9
 80079fa:	4653      	mov	r3, sl
 80079fc:	4641      	mov	r1, r8
 80079fe:	4630      	mov	r0, r6
 8007a00:	f001 f810 	bl	8008a24 <ethernet_output>
 8007a04:	b004      	add	sp, #16
 8007a06:	e8bd 87f0 	ldmia.w	sp!, {r4, r5, r6, r7, r8, r9, sl, pc}
 8007a0a:	f5b3 7f87 	cmp.w	r3, #270	; 0x10e
 8007a0e:	d3f0      	bcc.n	80079f2 <etharp_output_to_arp_index+0x5a>
 8007a10:	2301      	movs	r3, #1
 8007a12:	9303      	str	r3, [sp, #12]
 8007a14:	3504      	adds	r5, #4
 8007a16:	4b0a      	ldr	r3, [pc, #40]	; (8007a40 <etharp_output_to_arp_index+0xa8>)
 8007a18:	9301      	str	r3, [sp, #4]
 8007a1a:	442f      	add	r7, r5
 8007a1c:	1d33      	adds	r3, r6, #4
 8007a1e:	9300      	str	r3, [sp, #0]
 8007a20:	9702      	str	r7, [sp, #8]
 8007a22:	464b      	mov	r3, r9
 8007a24:	4652      	mov	r2, sl
 8007a26:	4649      	mov	r1, r9
 8007a28:	4630      	mov	r0, r6
 8007a2a:	f7ff fe51 	bl	80076d0 <etharp_raw>
 8007a2e:	e7dd      	b.n	80079ec <etharp_output_to_arp_index+0x54>
 8007a30:	200082fc 	.word	0x200082fc
 8007a34:	0800b4ac 	.word	0x0800b4ac
 8007a38:	0800b5d8 	.word	0x0800b5d8
 8007a3c:	08009b3a 	.word	0x08009b3a
 8007a40:	0800b99c 	.word	0x0800b99c

08007a44 <etharp_query>:
 8007a44:	e92d 47f3 	stmdb	sp!, {r0, r1, r4, r5, r6, r7, r8, r9, sl, lr}
 8007a48:	4688      	mov	r8, r1
 8007a4a:	4606      	mov	r6, r0
 8007a4c:	4601      	mov	r1, r0
 8007a4e:	f8d8 0000 	ldr.w	r0, [r8]
 8007a52:	4615      	mov	r5, r2
 8007a54:	f000 fb9f 	bl	8008196 <ip4_addr_isbroadcast_u32>
 8007a58:	2800      	cmp	r0, #0
 8007a5a:	d16c      	bne.n	8007b36 <etharp_query+0xf2>
 8007a5c:	f8d8 3000 	ldr.w	r3, [r8]
 8007a60:	f003 02f0 	and.w	r2, r3, #240	; 0xf0
 8007a64:	2ae0      	cmp	r2, #224	; 0xe0
 8007a66:	d066      	beq.n	8007b36 <etharp_query+0xf2>
 8007a68:	2b00      	cmp	r3, #0
 8007a6a:	d064      	beq.n	8007b36 <etharp_query+0xf2>
 8007a6c:	4632      	mov	r2, r6
 8007a6e:	2101      	movs	r1, #1
 8007a70:	4640      	mov	r0, r8
 8007a72:	f7ff fd99 	bl	80075a8 <etharp_find_entry>
 8007a76:	1e07      	subs	r7, r0, #0
 8007a78:	da03      	bge.n	8007a82 <etharp_query+0x3e>
 8007a7a:	b278      	sxtb	r0, r7
 8007a7c:	b002      	add	sp, #8
 8007a7e:	e8bd 87f0 	ldmia.w	sp!, {r4, r5, r6, r7, r8, r9, sl, pc}
 8007a82:	2f7e      	cmp	r7, #126	; 0x7e
 8007a84:	dd06      	ble.n	8007a94 <etharp_query+0x50>
 8007a86:	4b36      	ldr	r3, [pc, #216]	; (8007b60 <etharp_query+0x11c>)
 8007a88:	4936      	ldr	r1, [pc, #216]	; (8007b64 <etharp_query+0x120>)
 8007a8a:	4837      	ldr	r0, [pc, #220]	; (8007b68 <etharp_query+0x124>)
 8007a8c:	f240 32c1 	movw	r2, #961	; 0x3c1
 8007a90:	f001 f900 	bl	8008c94 <iprintf>
 8007a94:	f8df 90d8 	ldr.w	r9, [pc, #216]	; 8007b70 <etharp_query+0x12c>
 8007a98:	b2ff      	uxtb	r7, r7
 8007a9a:	2318      	movs	r3, #24
 8007a9c:	fb03 9307 	mla	r3, r3, r7, r9
 8007aa0:	7d1a      	ldrb	r2, [r3, #20]
 8007aa2:	2a00      	cmp	r2, #0
 8007aa4:	d156      	bne.n	8007b54 <etharp_query+0x110>
 8007aa6:	2201      	movs	r2, #1
 8007aa8:	751a      	strb	r2, [r3, #20]
 8007aaa:	609e      	str	r6, [r3, #8]
 8007aac:	4641      	mov	r1, r8
 8007aae:	4630      	mov	r0, r6
 8007ab0:	f7ff ff32 	bl	8007918 <etharp_request>
 8007ab4:	2d00      	cmp	r5, #0
 8007ab6:	d0e1      	beq.n	8007a7c <etharp_query+0x38>
 8007ab8:	2318      	movs	r3, #24
 8007aba:	fb03 9207 	mla	r2, r3, r7, r9
 8007abe:	7d12      	ldrb	r2, [r2, #20]
 8007ac0:	2a01      	cmp	r2, #1
 8007ac2:	d90e      	bls.n	8007ae2 <etharp_query+0x9e>
 8007ac4:	4a29      	ldr	r2, [pc, #164]	; (8007b6c <etharp_query+0x128>)
 8007ac6:	fb03 9307 	mla	r3, r3, r7, r9
 8007aca:	7017      	strb	r7, [r2, #0]
 8007acc:	f44f 6200 	mov.w	r2, #2048	; 0x800
 8007ad0:	9200      	str	r2, [sp, #0]
 8007ad2:	330c      	adds	r3, #12
 8007ad4:	f106 0226 	add.w	r2, r6, #38	; 0x26
 8007ad8:	4629      	mov	r1, r5
 8007ada:	4630      	mov	r0, r6
 8007adc:	f000 ffa2 	bl	8008a24 <ethernet_output>
 8007ae0:	e7cc      	b.n	8007a7c <etharp_query+0x38>
 8007ae2:	d1cb      	bne.n	8007a7c <etharp_query+0x38>
 8007ae4:	4e1e      	ldr	r6, [pc, #120]	; (8007b60 <etharp_query+0x11c>)
 8007ae6:	f8df 808c 	ldr.w	r8, [pc, #140]	; 8007b74 <etharp_query+0x130>
 8007aea:	f8df a07c 	ldr.w	sl, [pc, #124]	; 8007b68 <etharp_query+0x124>
 8007aee:	462c      	mov	r4, r5
 8007af0:	8962      	ldrh	r2, [r4, #10]
 8007af2:	8923      	ldrh	r3, [r4, #8]
 8007af4:	429a      	cmp	r2, r3
 8007af6:	d108      	bne.n	8007b0a <etharp_query+0xc6>
 8007af8:	6823      	ldr	r3, [r4, #0]
 8007afa:	b133      	cbz	r3, 8007b0a <etharp_query+0xc6>
 8007afc:	4633      	mov	r3, r6
 8007afe:	f240 32f1 	movw	r2, #1009	; 0x3f1
 8007b02:	4641      	mov	r1, r8
 8007b04:	4650      	mov	r0, sl
 8007b06:	f001 f8c5 	bl	8008c94 <iprintf>
 8007b0a:	7b23      	ldrb	r3, [r4, #12]
 8007b0c:	065b      	lsls	r3, r3, #25
 8007b0e:	d415      	bmi.n	8007b3c <etharp_query+0xf8>
 8007b10:	6824      	ldr	r4, [r4, #0]
 8007b12:	2c00      	cmp	r4, #0
 8007b14:	d1ec      	bne.n	8007af0 <etharp_query+0xac>
 8007b16:	4628      	mov	r0, r5
 8007b18:	f7fb fd90 	bl	800363c <pbuf_ref>
 8007b1c:	2418      	movs	r4, #24
 8007b1e:	fb04 f307 	mul.w	r3, r4, r7
 8007b22:	f859 0003 	ldr.w	r0, [r9, r3]
 8007b26:	b108      	cbz	r0, 8007b2c <etharp_query+0xe8>
 8007b28:	f7fb fc44 	bl	80033b4 <pbuf_free>
 8007b2c:	437c      	muls	r4, r7
 8007b2e:	2000      	movs	r0, #0
 8007b30:	f849 5004 	str.w	r5, [r9, r4]
 8007b34:	e7a2      	b.n	8007a7c <etharp_query+0x38>
 8007b36:	f06f 000f 	mvn.w	r0, #15
 8007b3a:	e79f      	b.n	8007a7c <etharp_query+0x38>
 8007b3c:	462a      	mov	r2, r5
 8007b3e:	f44f 7120 	mov.w	r1, #640	; 0x280
 8007b42:	200e      	movs	r0, #14
 8007b44:	f7fb fe90 	bl	8003868 <pbuf_clone>
 8007b48:	4605      	mov	r5, r0
 8007b4a:	2800      	cmp	r0, #0
 8007b4c:	d1e6      	bne.n	8007b1c <etharp_query+0xd8>
 8007b4e:	f04f 30ff 	mov.w	r0, #4294967295
 8007b52:	e793      	b.n	8007a7c <etharp_query+0x38>
 8007b54:	2d00      	cmp	r5, #0
 8007b56:	d0a9      	beq.n	8007aac <etharp_query+0x68>
 8007b58:	f04f 30ff 	mov.w	r0, #4294967295
 8007b5c:	e7ac      	b.n	8007ab8 <etharp_query+0x74>
 8007b5e:	bf00      	nop
 8007b60:	0800b4ac 	.word	0x0800b4ac
 8007b64:	0800b608 	.word	0x0800b608
 8007b68:	08009b3a 	.word	0x08009b3a
 8007b6c:	200083ec 	.word	0x200083ec
 8007b70:	200082fc 	.word	0x200082fc
 8007b74:	0800b616 	.word	0x0800b616

08007b78 <etharp_output>:
 8007b78:	b5f0      	push	{r4, r5, r6, r7, lr}
 8007b7a:	460e      	mov	r6, r1
 8007b7c:	b085      	sub	sp, #20
 8007b7e:	4615      	mov	r5, r2
 8007b80:	4604      	mov	r4, r0
 8007b82:	b930      	cbnz	r0, 8007b92 <etharp_output+0x1a>
 8007b84:	4b44      	ldr	r3, [pc, #272]	; (8007c98 <etharp_output+0x120>)
 8007b86:	4945      	ldr	r1, [pc, #276]	; (8007c9c <etharp_output+0x124>)
 8007b88:	4845      	ldr	r0, [pc, #276]	; (8007ca0 <etharp_output+0x128>)
 8007b8a:	f240 321e 	movw	r2, #798	; 0x31e
 8007b8e:	f001 f881 	bl	8008c94 <iprintf>
 8007b92:	b936      	cbnz	r6, 8007ba2 <etharp_output+0x2a>
 8007b94:	4b40      	ldr	r3, [pc, #256]	; (8007c98 <etharp_output+0x120>)
 8007b96:	4943      	ldr	r1, [pc, #268]	; (8007ca4 <etharp_output+0x12c>)
 8007b98:	4841      	ldr	r0, [pc, #260]	; (8007ca0 <etharp_output+0x128>)
 8007b9a:	f240 321f 	movw	r2, #799	; 0x31f
 8007b9e:	f001 f879 	bl	8008c94 <iprintf>
 8007ba2:	b935      	cbnz	r5, 8007bb2 <etharp_output+0x3a>
 8007ba4:	4b3c      	ldr	r3, [pc, #240]	; (8007c98 <etharp_output+0x120>)
 8007ba6:	4940      	ldr	r1, [pc, #256]	; (8007ca8 <etharp_output+0x130>)
 8007ba8:	483d      	ldr	r0, [pc, #244]	; (8007ca0 <etharp_output+0x128>)
 8007baa:	f44f 7248 	mov.w	r2, #800	; 0x320
 8007bae:	f001 f871 	bl	8008c94 <iprintf>
 8007bb2:	6828      	ldr	r0, [r5, #0]
 8007bb4:	4621      	mov	r1, r4
 8007bb6:	f000 faee 	bl	8008196 <ip4_addr_isbroadcast_u32>
 8007bba:	2800      	cmp	r0, #0
 8007bbc:	d166      	bne.n	8007c8c <etharp_output+0x114>
 8007bbe:	682b      	ldr	r3, [r5, #0]
 8007bc0:	f003 02f0 	and.w	r2, r3, #240	; 0xf0
 8007bc4:	2ae0      	cmp	r2, #224	; 0xe0
 8007bc6:	d11c      	bne.n	8007c02 <etharp_output+0x8a>
 8007bc8:	2301      	movs	r3, #1
 8007bca:	f8ad 3008 	strh.w	r3, [sp, #8]
 8007bce:	235e      	movs	r3, #94	; 0x5e
 8007bd0:	f88d 300a 	strb.w	r3, [sp, #10]
 8007bd4:	786b      	ldrb	r3, [r5, #1]
 8007bd6:	f003 037f 	and.w	r3, r3, #127	; 0x7f
 8007bda:	f88d 300b 	strb.w	r3, [sp, #11]
 8007bde:	78ab      	ldrb	r3, [r5, #2]
 8007be0:	f88d 300c 	strb.w	r3, [sp, #12]
 8007be4:	78eb      	ldrb	r3, [r5, #3]
 8007be6:	f88d 300d 	strb.w	r3, [sp, #13]
 8007bea:	ab02      	add	r3, sp, #8
 8007bec:	f44f 6200 	mov.w	r2, #2048	; 0x800
 8007bf0:	9200      	str	r2, [sp, #0]
 8007bf2:	4631      	mov	r1, r6
 8007bf4:	f104 0226 	add.w	r2, r4, #38	; 0x26
 8007bf8:	4620      	mov	r0, r4
 8007bfa:	f000 ff13 	bl	8008a24 <ethernet_output>
 8007bfe:	b005      	add	sp, #20
 8007c00:	bdf0      	pop	{r4, r5, r6, r7, pc}
 8007c02:	6862      	ldr	r2, [r4, #4]
 8007c04:	68a1      	ldr	r1, [r4, #8]
 8007c06:	405a      	eors	r2, r3
 8007c08:	420a      	tst	r2, r1
 8007c0a:	d009      	beq.n	8007c20 <etharp_output+0xa8>
 8007c0c:	b29b      	uxth	r3, r3
 8007c0e:	f64f 62a9 	movw	r2, #65193	; 0xfea9
 8007c12:	4293      	cmp	r3, r2
 8007c14:	d004      	beq.n	8007c20 <etharp_output+0xa8>
 8007c16:	68e3      	ldr	r3, [r4, #12]
 8007c18:	2b00      	cmp	r3, #0
 8007c1a:	d039      	beq.n	8007c90 <etharp_output+0x118>
 8007c1c:	f104 050c 	add.w	r5, r4, #12
 8007c20:	f8df c090 	ldr.w	ip, [pc, #144]	; 8007cb4 <etharp_output+0x13c>
 8007c24:	4b21      	ldr	r3, [pc, #132]	; (8007cac <etharp_output+0x134>)
 8007c26:	f89c 2000 	ldrb.w	r2, [ip]
 8007c2a:	2118      	movs	r1, #24
 8007c2c:	fb01 3302 	mla	r3, r1, r2, r3
 8007c30:	7d19      	ldrb	r1, [r3, #20]
 8007c32:	2901      	cmp	r1, #1
 8007c34:	d90d      	bls.n	8007c52 <etharp_output+0xda>
 8007c36:	6899      	ldr	r1, [r3, #8]
 8007c38:	42a1      	cmp	r1, r4
 8007c3a:	d10a      	bne.n	8007c52 <etharp_output+0xda>
 8007c3c:	6829      	ldr	r1, [r5, #0]
 8007c3e:	685b      	ldr	r3, [r3, #4]
 8007c40:	4299      	cmp	r1, r3
 8007c42:	d106      	bne.n	8007c52 <etharp_output+0xda>
 8007c44:	4631      	mov	r1, r6
 8007c46:	4620      	mov	r0, r4
 8007c48:	b005      	add	sp, #20
 8007c4a:	e8bd 40f0 	ldmia.w	sp!, {r4, r5, r6, r7, lr}
 8007c4e:	f7ff bea3 	b.w	8007998 <etharp_output_to_arp_index>
 8007c52:	4b16      	ldr	r3, [pc, #88]	; (8007cac <etharp_output+0x134>)
 8007c54:	2100      	movs	r1, #0
 8007c56:	7d1f      	ldrb	r7, [r3, #20]
 8007c58:	2f01      	cmp	r7, #1
 8007c5a:	b2ca      	uxtb	r2, r1
 8007c5c:	d909      	bls.n	8007c72 <etharp_output+0xfa>
 8007c5e:	689f      	ldr	r7, [r3, #8]
 8007c60:	42a7      	cmp	r7, r4
 8007c62:	d106      	bne.n	8007c72 <etharp_output+0xfa>
 8007c64:	685f      	ldr	r7, [r3, #4]
 8007c66:	6828      	ldr	r0, [r5, #0]
 8007c68:	42b8      	cmp	r0, r7
 8007c6a:	d102      	bne.n	8007c72 <etharp_output+0xfa>
 8007c6c:	f88c 2000 	strb.w	r2, [ip]
 8007c70:	e7e8      	b.n	8007c44 <etharp_output+0xcc>
 8007c72:	3101      	adds	r1, #1
 8007c74:	290a      	cmp	r1, #10
 8007c76:	f103 0318 	add.w	r3, r3, #24
 8007c7a:	d1ec      	bne.n	8007c56 <etharp_output+0xde>
 8007c7c:	4632      	mov	r2, r6
 8007c7e:	4629      	mov	r1, r5
 8007c80:	4620      	mov	r0, r4
 8007c82:	b005      	add	sp, #20
 8007c84:	e8bd 40f0 	ldmia.w	sp!, {r4, r5, r6, r7, lr}
 8007c88:	f7ff bedc 	b.w	8007a44 <etharp_query>
 8007c8c:	4b08      	ldr	r3, [pc, #32]	; (8007cb0 <etharp_output+0x138>)
 8007c8e:	e7ad      	b.n	8007bec <etharp_output+0x74>
 8007c90:	f06f 0003 	mvn.w	r0, #3
 8007c94:	e7b3      	b.n	8007bfe <etharp_output+0x86>
 8007c96:	bf00      	nop
 8007c98:	0800b4ac 	.word	0x0800b4ac
 8007c9c:	08009b2c 	.word	0x08009b2c
 8007ca0:	08009b3a 	.word	0x08009b3a
 8007ca4:	0800a119 	.word	0x0800a119
 8007ca8:	0800b595 	.word	0x0800b595
 8007cac:	200082fc 	.word	0x200082fc
 8007cb0:	0800b996 	.word	0x0800b996
 8007cb4:	200083ec 	.word	0x200083ec

08007cb8 <icmp_send_response>:
 8007cb8:	b5f0      	push	{r4, r5, r6, r7, lr}
 8007cba:	4604      	mov	r4, r0
 8007cbc:	b087      	sub	sp, #28
 8007cbe:	460f      	mov	r7, r1
 8007cc0:	4616      	mov	r6, r2
 8007cc2:	2124      	movs	r1, #36	; 0x24
 8007cc4:	f44f 7220 	mov.w	r2, #640	; 0x280
 8007cc8:	2022      	movs	r0, #34	; 0x22
 8007cca:	f7fb fbd7 	bl	800347c <pbuf_alloc>
 8007cce:	4605      	mov	r5, r0
 8007cd0:	b390      	cbz	r0, 8007d38 <icmp_send_response+0x80>
 8007cd2:	8943      	ldrh	r3, [r0, #10]
 8007cd4:	2b23      	cmp	r3, #35	; 0x23
 8007cd6:	d806      	bhi.n	8007ce6 <icmp_send_response+0x2e>
 8007cd8:	4b18      	ldr	r3, [pc, #96]	; (8007d3c <icmp_send_response+0x84>)
 8007cda:	4919      	ldr	r1, [pc, #100]	; (8007d40 <icmp_send_response+0x88>)
 8007cdc:	4819      	ldr	r0, [pc, #100]	; (8007d44 <icmp_send_response+0x8c>)
 8007cde:	f44f 72b4 	mov.w	r2, #360	; 0x168
 8007ce2:	f000 ffd7 	bl	8008c94 <iprintf>
 8007ce6:	6860      	ldr	r0, [r4, #4]
 8007ce8:	686c      	ldr	r4, [r5, #4]
 8007cea:	2300      	movs	r3, #0
 8007cec:	7123      	strb	r3, [r4, #4]
 8007cee:	7163      	strb	r3, [r4, #5]
 8007cf0:	71a3      	strb	r3, [r4, #6]
 8007cf2:	71e3      	strb	r3, [r4, #7]
 8007cf4:	7027      	strb	r7, [r4, #0]
 8007cf6:	7066      	strb	r6, [r4, #1]
 8007cf8:	4603      	mov	r3, r0
 8007cfa:	f104 0208 	add.w	r2, r4, #8
 8007cfe:	f100 011c 	add.w	r1, r0, #28
 8007d02:	f853 6b04 	ldr.w	r6, [r3], #4
 8007d06:	f842 6b04 	str.w	r6, [r2], #4
 8007d0a:	428b      	cmp	r3, r1
 8007d0c:	d1f9      	bne.n	8007d02 <icmp_send_response+0x4a>
 8007d0e:	68c3      	ldr	r3, [r0, #12]
 8007d10:	9305      	str	r3, [sp, #20]
 8007d12:	a805      	add	r0, sp, #20
 8007d14:	f000 f8d0 	bl	8007eb8 <ip4_route>
 8007d18:	b158      	cbz	r0, 8007d32 <icmp_send_response+0x7a>
 8007d1a:	2100      	movs	r1, #0
 8007d1c:	2301      	movs	r3, #1
 8007d1e:	70a1      	strb	r1, [r4, #2]
 8007d20:	70e1      	strb	r1, [r4, #3]
 8007d22:	aa05      	add	r2, sp, #20
 8007d24:	e9cd 1300 	strd	r1, r3, [sp]
 8007d28:	9002      	str	r0, [sp, #8]
 8007d2a:	23ff      	movs	r3, #255	; 0xff
 8007d2c:	4628      	mov	r0, r5
 8007d2e:	f000 fa21 	bl	8008174 <ip4_output_if>
 8007d32:	4628      	mov	r0, r5
 8007d34:	f7fb fb3e 	bl	80033b4 <pbuf_free>
 8007d38:	b007      	add	sp, #28
 8007d3a:	bdf0      	pop	{r4, r5, r6, r7, pc}
 8007d3c:	0800b630 	.word	0x0800b630
 8007d40:	0800b665 	.word	0x0800b665
 8007d44:	08009b3a 	.word	0x08009b3a

08007d48 <icmp_input>:
 8007d48:	e92d 43f0 	stmdb	sp!, {r4, r5, r6, r7, r8, r9, lr}
 8007d4c:	4f43      	ldr	r7, [pc, #268]	; (8007e5c <icmp_input+0x114>)
 8007d4e:	f8d7 9008 	ldr.w	r9, [r7, #8]
 8007d52:	f899 5000 	ldrb.w	r5, [r9]
 8007d56:	f005 050f 	and.w	r5, r5, #15
 8007d5a:	00ad      	lsls	r5, r5, #2
 8007d5c:	2d13      	cmp	r5, #19
 8007d5e:	b087      	sub	sp, #28
 8007d60:	4604      	mov	r4, r0
 8007d62:	4688      	mov	r8, r1
 8007d64:	d92f      	bls.n	8007dc6 <icmp_input+0x7e>
 8007d66:	8943      	ldrh	r3, [r0, #10]
 8007d68:	2b03      	cmp	r3, #3
 8007d6a:	d92c      	bls.n	8007dc6 <icmp_input+0x7e>
 8007d6c:	6843      	ldr	r3, [r0, #4]
 8007d6e:	781b      	ldrb	r3, [r3, #0]
 8007d70:	2b08      	cmp	r3, #8
 8007d72:	d128      	bne.n	8007dc6 <icmp_input+0x7e>
 8007d74:	6978      	ldr	r0, [r7, #20]
 8007d76:	f000 03f0 	and.w	r3, r0, #240	; 0xf0
 8007d7a:	2be0      	cmp	r3, #224	; 0xe0
 8007d7c:	d023      	beq.n	8007dc6 <icmp_input+0x7e>
 8007d7e:	6839      	ldr	r1, [r7, #0]
 8007d80:	f000 fa09 	bl	8008196 <ip4_addr_isbroadcast_u32>
 8007d84:	b9f8      	cbnz	r0, 8007dc6 <icmp_input+0x7e>
 8007d86:	8923      	ldrh	r3, [r4, #8]
 8007d88:	2b07      	cmp	r3, #7
 8007d8a:	d91c      	bls.n	8007dc6 <icmp_input+0x7e>
 8007d8c:	f105 010e 	add.w	r1, r5, #14
 8007d90:	4620      	mov	r0, r4
 8007d92:	9105      	str	r1, [sp, #20]
 8007d94:	f7fb fad6 	bl	8003344 <pbuf_add_header>
 8007d98:	9905      	ldr	r1, [sp, #20]
 8007d9a:	2800      	cmp	r0, #0
 8007d9c:	d052      	beq.n	8007e44 <icmp_input+0xfc>
 8007d9e:	8923      	ldrh	r3, [r4, #8]
 8007da0:	1959      	adds	r1, r3, r5
 8007da2:	b289      	uxth	r1, r1
 8007da4:	428b      	cmp	r3, r1
 8007da6:	d80e      	bhi.n	8007dc6 <icmp_input+0x7e>
 8007da8:	f44f 7220 	mov.w	r2, #640	; 0x280
 8007dac:	200e      	movs	r0, #14
 8007dae:	f7fb fb65 	bl	800347c <pbuf_alloc>
 8007db2:	4606      	mov	r6, r0
 8007db4:	b138      	cbz	r0, 8007dc6 <icmp_input+0x7e>
 8007db6:	8942      	ldrh	r2, [r0, #10]
 8007db8:	f105 0308 	add.w	r3, r5, #8
 8007dbc:	429a      	cmp	r2, r3
 8007dbe:	d208      	bcs.n	8007dd2 <icmp_input+0x8a>
 8007dc0:	4630      	mov	r0, r6
 8007dc2:	f7fb faf7 	bl	80033b4 <pbuf_free>
 8007dc6:	4620      	mov	r0, r4
 8007dc8:	b007      	add	sp, #28
 8007dca:	e8bd 43f0 	ldmia.w	sp!, {r4, r5, r6, r7, r8, r9, lr}
 8007dce:	f7fb baf1 	b.w	80033b4 <pbuf_free>
 8007dd2:	4649      	mov	r1, r9
 8007dd4:	6840      	ldr	r0, [r0, #4]
 8007dd6:	462a      	mov	r2, r5
 8007dd8:	f001 f837 	bl	8008e4a <memcpy>
 8007ddc:	4629      	mov	r1, r5
 8007dde:	4630      	mov	r0, r6
 8007de0:	f7fb fab4 	bl	800334c <pbuf_remove_header>
 8007de4:	b130      	cbz	r0, 8007df4 <icmp_input+0xac>
 8007de6:	4b1e      	ldr	r3, [pc, #120]	; (8007e60 <icmp_input+0x118>)
 8007de8:	491e      	ldr	r1, [pc, #120]	; (8007e64 <icmp_input+0x11c>)
 8007dea:	481f      	ldr	r0, [pc, #124]	; (8007e68 <icmp_input+0x120>)
 8007dec:	22b6      	movs	r2, #182	; 0xb6
 8007dee:	f000 ff51 	bl	8008c94 <iprintf>
 8007df2:	e7e5      	b.n	8007dc0 <icmp_input+0x78>
 8007df4:	4621      	mov	r1, r4
 8007df6:	4630      	mov	r0, r6
 8007df8:	f7fb fc6e 	bl	80036d8 <pbuf_copy>
 8007dfc:	2800      	cmp	r0, #0
 8007dfe:	d1df      	bne.n	8007dc0 <icmp_input+0x78>
 8007e00:	4620      	mov	r0, r4
 8007e02:	f7fb fad7 	bl	80033b4 <pbuf_free>
 8007e06:	4634      	mov	r4, r6
 8007e08:	4629      	mov	r1, r5
 8007e0a:	4620      	mov	r0, r4
 8007e0c:	6866      	ldr	r6, [r4, #4]
 8007e0e:	f7fb fa99 	bl	8003344 <pbuf_add_header>
 8007e12:	4602      	mov	r2, r0
 8007e14:	2800      	cmp	r0, #0
 8007e16:	d1d6      	bne.n	8007dc6 <icmp_input+0x7e>
 8007e18:	6860      	ldr	r0, [r4, #4]
 8007e1a:	697b      	ldr	r3, [r7, #20]
 8007e1c:	60c3      	str	r3, [r0, #12]
 8007e1e:	693b      	ldr	r3, [r7, #16]
 8007e20:	6103      	str	r3, [r0, #16]
 8007e22:	2101      	movs	r1, #1
 8007e24:	23ff      	movs	r3, #255	; 0xff
 8007e26:	7032      	strb	r2, [r6, #0]
 8007e28:	70b2      	strb	r2, [r6, #2]
 8007e2a:	70f2      	strb	r2, [r6, #3]
 8007e2c:	7203      	strb	r3, [r0, #8]
 8007e2e:	7282      	strb	r2, [r0, #10]
 8007e30:	72c2      	strb	r2, [r0, #11]
 8007e32:	e9cd 2100 	strd	r2, r1, [sp]
 8007e36:	f8cd 8008 	str.w	r8, [sp, #8]
 8007e3a:	490c      	ldr	r1, [pc, #48]	; (8007e6c <icmp_input+0x124>)
 8007e3c:	4620      	mov	r0, r4
 8007e3e:	f000 f999 	bl	8008174 <ip4_output_if>
 8007e42:	e7c0      	b.n	8007dc6 <icmp_input+0x7e>
 8007e44:	4620      	mov	r0, r4
 8007e46:	f7fb fa81 	bl	800334c <pbuf_remove_header>
 8007e4a:	2800      	cmp	r0, #0
 8007e4c:	d0dc      	beq.n	8007e08 <icmp_input+0xc0>
 8007e4e:	4b04      	ldr	r3, [pc, #16]	; (8007e60 <icmp_input+0x118>)
 8007e50:	4907      	ldr	r1, [pc, #28]	; (8007e70 <icmp_input+0x128>)
 8007e52:	4805      	ldr	r0, [pc, #20]	; (8007e68 <icmp_input+0x120>)
 8007e54:	22c7      	movs	r2, #199	; 0xc7
 8007e56:	f000 ff1d 	bl	8008c94 <iprintf>
 8007e5a:	e7b4      	b.n	8007dc6 <icmp_input+0x7e>
 8007e5c:	20004d28 	.word	0x20004d28
 8007e60:	0800b630 	.word	0x0800b630
 8007e64:	0800b691 	.word	0x0800b691
 8007e68:	08009b3a 	.word	0x08009b3a
 8007e6c:	20004d3c 	.word	0x20004d3c
 8007e70:	0800b6c6 	.word	0x0800b6c6

08007e74 <icmp_dest_unreach>:
 8007e74:	460a      	mov	r2, r1
 8007e76:	2103      	movs	r1, #3
 8007e78:	f7ff bf1e 	b.w	8007cb8 <icmp_send_response>

08007e7c <icmp_time_exceeded>:
 8007e7c:	460a      	mov	r2, r1
 8007e7e:	210b      	movs	r1, #11
 8007e80:	f7ff bf1a 	b.w	8007cb8 <icmp_send_response>

08007e84 <ip4_input_accept>:
 8007e84:	b508      	push	{r3, lr}
 8007e86:	f890 302d 	ldrb.w	r3, [r0, #45]	; 0x2d
 8007e8a:	f013 0301 	ands.w	r3, r3, #1
 8007e8e:	4601      	mov	r1, r0
 8007e90:	d00b      	beq.n	8007eaa <ip4_input_accept+0x26>
 8007e92:	6843      	ldr	r3, [r0, #4]
 8007e94:	b14b      	cbz	r3, 8007eaa <ip4_input_accept+0x26>
 8007e96:	4a07      	ldr	r2, [pc, #28]	; (8007eb4 <ip4_input_accept+0x30>)
 8007e98:	6950      	ldr	r0, [r2, #20]
 8007e9a:	4283      	cmp	r3, r0
 8007e9c:	d007      	beq.n	8007eae <ip4_input_accept+0x2a>
 8007e9e:	f000 f97a 	bl	8008196 <ip4_addr_isbroadcast_u32>
 8007ea2:	3800      	subs	r0, #0
 8007ea4:	bf18      	it	ne
 8007ea6:	2001      	movne	r0, #1
 8007ea8:	bd08      	pop	{r3, pc}
 8007eaa:	4618      	mov	r0, r3
 8007eac:	e7fc      	b.n	8007ea8 <ip4_input_accept+0x24>
 8007eae:	2001      	movs	r0, #1
 8007eb0:	e7fa      	b.n	8007ea8 <ip4_input_accept+0x24>
 8007eb2:	bf00      	nop
 8007eb4:	20004d28 	.word	0x20004d28

08007eb8 <ip4_route>:
 8007eb8:	b530      	push	{r4, r5, lr}
 8007eba:	4b14      	ldr	r3, [pc, #80]	; (8007f0c <ip4_route+0x54>)
 8007ebc:	681b      	ldr	r3, [r3, #0]
 8007ebe:	b97b      	cbnz	r3, 8007ee0 <ip4_route+0x28>
 8007ec0:	4a13      	ldr	r2, [pc, #76]	; (8007f10 <ip4_route+0x58>)
 8007ec2:	6812      	ldr	r2, [r2, #0]
 8007ec4:	b1fa      	cbz	r2, 8007f06 <ip4_route+0x4e>
 8007ec6:	f892 102d 	ldrb.w	r1, [r2, #45]	; 0x2d
 8007eca:	f001 0105 	and.w	r1, r1, #5
 8007ece:	2905      	cmp	r1, #5
 8007ed0:	d119      	bne.n	8007f06 <ip4_route+0x4e>
 8007ed2:	6851      	ldr	r1, [r2, #4]
 8007ed4:	b1b9      	cbz	r1, 8007f06 <ip4_route+0x4e>
 8007ed6:	7801      	ldrb	r1, [r0, #0]
 8007ed8:	297f      	cmp	r1, #127	; 0x7f
 8007eda:	bf18      	it	ne
 8007edc:	4613      	movne	r3, r2
 8007ede:	e012      	b.n	8007f06 <ip4_route+0x4e>
 8007ee0:	f893 102d 	ldrb.w	r1, [r3, #45]	; 0x2d
 8007ee4:	07cd      	lsls	r5, r1, #31
 8007ee6:	d5e9      	bpl.n	8007ebc <ip4_route+0x4>
 8007ee8:	074c      	lsls	r4, r1, #29
 8007eea:	d5e7      	bpl.n	8007ebc <ip4_route+0x4>
 8007eec:	685a      	ldr	r2, [r3, #4]
 8007eee:	2a00      	cmp	r2, #0
 8007ef0:	d0e4      	beq.n	8007ebc <ip4_route+0x4>
 8007ef2:	6804      	ldr	r4, [r0, #0]
 8007ef4:	689d      	ldr	r5, [r3, #8]
 8007ef6:	4062      	eors	r2, r4
 8007ef8:	422a      	tst	r2, r5
 8007efa:	d004      	beq.n	8007f06 <ip4_route+0x4e>
 8007efc:	078a      	lsls	r2, r1, #30
 8007efe:	d4dd      	bmi.n	8007ebc <ip4_route+0x4>
 8007f00:	68da      	ldr	r2, [r3, #12]
 8007f02:	4294      	cmp	r4, r2
 8007f04:	d1da      	bne.n	8007ebc <ip4_route+0x4>
 8007f06:	4618      	mov	r0, r3
 8007f08:	bd30      	pop	{r4, r5, pc}
 8007f0a:	bf00      	nop
 8007f0c:	20008288 	.word	0x20008288
 8007f10:	20008284 	.word	0x20008284

08007f14 <ip4_input>:
 8007f14:	e92d 43f8 	stmdb	sp!, {r3, r4, r5, r6, r7, r8, r9, lr}
 8007f18:	f8d0 8004 	ldr.w	r8, [r0, #4]
 8007f1c:	f898 5000 	ldrb.w	r5, [r8]
 8007f20:	092b      	lsrs	r3, r5, #4
 8007f22:	2b04      	cmp	r3, #4
 8007f24:	4604      	mov	r4, r0
 8007f26:	460e      	mov	r6, r1
 8007f28:	d005      	beq.n	8007f36 <ip4_input+0x22>
 8007f2a:	4620      	mov	r0, r4
 8007f2c:	f7fb fa42 	bl	80033b4 <pbuf_free>
 8007f30:	2000      	movs	r0, #0
 8007f32:	e8bd 83f8 	ldmia.w	sp!, {r3, r4, r5, r6, r7, r8, r9, pc}
 8007f36:	f8b8 0002 	ldrh.w	r0, [r8, #2]
 8007f3a:	f7fa fcfc 	bl	8002936 <lwip_htons>
 8007f3e:	8923      	ldrh	r3, [r4, #8]
 8007f40:	f005 050f 	and.w	r5, r5, #15
 8007f44:	ea4f 0985 	mov.w	r9, r5, lsl #2
 8007f48:	4283      	cmp	r3, r0
 8007f4a:	464d      	mov	r5, r9
 8007f4c:	4607      	mov	r7, r0
 8007f4e:	d903      	bls.n	8007f58 <ip4_input+0x44>
 8007f50:	4601      	mov	r1, r0
 8007f52:	4620      	mov	r0, r4
 8007f54:	f7fb fb12 	bl	800357c <pbuf_realloc>
 8007f58:	8963      	ldrh	r3, [r4, #10]
 8007f5a:	42ab      	cmp	r3, r5
 8007f5c:	d3e5      	bcc.n	8007f2a <ip4_input+0x16>
 8007f5e:	8923      	ldrh	r3, [r4, #8]
 8007f60:	42bb      	cmp	r3, r7
 8007f62:	d3e2      	bcc.n	8007f2a <ip4_input+0x16>
 8007f64:	2d13      	cmp	r5, #19
 8007f66:	d9e0      	bls.n	8007f2a <ip4_input+0x16>
 8007f68:	f8d8 3010 	ldr.w	r3, [r8, #16]
 8007f6c:	4d41      	ldr	r5, [pc, #260]	; (8008074 <ip4_input+0x160>)
 8007f6e:	616b      	str	r3, [r5, #20]
 8007f70:	f003 03f0 	and.w	r3, r3, #240	; 0xf0
 8007f74:	f8d8 200c 	ldr.w	r2, [r8, #12]
 8007f78:	612a      	str	r2, [r5, #16]
 8007f7a:	2be0      	cmp	r3, #224	; 0xe0
 8007f7c:	d13c      	bne.n	8007ff8 <ip4_input+0xe4>
 8007f7e:	f896 302d 	ldrb.w	r3, [r6, #45]	; 0x2d
 8007f82:	07db      	lsls	r3, r3, #31
 8007f84:	d543      	bpl.n	800800e <ip4_input+0xfa>
 8007f86:	6873      	ldr	r3, [r6, #4]
 8007f88:	2b00      	cmp	r3, #0
 8007f8a:	d040      	beq.n	800800e <ip4_input+0xfa>
 8007f8c:	4637      	mov	r7, r6
 8007f8e:	6928      	ldr	r0, [r5, #16]
 8007f90:	4631      	mov	r1, r6
 8007f92:	f000 f900 	bl	8008196 <ip4_addr_isbroadcast_u32>
 8007f96:	2800      	cmp	r0, #0
 8007f98:	d1c7      	bne.n	8007f2a <ip4_input+0x16>
 8007f9a:	692b      	ldr	r3, [r5, #16]
 8007f9c:	f003 03f0 	and.w	r3, r3, #240	; 0xf0
 8007fa0:	2be0      	cmp	r3, #224	; 0xe0
 8007fa2:	d0c2      	beq.n	8007f2a <ip4_input+0x16>
 8007fa4:	2f00      	cmp	r7, #0
 8007fa6:	d0c0      	beq.n	8007f2a <ip4_input+0x16>
 8007fa8:	f8b8 3006 	ldrh.w	r3, [r8, #6]
 8007fac:	f023 03c0 	bic.w	r3, r3, #192	; 0xc0
 8007fb0:	b13b      	cbz	r3, 8007fc2 <ip4_input+0xae>
 8007fb2:	4620      	mov	r0, r4
 8007fb4:	f000 fa22 	bl	80083fc <ip4_reass>
 8007fb8:	4604      	mov	r4, r0
 8007fba:	2800      	cmp	r0, #0
 8007fbc:	d0b8      	beq.n	8007f30 <ip4_input+0x1c>
 8007fbe:	f8d0 8004 	ldr.w	r8, [r0, #4]
 8007fc2:	f8c5 8008 	str.w	r8, [r5, #8]
 8007fc6:	e9c5 7600 	strd	r7, r6, [r5]
 8007fca:	f898 3000 	ldrb.w	r3, [r8]
 8007fce:	f003 030f 	and.w	r3, r3, #15
 8007fd2:	009b      	lsls	r3, r3, #2
 8007fd4:	4649      	mov	r1, r9
 8007fd6:	4620      	mov	r0, r4
 8007fd8:	81ab      	strh	r3, [r5, #12]
 8007fda:	f7fb f9b7 	bl	800334c <pbuf_remove_header>
 8007fde:	f898 3009 	ldrb.w	r3, [r8, #9]
 8007fe2:	2b06      	cmp	r3, #6
 8007fe4:	d02b      	beq.n	800803e <ip4_input+0x12a>
 8007fe6:	2b11      	cmp	r3, #17
 8007fe8:	d01d      	beq.n	8008026 <ip4_input+0x112>
 8007fea:	2b01      	cmp	r3, #1
 8007fec:	d12c      	bne.n	8008048 <ip4_input+0x134>
 8007fee:	4631      	mov	r1, r6
 8007ff0:	4620      	mov	r0, r4
 8007ff2:	f7ff fea9 	bl	8007d48 <icmp_input>
 8007ff6:	e01a      	b.n	800802e <ip4_input+0x11a>
 8007ff8:	4630      	mov	r0, r6
 8007ffa:	f7ff ff43 	bl	8007e84 <ip4_input_accept>
 8007ffe:	2800      	cmp	r0, #0
 8008000:	d1c4      	bne.n	8007f8c <ip4_input+0x78>
 8008002:	7d2b      	ldrb	r3, [r5, #20]
 8008004:	2b7f      	cmp	r3, #127	; 0x7f
 8008006:	d002      	beq.n	800800e <ip4_input+0xfa>
 8008008:	4b1b      	ldr	r3, [pc, #108]	; (8008078 <ip4_input+0x164>)
 800800a:	681f      	ldr	r7, [r3, #0]
 800800c:	b90f      	cbnz	r7, 8008012 <ip4_input+0xfe>
 800800e:	2700      	movs	r7, #0
 8008010:	e7bd      	b.n	8007f8e <ip4_input+0x7a>
 8008012:	42b7      	cmp	r7, r6
 8008014:	d101      	bne.n	800801a <ip4_input+0x106>
 8008016:	683f      	ldr	r7, [r7, #0]
 8008018:	e7f8      	b.n	800800c <ip4_input+0xf8>
 800801a:	4638      	mov	r0, r7
 800801c:	f7ff ff32 	bl	8007e84 <ip4_input_accept>
 8008020:	2800      	cmp	r0, #0
 8008022:	d0f8      	beq.n	8008016 <ip4_input+0x102>
 8008024:	e7b3      	b.n	8007f8e <ip4_input+0x7a>
 8008026:	4631      	mov	r1, r6
 8008028:	4620      	mov	r0, r4
 800802a:	f7ff f9bb 	bl	80073a4 <udp_input>
 800802e:	2300      	movs	r3, #0
 8008030:	e9c5 3300 	strd	r3, r3, [r5]
 8008034:	e9c5 3304 	strd	r3, r3, [r5, #16]
 8008038:	60ab      	str	r3, [r5, #8]
 800803a:	81ab      	strh	r3, [r5, #12]
 800803c:	e778      	b.n	8007f30 <ip4_input+0x1c>
 800803e:	4631      	mov	r1, r6
 8008040:	4620      	mov	r0, r4
 8008042:	f7fd f9e1 	bl	8005408 <tcp_input>
 8008046:	e7f2      	b.n	800802e <ip4_input+0x11a>
 8008048:	6968      	ldr	r0, [r5, #20]
 800804a:	4639      	mov	r1, r7
 800804c:	f000 f8a3 	bl	8008196 <ip4_addr_isbroadcast_u32>
 8008050:	b960      	cbnz	r0, 800806c <ip4_input+0x158>
 8008052:	696b      	ldr	r3, [r5, #20]
 8008054:	f003 03f0 	and.w	r3, r3, #240	; 0xf0
 8008058:	2be0      	cmp	r3, #224	; 0xe0
 800805a:	d007      	beq.n	800806c <ip4_input+0x158>
 800805c:	4649      	mov	r1, r9
 800805e:	4620      	mov	r0, r4
 8008060:	f7fb f9a0 	bl	80033a4 <pbuf_header_force>
 8008064:	2102      	movs	r1, #2
 8008066:	4620      	mov	r0, r4
 8008068:	f7ff ff04 	bl	8007e74 <icmp_dest_unreach>
 800806c:	4620      	mov	r0, r4
 800806e:	f7fb f9a1 	bl	80033b4 <pbuf_free>
 8008072:	e7dc      	b.n	800802e <ip4_input+0x11a>
 8008074:	20004d28 	.word	0x20004d28
 8008078:	20008288 	.word	0x20008288

0800807c <ip4_output_if_src>:
 800807c:	e92d 47f3 	stmdb	sp!, {r0, r1, r4, r5, r6, r7, r8, r9, sl, lr}
 8008080:	4698      	mov	r8, r3
 8008082:	7b83      	ldrb	r3, [r0, #14]
 8008084:	9f0c      	ldr	r7, [sp, #48]	; 0x30
 8008086:	2b01      	cmp	r3, #1
 8008088:	4604      	mov	r4, r0
 800808a:	4689      	mov	r9, r1
 800808c:	4616      	mov	r6, r2
 800808e:	d006      	beq.n	800809e <ip4_output_if_src+0x22>
 8008090:	4b32      	ldr	r3, [pc, #200]	; (800815c <ip4_output_if_src+0xe0>)
 8008092:	4933      	ldr	r1, [pc, #204]	; (8008160 <ip4_output_if_src+0xe4>)
 8008094:	4833      	ldr	r0, [pc, #204]	; (8008164 <ip4_output_if_src+0xe8>)
 8008096:	f44f 7255 	mov.w	r2, #852	; 0x354
 800809a:	f000 fdfb 	bl	8008c94 <iprintf>
 800809e:	2e00      	cmp	r6, #0
 80080a0:	d04e      	beq.n	8008140 <ip4_output_if_src+0xc4>
 80080a2:	2114      	movs	r1, #20
 80080a4:	4620      	mov	r0, r4
 80080a6:	f7fb f94d 	bl	8003344 <pbuf_add_header>
 80080aa:	b120      	cbz	r0, 80080b6 <ip4_output_if_src+0x3a>
 80080ac:	f06f 0001 	mvn.w	r0, #1
 80080b0:	b002      	add	sp, #8
 80080b2:	e8bd 87f0 	ldmia.w	sp!, {r4, r5, r6, r7, r8, r9, sl, pc}
 80080b6:	8963      	ldrh	r3, [r4, #10]
 80080b8:	6865      	ldr	r5, [r4, #4]
 80080ba:	2b13      	cmp	r3, #19
 80080bc:	d806      	bhi.n	80080cc <ip4_output_if_src+0x50>
 80080be:	4b27      	ldr	r3, [pc, #156]	; (800815c <ip4_output_if_src+0xe0>)
 80080c0:	4929      	ldr	r1, [pc, #164]	; (8008168 <ip4_output_if_src+0xec>)
 80080c2:	4828      	ldr	r0, [pc, #160]	; (8008164 <ip4_output_if_src+0xe8>)
 80080c4:	f44f 7262 	mov.w	r2, #904	; 0x388
 80080c8:	f000 fde4 	bl	8008c94 <iprintf>
 80080cc:	f89d 302c 	ldrb.w	r3, [sp, #44]	; 0x2c
 80080d0:	f885 8008 	strb.w	r8, [r5, #8]
 80080d4:	726b      	strb	r3, [r5, #9]
 80080d6:	6833      	ldr	r3, [r6, #0]
 80080d8:	612b      	str	r3, [r5, #16]
 80080da:	2345      	movs	r3, #69	; 0x45
 80080dc:	702b      	strb	r3, [r5, #0]
 80080de:	f89d 3028 	ldrb.w	r3, [sp, #40]	; 0x28
 80080e2:	706b      	strb	r3, [r5, #1]
 80080e4:	8920      	ldrh	r0, [r4, #8]
 80080e6:	f8df a088 	ldr.w	sl, [pc, #136]	; 8008170 <ip4_output_if_src+0xf4>
 80080ea:	f7fa fc24 	bl	8002936 <lwip_htons>
 80080ee:	f04f 0800 	mov.w	r8, #0
 80080f2:	8068      	strh	r0, [r5, #2]
 80080f4:	f885 8006 	strb.w	r8, [r5, #6]
 80080f8:	f8ba 0000 	ldrh.w	r0, [sl]
 80080fc:	f885 8007 	strb.w	r8, [r5, #7]
 8008100:	f7fa fc19 	bl	8002936 <lwip_htons>
 8008104:	f8ba 3000 	ldrh.w	r3, [sl]
 8008108:	80a8      	strh	r0, [r5, #4]
 800810a:	3301      	adds	r3, #1
 800810c:	f8aa 3000 	strh.w	r3, [sl]
 8008110:	f1b9 0f00 	cmp.w	r9, #0
 8008114:	d111      	bne.n	800813a <ip4_output_if_src+0xbe>
 8008116:	4b15      	ldr	r3, [pc, #84]	; (800816c <ip4_output_if_src+0xf0>)
 8008118:	681b      	ldr	r3, [r3, #0]
 800811a:	60eb      	str	r3, [r5, #12]
 800811c:	f885 800a 	strb.w	r8, [r5, #10]
 8008120:	f885 800b 	strb.w	r8, [r5, #11]
 8008124:	8cbb      	ldrh	r3, [r7, #36]	; 0x24
 8008126:	b19b      	cbz	r3, 8008150 <ip4_output_if_src+0xd4>
 8008128:	8922      	ldrh	r2, [r4, #8]
 800812a:	429a      	cmp	r2, r3
 800812c:	d910      	bls.n	8008150 <ip4_output_if_src+0xd4>
 800812e:	4632      	mov	r2, r6
 8008130:	4639      	mov	r1, r7
 8008132:	4620      	mov	r0, r4
 8008134:	f000 fb3a 	bl	80087ac <ip4_frag>
 8008138:	e7ba      	b.n	80080b0 <ip4_output_if_src+0x34>
 800813a:	f8d9 3000 	ldr.w	r3, [r9]
 800813e:	e7ec      	b.n	800811a <ip4_output_if_src+0x9e>
 8008140:	8963      	ldrh	r3, [r4, #10]
 8008142:	2b13      	cmp	r3, #19
 8008144:	d9b2      	bls.n	80080ac <ip4_output_if_src+0x30>
 8008146:	6863      	ldr	r3, [r4, #4]
 8008148:	691b      	ldr	r3, [r3, #16]
 800814a:	9301      	str	r3, [sp, #4]
 800814c:	ae01      	add	r6, sp, #4
 800814e:	e7e9      	b.n	8008124 <ip4_output_if_src+0xa8>
 8008150:	697b      	ldr	r3, [r7, #20]
 8008152:	4632      	mov	r2, r6
 8008154:	4621      	mov	r1, r4
 8008156:	4638      	mov	r0, r7
 8008158:	4798      	blx	r3
 800815a:	e7a9      	b.n	80080b0 <ip4_output_if_src+0x34>
 800815c:	0800b6f8 	.word	0x0800b6f8
 8008160:	0800b72c 	.word	0x0800b72c
 8008164:	08009b3a 	.word	0x08009b3a
 8008168:	0800b738 	.word	0x0800b738
 800816c:	0800b768 	.word	0x0800b768
 8008170:	200083ee 	.word	0x200083ee

08008174 <ip4_output_if>:
 8008174:	b4f0      	push	{r4, r5, r6, r7}
 8008176:	9c06      	ldr	r4, [sp, #24]
 8008178:	f89d 5010 	ldrb.w	r5, [sp, #16]
 800817c:	f89d 6014 	ldrb.w	r6, [sp, #20]
 8008180:	b11a      	cbz	r2, 800818a <ip4_output_if+0x16>
 8008182:	b109      	cbz	r1, 8008188 <ip4_output_if+0x14>
 8008184:	680f      	ldr	r7, [r1, #0]
 8008186:	b907      	cbnz	r7, 800818a <ip4_output_if+0x16>
 8008188:	1d21      	adds	r1, r4, #4
 800818a:	e9cd 6405 	strd	r6, r4, [sp, #20]
 800818e:	9504      	str	r5, [sp, #16]
 8008190:	bcf0      	pop	{r4, r5, r6, r7}
 8008192:	f7ff bf73 	b.w	800807c <ip4_output_if_src>

08008196 <ip4_addr_isbroadcast_u32>:
 8008196:	1e43      	subs	r3, r0, #1
 8008198:	3303      	adds	r3, #3
 800819a:	d813      	bhi.n	80081c4 <ip4_addr_isbroadcast_u32+0x2e>
 800819c:	f891 302d 	ldrb.w	r3, [r1, #45]	; 0x2d
 80081a0:	f013 0302 	ands.w	r3, r3, #2
 80081a4:	d00c      	beq.n	80081c0 <ip4_addr_isbroadcast_u32+0x2a>
 80081a6:	684b      	ldr	r3, [r1, #4]
 80081a8:	4283      	cmp	r3, r0
 80081aa:	d00d      	beq.n	80081c8 <ip4_addr_isbroadcast_u32+0x32>
 80081ac:	688a      	ldr	r2, [r1, #8]
 80081ae:	4043      	eors	r3, r0
 80081b0:	4213      	tst	r3, r2
 80081b2:	d109      	bne.n	80081c8 <ip4_addr_isbroadcast_u32+0x32>
 80081b4:	43d3      	mvns	r3, r2
 80081b6:	ea20 0002 	bic.w	r0, r0, r2
 80081ba:	1ac2      	subs	r2, r0, r3
 80081bc:	4253      	negs	r3, r2
 80081be:	4153      	adcs	r3, r2
 80081c0:	4618      	mov	r0, r3
 80081c2:	4770      	bx	lr
 80081c4:	2301      	movs	r3, #1
 80081c6:	e7fb      	b.n	80081c0 <ip4_addr_isbroadcast_u32+0x2a>
 80081c8:	2300      	movs	r3, #0
 80081ca:	e7f9      	b.n	80081c0 <ip4_addr_isbroadcast_u32+0x2a>

080081cc <ip_reass_dequeue_datagram>:
 80081cc:	b538      	push	{r3, r4, r5, lr}
 80081ce:	4b0c      	ldr	r3, [pc, #48]	; (8008200 <ip_reass_dequeue_datagram+0x34>)
 80081d0:	681a      	ldr	r2, [r3, #0]
 80081d2:	4282      	cmp	r2, r0
 80081d4:	4604      	mov	r4, r0
 80081d6:	460d      	mov	r5, r1
 80081d8:	d107      	bne.n	80081ea <ip_reass_dequeue_datagram+0x1e>
 80081da:	6802      	ldr	r2, [r0, #0]
 80081dc:	601a      	str	r2, [r3, #0]
 80081de:	4621      	mov	r1, r4
 80081e0:	2004      	movs	r0, #4
 80081e2:	e8bd 4038 	ldmia.w	sp!, {r3, r4, r5, lr}
 80081e6:	f7fa be73 	b.w	8002ed0 <memp_free>
 80081ea:	b931      	cbnz	r1, 80081fa <ip_reass_dequeue_datagram+0x2e>
 80081ec:	4b05      	ldr	r3, [pc, #20]	; (8008204 <ip_reass_dequeue_datagram+0x38>)
 80081ee:	4906      	ldr	r1, [pc, #24]	; (8008208 <ip_reass_dequeue_datagram+0x3c>)
 80081f0:	4806      	ldr	r0, [pc, #24]	; (800820c <ip_reass_dequeue_datagram+0x40>)
 80081f2:	f240 1245 	movw	r2, #325	; 0x145
 80081f6:	f000 fd4d 	bl	8008c94 <iprintf>
 80081fa:	6823      	ldr	r3, [r4, #0]
 80081fc:	602b      	str	r3, [r5, #0]
 80081fe:	e7ee      	b.n	80081de <ip_reass_dequeue_datagram+0x12>
 8008200:	200083f4 	.word	0x200083f4
 8008204:	0800b76c 	.word	0x0800b76c
 8008208:	0800b7a5 	.word	0x0800b7a5
 800820c:	08009b3a 	.word	0x08009b3a

08008210 <ip_reass_free_complete_datagram>:
 8008210:	4281      	cmp	r1, r0
 8008212:	e92d 4ff8 	stmdb	sp!, {r3, r4, r5, r6, r7, r8, r9, sl, fp, lr}
 8008216:	4604      	mov	r4, r0
 8008218:	460e      	mov	r6, r1
 800821a:	d105      	bne.n	8008228 <ip_reass_free_complete_datagram+0x18>
 800821c:	4b2f      	ldr	r3, [pc, #188]	; (80082dc <ip_reass_free_complete_datagram+0xcc>)
 800821e:	4930      	ldr	r1, [pc, #192]	; (80082e0 <ip_reass_free_complete_datagram+0xd0>)
 8008220:	4830      	ldr	r0, [pc, #192]	; (80082e4 <ip_reass_free_complete_datagram+0xd4>)
 8008222:	22ab      	movs	r2, #171	; 0xab
 8008224:	f000 fd36 	bl	8008c94 <iprintf>
 8008228:	b146      	cbz	r6, 800823c <ip_reass_free_complete_datagram+0x2c>
 800822a:	6833      	ldr	r3, [r6, #0]
 800822c:	42a3      	cmp	r3, r4
 800822e:	d005      	beq.n	800823c <ip_reass_free_complete_datagram+0x2c>
 8008230:	4b2a      	ldr	r3, [pc, #168]	; (80082dc <ip_reass_free_complete_datagram+0xcc>)
 8008232:	492d      	ldr	r1, [pc, #180]	; (80082e8 <ip_reass_free_complete_datagram+0xd8>)
 8008234:	482b      	ldr	r0, [pc, #172]	; (80082e4 <ip_reass_free_complete_datagram+0xd4>)
 8008236:	22ad      	movs	r2, #173	; 0xad
 8008238:	f000 fd2c 	bl	8008c94 <iprintf>
 800823c:	6867      	ldr	r7, [r4, #4]
 800823e:	687b      	ldr	r3, [r7, #4]
 8008240:	889a      	ldrh	r2, [r3, #4]
 8008242:	bb92      	cbnz	r2, 80082aa <ip_reass_free_complete_datagram+0x9a>
 8008244:	681a      	ldr	r2, [r3, #0]
 8008246:	6062      	str	r2, [r4, #4]
 8008248:	f104 011c 	add.w	r1, r4, #28
 800824c:	f104 0208 	add.w	r2, r4, #8
 8008250:	f852 0b04 	ldr.w	r0, [r2], #4
 8008254:	f843 0b04 	str.w	r0, [r3], #4
 8008258:	428a      	cmp	r2, r1
 800825a:	d1f9      	bne.n	8008250 <ip_reass_free_complete_datagram+0x40>
 800825c:	2101      	movs	r1, #1
 800825e:	4638      	mov	r0, r7
 8008260:	f7ff fe0c 	bl	8007e7c <icmp_time_exceeded>
 8008264:	4638      	mov	r0, r7
 8008266:	f7fb f9e1 	bl	800362c <pbuf_clen>
 800826a:	4605      	mov	r5, r0
 800826c:	4638      	mov	r0, r7
 800826e:	f7fb f8a1 	bl	80033b4 <pbuf_free>
 8008272:	6867      	ldr	r7, [r4, #4]
 8008274:	f8df 8064 	ldr.w	r8, [pc, #100]	; 80082dc <ip_reass_free_complete_datagram+0xcc>
 8008278:	f8df 9078 	ldr.w	r9, [pc, #120]	; 80082f4 <ip_reass_free_complete_datagram+0xe4>
 800827c:	f8df a064 	ldr.w	sl, [pc, #100]	; 80082e4 <ip_reass_free_complete_datagram+0xd4>
 8008280:	b9af      	cbnz	r7, 80082ae <ip_reass_free_complete_datagram+0x9e>
 8008282:	4620      	mov	r0, r4
 8008284:	4c19      	ldr	r4, [pc, #100]	; (80082ec <ip_reass_free_complete_datagram+0xdc>)
 8008286:	4631      	mov	r1, r6
 8008288:	f7ff ffa0 	bl	80081cc <ip_reass_dequeue_datagram>
 800828c:	8823      	ldrh	r3, [r4, #0]
 800828e:	42ab      	cmp	r3, r5
 8008290:	d205      	bcs.n	800829e <ip_reass_free_complete_datagram+0x8e>
 8008292:	4b12      	ldr	r3, [pc, #72]	; (80082dc <ip_reass_free_complete_datagram+0xcc>)
 8008294:	4916      	ldr	r1, [pc, #88]	; (80082f0 <ip_reass_free_complete_datagram+0xe0>)
 8008296:	4813      	ldr	r0, [pc, #76]	; (80082e4 <ip_reass_free_complete_datagram+0xd4>)
 8008298:	22d2      	movs	r2, #210	; 0xd2
 800829a:	f000 fcfb 	bl	8008c94 <iprintf>
 800829e:	8823      	ldrh	r3, [r4, #0]
 80082a0:	1b5b      	subs	r3, r3, r5
 80082a2:	8023      	strh	r3, [r4, #0]
 80082a4:	4628      	mov	r0, r5
 80082a6:	e8bd 8ff8 	ldmia.w	sp!, {r3, r4, r5, r6, r7, r8, r9, sl, fp, pc}
 80082aa:	2500      	movs	r5, #0
 80082ac:	e7e1      	b.n	8008272 <ip_reass_free_complete_datagram+0x62>
 80082ae:	687b      	ldr	r3, [r7, #4]
 80082b0:	4638      	mov	r0, r7
 80082b2:	f8d3 b000 	ldr.w	fp, [r3]
 80082b6:	f7fb f9b9 	bl	800362c <pbuf_clen>
 80082ba:	4405      	add	r5, r0
 80082bc:	f5b5 3f80 	cmp.w	r5, #65536	; 0x10000
 80082c0:	db05      	blt.n	80082ce <ip_reass_free_complete_datagram+0xbe>
 80082c2:	4643      	mov	r3, r8
 80082c4:	22cc      	movs	r2, #204	; 0xcc
 80082c6:	4649      	mov	r1, r9
 80082c8:	4650      	mov	r0, sl
 80082ca:	f000 fce3 	bl	8008c94 <iprintf>
 80082ce:	4638      	mov	r0, r7
 80082d0:	f7fb f870 	bl	80033b4 <pbuf_free>
 80082d4:	b2ad      	uxth	r5, r5
 80082d6:	465f      	mov	r7, fp
 80082d8:	e7d2      	b.n	8008280 <ip_reass_free_complete_datagram+0x70>
 80082da:	bf00      	nop
 80082dc:	0800b76c 	.word	0x0800b76c
 80082e0:	0800b7be 	.word	0x0800b7be
 80082e4:	08009b3a 	.word	0x08009b3a
 80082e8:	0800b7ca 	.word	0x0800b7ca
 80082ec:	200083f0 	.word	0x200083f0
 80082f0:	0800b7f9 	.word	0x0800b7f9
 80082f4:	0800b7dc 	.word	0x0800b7dc

080082f8 <ip_reass_remove_oldest_datagram>:
 80082f8:	e92d 41f0 	stmdb	sp!, {r4, r5, r6, r7, r8, lr}
 80082fc:	f8df 806c 	ldr.w	r8, [pc, #108]	; 800836c <ip_reass_remove_oldest_datagram+0x74>
 8008300:	4605      	mov	r5, r0
 8008302:	460f      	mov	r7, r1
 8008304:	2600      	movs	r6, #0
 8008306:	2400      	movs	r4, #0
 8008308:	f8d8 3000 	ldr.w	r3, [r8]
 800830c:	4621      	mov	r1, r4
 800830e:	46a4      	mov	ip, r4
 8008310:	4620      	mov	r0, r4
 8008312:	b953      	cbnz	r3, 800832a <ip_reass_remove_oldest_datagram+0x32>
 8008314:	b110      	cbz	r0, 800831c <ip_reass_remove_oldest_datagram+0x24>
 8008316:	f7ff ff7b 	bl	8008210 <ip_reass_free_complete_datagram>
 800831a:	4406      	add	r6, r0
 800831c:	42be      	cmp	r6, r7
 800831e:	da01      	bge.n	8008324 <ip_reass_remove_oldest_datagram+0x2c>
 8008320:	2c01      	cmp	r4, #1
 8008322:	dcf0      	bgt.n	8008306 <ip_reass_remove_oldest_datagram+0xe>
 8008324:	4630      	mov	r0, r6
 8008326:	e8bd 81f0 	ldmia.w	sp!, {r4, r5, r6, r7, r8, pc}
 800832a:	f8d5 e00c 	ldr.w	lr, [r5, #12]
 800832e:	695a      	ldr	r2, [r3, #20]
 8008330:	4572      	cmp	r2, lr
 8008332:	d109      	bne.n	8008348 <ip_reass_remove_oldest_datagram+0x50>
 8008334:	f8d5 e010 	ldr.w	lr, [r5, #16]
 8008338:	699a      	ldr	r2, [r3, #24]
 800833a:	4572      	cmp	r2, lr
 800833c:	d104      	bne.n	8008348 <ip_reass_remove_oldest_datagram+0x50>
 800833e:	f8b3 e00c 	ldrh.w	lr, [r3, #12]
 8008342:	88aa      	ldrh	r2, [r5, #4]
 8008344:	4596      	cmp	lr, r2
 8008346:	d008      	beq.n	800835a <ip_reass_remove_oldest_datagram+0x62>
 8008348:	3401      	adds	r4, #1
 800834a:	b160      	cbz	r0, 8008366 <ip_reass_remove_oldest_datagram+0x6e>
 800834c:	7fc2      	ldrb	r2, [r0, #31]
 800834e:	f893 e01f 	ldrb.w	lr, [r3, #31]
 8008352:	4596      	cmp	lr, r2
 8008354:	bf9c      	itt	ls
 8008356:	4661      	movls	r1, ip
 8008358:	4618      	movls	r0, r3
 800835a:	681a      	ldr	r2, [r3, #0]
 800835c:	2a00      	cmp	r2, #0
 800835e:	bf18      	it	ne
 8008360:	469c      	movne	ip, r3
 8008362:	4613      	mov	r3, r2
 8008364:	e7d5      	b.n	8008312 <ip_reass_remove_oldest_datagram+0x1a>
 8008366:	4661      	mov	r1, ip
 8008368:	4618      	mov	r0, r3
 800836a:	e7f6      	b.n	800835a <ip_reass_remove_oldest_datagram+0x62>
 800836c:	200083f4 	.word	0x200083f4

08008370 <ip_frag_free_pbuf_custom_ref>:
 8008370:	b510      	push	{r4, lr}
 8008372:	4604      	mov	r4, r0
 8008374:	b930      	cbnz	r0, 8008384 <ip_frag_free_pbuf_custom_ref+0x14>
 8008376:	4b06      	ldr	r3, [pc, #24]	; (8008390 <ip_frag_free_pbuf_custom_ref+0x20>)
 8008378:	4906      	ldr	r1, [pc, #24]	; (8008394 <ip_frag_free_pbuf_custom_ref+0x24>)
 800837a:	4807      	ldr	r0, [pc, #28]	; (8008398 <ip_frag_free_pbuf_custom_ref+0x28>)
 800837c:	f44f 7231 	mov.w	r2, #708	; 0x2c4
 8008380:	f000 fc88 	bl	8008c94 <iprintf>
 8008384:	4621      	mov	r1, r4
 8008386:	2005      	movs	r0, #5
 8008388:	e8bd 4010 	ldmia.w	sp!, {r4, lr}
 800838c:	f7fa bda0 	b.w	8002ed0 <memp_free>
 8008390:	0800b76c 	.word	0x0800b76c
 8008394:	0800a101 	.word	0x0800a101
 8008398:	08009b3a 	.word	0x08009b3a

0800839c <ipfrag_free_pbuf_custom>:
 800839c:	b510      	push	{r4, lr}
 800839e:	4604      	mov	r4, r0
 80083a0:	b930      	cbnz	r0, 80083b0 <ipfrag_free_pbuf_custom+0x14>
 80083a2:	4b08      	ldr	r3, [pc, #32]	; (80083c4 <ipfrag_free_pbuf_custom+0x28>)
 80083a4:	4908      	ldr	r1, [pc, #32]	; (80083c8 <ipfrag_free_pbuf_custom+0x2c>)
 80083a6:	4809      	ldr	r0, [pc, #36]	; (80083cc <ipfrag_free_pbuf_custom+0x30>)
 80083a8:	f240 22ce 	movw	r2, #718	; 0x2ce
 80083ac:	f000 fc72 	bl	8008c94 <iprintf>
 80083b0:	6960      	ldr	r0, [r4, #20]
 80083b2:	b108      	cbz	r0, 80083b8 <ipfrag_free_pbuf_custom+0x1c>
 80083b4:	f7fa fffe 	bl	80033b4 <pbuf_free>
 80083b8:	4620      	mov	r0, r4
 80083ba:	e8bd 4010 	ldmia.w	sp!, {r4, lr}
 80083be:	f7ff bfd7 	b.w	8008370 <ip_frag_free_pbuf_custom_ref>
 80083c2:	bf00      	nop
 80083c4:	0800b76c 	.word	0x0800b76c
 80083c8:	0800b81b 	.word	0x0800b81b
 80083cc:	08009b3a 	.word	0x08009b3a

080083d0 <ip_reass_tmr>:
 80083d0:	b538      	push	{r3, r4, r5, lr}
 80083d2:	4b09      	ldr	r3, [pc, #36]	; (80083f8 <ip_reass_tmr+0x28>)
 80083d4:	6818      	ldr	r0, [r3, #0]
 80083d6:	2400      	movs	r4, #0
 80083d8:	b900      	cbnz	r0, 80083dc <ip_reass_tmr+0xc>
 80083da:	bd38      	pop	{r3, r4, r5, pc}
 80083dc:	7fc3      	ldrb	r3, [r0, #31]
 80083de:	6805      	ldr	r5, [r0, #0]
 80083e0:	b123      	cbz	r3, 80083ec <ip_reass_tmr+0x1c>
 80083e2:	3b01      	subs	r3, #1
 80083e4:	77c3      	strb	r3, [r0, #31]
 80083e6:	4604      	mov	r4, r0
 80083e8:	4628      	mov	r0, r5
 80083ea:	e7f5      	b.n	80083d8 <ip_reass_tmr+0x8>
 80083ec:	4621      	mov	r1, r4
 80083ee:	f7ff ff0f 	bl	8008210 <ip_reass_free_complete_datagram>
 80083f2:	4620      	mov	r0, r4
 80083f4:	e7f7      	b.n	80083e6 <ip_reass_tmr+0x16>
 80083f6:	bf00      	nop
 80083f8:	200083f4 	.word	0x200083f4

080083fc <ip4_reass>:
 80083fc:	e92d 4ff7 	stmdb	sp!, {r0, r1, r2, r4, r5, r6, r7, r8, r9, sl, fp, lr}
 8008400:	6845      	ldr	r5, [r0, #4]
 8008402:	782b      	ldrb	r3, [r5, #0]
 8008404:	f003 030f 	and.w	r3, r3, #15
 8008408:	2b05      	cmp	r3, #5
 800840a:	4680      	mov	r8, r0
 800840c:	f040 80a1 	bne.w	8008552 <ip4_reass+0x156>
 8008410:	88e8      	ldrh	r0, [r5, #6]
 8008412:	f7fa fa90 	bl	8002936 <lwip_htons>
 8008416:	4607      	mov	r7, r0
 8008418:	8868      	ldrh	r0, [r5, #2]
 800841a:	f7fa fa8c 	bl	8002936 <lwip_htons>
 800841e:	782b      	ldrb	r3, [r5, #0]
 8008420:	f003 030f 	and.w	r3, r3, #15
 8008424:	ebb0 0f83 	cmp.w	r0, r3, lsl #2
 8008428:	ea4f 0283 	mov.w	r2, r3, lsl #2
 800842c:	f0c0 8091 	bcc.w	8008552 <ip4_reass+0x156>
 8008430:	1a83      	subs	r3, r0, r2
 8008432:	b29b      	uxth	r3, r3
 8008434:	4cb4      	ldr	r4, [pc, #720]	; (8008708 <ip4_reass+0x30c>)
 8008436:	9301      	str	r3, [sp, #4]
 8008438:	4640      	mov	r0, r8
 800843a:	f7fb f8f7 	bl	800362c <pbuf_clen>
 800843e:	8823      	ldrh	r3, [r4, #0]
 8008440:	4403      	add	r3, r0
 8008442:	2b0a      	cmp	r3, #10
 8008444:	4681      	mov	r9, r0
 8008446:	dc7a      	bgt.n	800853e <ip4_reass+0x142>
 8008448:	4eb0      	ldr	r6, [pc, #704]	; (800870c <ip4_reass+0x310>)
 800844a:	6834      	ldr	r4, [r6, #0]
 800844c:	2c00      	cmp	r4, #0
 800844e:	f040 8085 	bne.w	800855c <ip4_reass+0x160>
 8008452:	2004      	movs	r0, #4
 8008454:	f7fa fd0c 	bl	8002e70 <memp_malloc>
 8008458:	4604      	mov	r4, r0
 800845a:	b958      	cbnz	r0, 8008474 <ip4_reass+0x78>
 800845c:	4649      	mov	r1, r9
 800845e:	4628      	mov	r0, r5
 8008460:	f7ff ff4a 	bl	80082f8 <ip_reass_remove_oldest_datagram>
 8008464:	4581      	cmp	r9, r0
 8008466:	dc74      	bgt.n	8008552 <ip4_reass+0x156>
 8008468:	2004      	movs	r0, #4
 800846a:	f7fa fd01 	bl	8002e70 <memp_malloc>
 800846e:	4604      	mov	r4, r0
 8008470:	2800      	cmp	r0, #0
 8008472:	d06e      	beq.n	8008552 <ip4_reass+0x156>
 8008474:	221c      	movs	r2, #28
 8008476:	2100      	movs	r1, #0
 8008478:	1d20      	adds	r0, r4, #4
 800847a:	f000 fc70 	bl	8008d5e <memset>
 800847e:	230f      	movs	r3, #15
 8008480:	77e3      	strb	r3, [r4, #31]
 8008482:	6833      	ldr	r3, [r6, #0]
 8008484:	6023      	str	r3, [r4, #0]
 8008486:	6034      	str	r4, [r6, #0]
 8008488:	462b      	mov	r3, r5
 800848a:	f104 0208 	add.w	r2, r4, #8
 800848e:	f105 0114 	add.w	r1, r5, #20
 8008492:	f853 0b04 	ldr.w	r0, [r3], #4
 8008496:	f842 0b04 	str.w	r0, [r2], #4
 800849a:	428b      	cmp	r3, r1
 800849c:	d1f9      	bne.n	8008492 <ip4_reass+0x96>
 800849e:	f8b5 b006 	ldrh.w	fp, [r5, #6]
 80084a2:	f3c7 070c 	ubfx	r7, r7, #0, #13
 80084a6:	f01b 0b20 	ands.w	fp, fp, #32
 80084aa:	ea4f 07c7 	mov.w	r7, r7, lsl #3
 80084ae:	d10a      	bne.n	80084c6 <ip4_reass+0xca>
 80084b0:	9b01      	ldr	r3, [sp, #4]
 80084b2:	18fb      	adds	r3, r7, r3
 80084b4:	b29b      	uxth	r3, r3
 80084b6:	429f      	cmp	r7, r3
 80084b8:	f200 8138 	bhi.w	800872c <ip4_reass+0x330>
 80084bc:	f64f 72eb 	movw	r2, #65515	; 0xffeb
 80084c0:	4293      	cmp	r3, r2
 80084c2:	f200 8133 	bhi.w	800872c <ip4_reass+0x330>
 80084c6:	f8d8 5004 	ldr.w	r5, [r8, #4]
 80084ca:	8868      	ldrh	r0, [r5, #2]
 80084cc:	f7fa fa33 	bl	8002936 <lwip_htons>
 80084d0:	782b      	ldrb	r3, [r5, #0]
 80084d2:	f003 030f 	and.w	r3, r3, #15
 80084d6:	ebb0 0f83 	cmp.w	r0, r3, lsl #2
 80084da:	ea4f 0283 	mov.w	r2, r3, lsl #2
 80084de:	f0c0 8125 	bcc.w	800872c <ip4_reass+0x330>
 80084e2:	1a80      	subs	r0, r0, r2
 80084e4:	fa1f fa80 	uxth.w	sl, r0
 80084e8:	88e8      	ldrh	r0, [r5, #6]
 80084ea:	f7fa fa24 	bl	8002936 <lwip_htons>
 80084ee:	f3c0 000c 	ubfx	r0, r0, #0, #13
 80084f2:	00c3      	lsls	r3, r0, #3
 80084f4:	eb0a 0003 	add.w	r0, sl, r3
 80084f8:	f8d8 6004 	ldr.w	r6, [r8, #4]
 80084fc:	fa1f fc80 	uxth.w	ip, r0
 8008500:	2500      	movs	r5, #0
 8008502:	4563      	cmp	r3, ip
 8008504:	7035      	strb	r5, [r6, #0]
 8008506:	7075      	strb	r5, [r6, #1]
 8008508:	70b5      	strb	r5, [r6, #2]
 800850a:	70f5      	strb	r5, [r6, #3]
 800850c:	80b3      	strh	r3, [r6, #4]
 800850e:	80f0      	strh	r0, [r6, #6]
 8008510:	f200 810c 	bhi.w	800872c <ip4_reass+0x330>
 8008514:	f8d4 e004 	ldr.w	lr, [r4, #4]
 8008518:	f04f 0a01 	mov.w	sl, #1
 800851c:	4670      	mov	r0, lr
 800851e:	bb60      	cbnz	r0, 800857a <ip4_reass+0x17e>
 8008520:	2d00      	cmp	r5, #0
 8008522:	f040 80a9 	bne.w	8008678 <ip4_reass+0x27c>
 8008526:	f1be 0f00 	cmp.w	lr, #0
 800852a:	f000 8095 	beq.w	8008658 <ip4_reass+0x25c>
 800852e:	4b78      	ldr	r3, [pc, #480]	; (8008710 <ip4_reass+0x314>)
 8008530:	4978      	ldr	r1, [pc, #480]	; (8008714 <ip4_reass+0x318>)
 8008532:	4879      	ldr	r0, [pc, #484]	; (8008718 <ip4_reass+0x31c>)
 8008534:	f44f 72df 	mov.w	r2, #446	; 0x1be
 8008538:	f000 fbac 	bl	8008c94 <iprintf>
 800853c:	e08c      	b.n	8008658 <ip4_reass+0x25c>
 800853e:	4601      	mov	r1, r0
 8008540:	4628      	mov	r0, r5
 8008542:	f7ff fed9 	bl	80082f8 <ip_reass_remove_oldest_datagram>
 8008546:	b120      	cbz	r0, 8008552 <ip4_reass+0x156>
 8008548:	8823      	ldrh	r3, [r4, #0]
 800854a:	444b      	add	r3, r9
 800854c:	2b0a      	cmp	r3, #10
 800854e:	f77f af7b 	ble.w	8008448 <ip4_reass+0x4c>
 8008552:	4640      	mov	r0, r8
 8008554:	f7fa ff2e 	bl	80033b4 <pbuf_free>
 8008558:	2700      	movs	r7, #0
 800855a:	e077      	b.n	800864c <ip4_reass+0x250>
 800855c:	68eb      	ldr	r3, [r5, #12]
 800855e:	6962      	ldr	r2, [r4, #20]
 8008560:	429a      	cmp	r2, r3
 8008562:	d108      	bne.n	8008576 <ip4_reass+0x17a>
 8008564:	692b      	ldr	r3, [r5, #16]
 8008566:	69a2      	ldr	r2, [r4, #24]
 8008568:	429a      	cmp	r2, r3
 800856a:	d104      	bne.n	8008576 <ip4_reass+0x17a>
 800856c:	89a2      	ldrh	r2, [r4, #12]
 800856e:	88ab      	ldrh	r3, [r5, #4]
 8008570:	429a      	cmp	r2, r3
 8008572:	f000 80ef 	beq.w	8008754 <ip4_reass+0x358>
 8008576:	6824      	ldr	r4, [r4, #0]
 8008578:	e768      	b.n	800844c <ip4_reass+0x50>
 800857a:	6842      	ldr	r2, [r0, #4]
 800857c:	8891      	ldrh	r1, [r2, #4]
 800857e:	428b      	cmp	r3, r1
 8008580:	d26d      	bcs.n	800865e <ip4_reass+0x262>
 8008582:	6030      	str	r0, [r6, #0]
 8008584:	2d00      	cmp	r5, #0
 8008586:	d065      	beq.n	8008654 <ip4_reass+0x258>
 8008588:	88ea      	ldrh	r2, [r5, #6]
 800858a:	4293      	cmp	r3, r2
 800858c:	f0c0 80ce 	bcc.w	800872c <ip4_reass+0x330>
 8008590:	458c      	cmp	ip, r1
 8008592:	f200 80cb 	bhi.w	800872c <ip4_reass+0x330>
 8008596:	f8c5 8000 	str.w	r8, [r5]
 800859a:	4293      	cmp	r3, r2
 800859c:	f040 80f6 	bne.w	800878c <ip4_reass+0x390>
 80085a0:	f1bb 0f00 	cmp.w	fp, #0
 80085a4:	d004      	beq.n	80085b0 <ip4_reass+0x1b4>
 80085a6:	7fa3      	ldrb	r3, [r4, #30]
 80085a8:	f013 0301 	ands.w	r3, r3, #1
 80085ac:	f000 809b 	beq.w	80086e6 <ip4_reass+0x2ea>
 80085b0:	f1ba 0f00 	cmp.w	sl, #0
 80085b4:	d170      	bne.n	8008698 <ip4_reass+0x29c>
 80085b6:	f04f 0a00 	mov.w	sl, #0
 80085ba:	4e53      	ldr	r6, [pc, #332]	; (8008708 <ip4_reass+0x30c>)
 80085bc:	8833      	ldrh	r3, [r6, #0]
 80085be:	444b      	add	r3, r9
 80085c0:	8033      	strh	r3, [r6, #0]
 80085c2:	f1bb 0f00 	cmp.w	fp, #0
 80085c6:	d106      	bne.n	80085d6 <ip4_reass+0x1da>
 80085c8:	9b01      	ldr	r3, [sp, #4]
 80085ca:	441f      	add	r7, r3
 80085cc:	7fa3      	ldrb	r3, [r4, #30]
 80085ce:	83a7      	strh	r7, [r4, #28]
 80085d0:	f043 0301 	orr.w	r3, r3, #1
 80085d4:	77a3      	strb	r3, [r4, #30]
 80085d6:	f1ba 0f01 	cmp.w	sl, #1
 80085da:	d1bd      	bne.n	8008558 <ip4_reass+0x15c>
 80085dc:	6863      	ldr	r3, [r4, #4]
 80085de:	8ba0      	ldrh	r0, [r4, #28]
 80085e0:	685f      	ldr	r7, [r3, #4]
 80085e2:	3014      	adds	r0, #20
 80085e4:	683d      	ldr	r5, [r7, #0]
 80085e6:	b280      	uxth	r0, r0
 80085e8:	f104 0308 	add.w	r3, r4, #8
 80085ec:	463a      	mov	r2, r7
 80085ee:	f104 011c 	add.w	r1, r4, #28
 80085f2:	f853 cb04 	ldr.w	ip, [r3], #4
 80085f6:	f842 cb04 	str.w	ip, [r2], #4
 80085fa:	428b      	cmp	r3, r1
 80085fc:	d1f9      	bne.n	80085f2 <ip4_reass+0x1f6>
 80085fe:	f7fa f99a 	bl	8002936 <lwip_htons>
 8008602:	2300      	movs	r3, #0
 8008604:	8078      	strh	r0, [r7, #2]
 8008606:	71bb      	strb	r3, [r7, #6]
 8008608:	71fb      	strb	r3, [r7, #7]
 800860a:	72bb      	strb	r3, [r7, #10]
 800860c:	72fb      	strb	r3, [r7, #11]
 800860e:	6867      	ldr	r7, [r4, #4]
 8008610:	2d00      	cmp	r5, #0
 8008612:	d16a      	bne.n	80086ea <ip4_reass+0x2ee>
 8008614:	4b3d      	ldr	r3, [pc, #244]	; (800870c <ip4_reass+0x310>)
 8008616:	681b      	ldr	r3, [r3, #0]
 8008618:	42a3      	cmp	r3, r4
 800861a:	d002      	beq.n	8008622 <ip4_reass+0x226>
 800861c:	461d      	mov	r5, r3
 800861e:	2b00      	cmp	r3, #0
 8008620:	d170      	bne.n	8008704 <ip4_reass+0x308>
 8008622:	4620      	mov	r0, r4
 8008624:	4629      	mov	r1, r5
 8008626:	f7ff fdd1 	bl	80081cc <ip_reass_dequeue_datagram>
 800862a:	4638      	mov	r0, r7
 800862c:	f7fa fffe 	bl	800362c <pbuf_clen>
 8008630:	8833      	ldrh	r3, [r6, #0]
 8008632:	4283      	cmp	r3, r0
 8008634:	4604      	mov	r4, r0
 8008636:	d206      	bcs.n	8008646 <ip4_reass+0x24a>
 8008638:	4b35      	ldr	r3, [pc, #212]	; (8008710 <ip4_reass+0x314>)
 800863a:	4938      	ldr	r1, [pc, #224]	; (800871c <ip4_reass+0x320>)
 800863c:	4836      	ldr	r0, [pc, #216]	; (8008718 <ip4_reass+0x31c>)
 800863e:	f240 229b 	movw	r2, #667	; 0x29b
 8008642:	f000 fb27 	bl	8008c94 <iprintf>
 8008646:	8833      	ldrh	r3, [r6, #0]
 8008648:	1b1b      	subs	r3, r3, r4
 800864a:	8033      	strh	r3, [r6, #0]
 800864c:	4638      	mov	r0, r7
 800864e:	b003      	add	sp, #12
 8008650:	e8bd 8ff0 	ldmia.w	sp!, {r4, r5, r6, r7, r8, r9, sl, fp, pc}
 8008654:	458c      	cmp	ip, r1
 8008656:	d869      	bhi.n	800872c <ip4_reass+0x330>
 8008658:	f8c4 8004 	str.w	r8, [r4, #4]
 800865c:	e7a0      	b.n	80085a0 <ip4_reass+0x1a4>
 800865e:	d065      	beq.n	800872c <ip4_reass+0x330>
 8008660:	88d0      	ldrh	r0, [r2, #6]
 8008662:	4298      	cmp	r0, r3
 8008664:	d862      	bhi.n	800872c <ip4_reass+0x330>
 8008666:	b125      	cbz	r5, 8008672 <ip4_reass+0x276>
 8008668:	88e8      	ldrh	r0, [r5, #6]
 800866a:	4288      	cmp	r0, r1
 800866c:	bf18      	it	ne
 800866e:	f04f 0a00 	movne.w	sl, #0
 8008672:	6810      	ldr	r0, [r2, #0]
 8008674:	4615      	mov	r5, r2
 8008676:	e752      	b.n	800851e <ip4_reass+0x122>
 8008678:	88ea      	ldrh	r2, [r5, #6]
 800867a:	429a      	cmp	r2, r3
 800867c:	d906      	bls.n	800868c <ip4_reass+0x290>
 800867e:	4b24      	ldr	r3, [pc, #144]	; (8008710 <ip4_reass+0x314>)
 8008680:	4927      	ldr	r1, [pc, #156]	; (8008720 <ip4_reass+0x324>)
 8008682:	4825      	ldr	r0, [pc, #148]	; (8008718 <ip4_reass+0x31c>)
 8008684:	f44f 72db 	mov.w	r2, #438	; 0x1b6
 8008688:	f000 fb04 	bl	8008c94 <iprintf>
 800868c:	f8c5 8000 	str.w	r8, [r5]
 8008690:	88ea      	ldrh	r2, [r5, #6]
 8008692:	88b3      	ldrh	r3, [r6, #4]
 8008694:	429a      	cmp	r2, r3
 8008696:	e781      	b.n	800859c <ip4_reass+0x1a0>
 8008698:	6863      	ldr	r3, [r4, #4]
 800869a:	2b00      	cmp	r3, #0
 800869c:	d08b      	beq.n	80085b6 <ip4_reass+0x1ba>
 800869e:	6859      	ldr	r1, [r3, #4]
 80086a0:	888b      	ldrh	r3, [r1, #4]
 80086a2:	2b00      	cmp	r3, #0
 80086a4:	d187      	bne.n	80085b6 <ip4_reass+0x1ba>
 80086a6:	6833      	ldr	r3, [r6, #0]
 80086a8:	b9a3      	cbnz	r3, 80086d4 <ip4_reass+0x2d8>
 80086aa:	42b1      	cmp	r1, r6
 80086ac:	d106      	bne.n	80086bc <ip4_reass+0x2c0>
 80086ae:	4b18      	ldr	r3, [pc, #96]	; (8008710 <ip4_reass+0x314>)
 80086b0:	491c      	ldr	r1, [pc, #112]	; (8008724 <ip4_reass+0x328>)
 80086b2:	4819      	ldr	r0, [pc, #100]	; (8008718 <ip4_reass+0x31c>)
 80086b4:	f44f 72f0 	mov.w	r2, #480	; 0x1e0
 80086b8:	f000 faec 	bl	8008c94 <iprintf>
 80086bc:	6833      	ldr	r3, [r6, #0]
 80086be:	2b00      	cmp	r3, #0
 80086c0:	f43f af7b 	beq.w	80085ba <ip4_reass+0x1be>
 80086c4:	4b12      	ldr	r3, [pc, #72]	; (8008710 <ip4_reass+0x314>)
 80086c6:	4918      	ldr	r1, [pc, #96]	; (8008728 <ip4_reass+0x32c>)
 80086c8:	4813      	ldr	r0, [pc, #76]	; (8008718 <ip4_reass+0x31c>)
 80086ca:	f44f 72f1 	mov.w	r2, #482	; 0x1e2
 80086ce:	f000 fae1 	bl	8008c94 <iprintf>
 80086d2:	e772      	b.n	80085ba <ip4_reass+0x1be>
 80086d4:	685a      	ldr	r2, [r3, #4]
 80086d6:	88f0      	ldrh	r0, [r6, #6]
 80086d8:	8893      	ldrh	r3, [r2, #4]
 80086da:	4298      	cmp	r0, r3
 80086dc:	f47f af6b 	bne.w	80085b6 <ip4_reass+0x1ba>
 80086e0:	6813      	ldr	r3, [r2, #0]
 80086e2:	4616      	mov	r6, r2
 80086e4:	e7e0      	b.n	80086a8 <ip4_reass+0x2ac>
 80086e6:	469a      	mov	sl, r3
 80086e8:	e767      	b.n	80085ba <ip4_reass+0x1be>
 80086ea:	f8d5 8004 	ldr.w	r8, [r5, #4]
 80086ee:	2114      	movs	r1, #20
 80086f0:	4628      	mov	r0, r5
 80086f2:	f7fa fe2b 	bl	800334c <pbuf_remove_header>
 80086f6:	4629      	mov	r1, r5
 80086f8:	4638      	mov	r0, r7
 80086fa:	f7fa ffb3 	bl	8003664 <pbuf_cat>
 80086fe:	f8d8 5000 	ldr.w	r5, [r8]
 8008702:	e785      	b.n	8008610 <ip4_reass+0x214>
 8008704:	682b      	ldr	r3, [r5, #0]
 8008706:	e787      	b.n	8008618 <ip4_reass+0x21c>
 8008708:	200083f0 	.word	0x200083f0
 800870c:	200083f4 	.word	0x200083f4
 8008710:	0800b76c 	.word	0x0800b76c
 8008714:	0800b845 	.word	0x0800b845
 8008718:	08009b3a 	.word	0x08009b3a
 800871c:	0800b8ab 	.word	0x0800b8ab
 8008720:	0800b827 	.word	0x0800b827
 8008724:	0800b87c 	.word	0x0800b87c
 8008728:	0800b889 	.word	0x0800b889
 800872c:	6863      	ldr	r3, [r4, #4]
 800872e:	2b00      	cmp	r3, #0
 8008730:	f47f af0f 	bne.w	8008552 <ip4_reass+0x156>
 8008734:	4b19      	ldr	r3, [pc, #100]	; (800879c <ip4_reass+0x3a0>)
 8008736:	681b      	ldr	r3, [r3, #0]
 8008738:	42a3      	cmp	r3, r4
 800873a:	d006      	beq.n	800874a <ip4_reass+0x34e>
 800873c:	4b18      	ldr	r3, [pc, #96]	; (80087a0 <ip4_reass+0x3a4>)
 800873e:	4919      	ldr	r1, [pc, #100]	; (80087a4 <ip4_reass+0x3a8>)
 8008740:	4819      	ldr	r0, [pc, #100]	; (80087a8 <ip4_reass+0x3ac>)
 8008742:	f240 22ab 	movw	r2, #683	; 0x2ab
 8008746:	f000 faa5 	bl	8008c94 <iprintf>
 800874a:	2100      	movs	r1, #0
 800874c:	4620      	mov	r0, r4
 800874e:	f7ff fd3d 	bl	80081cc <ip_reass_dequeue_datagram>
 8008752:	e6fe      	b.n	8008552 <ip4_reass+0x156>
 8008754:	88e8      	ldrh	r0, [r5, #6]
 8008756:	f7fa f8ee 	bl	8002936 <lwip_htons>
 800875a:	f3c0 000c 	ubfx	r0, r0, #0, #13
 800875e:	2800      	cmp	r0, #0
 8008760:	f47f ae9d 	bne.w	800849e <ip4_reass+0xa2>
 8008764:	89e0      	ldrh	r0, [r4, #14]
 8008766:	f7fa f8e6 	bl	8002936 <lwip_htons>
 800876a:	f3c0 000c 	ubfx	r0, r0, #0, #13
 800876e:	2800      	cmp	r0, #0
 8008770:	f43f ae95 	beq.w	800849e <ip4_reass+0xa2>
 8008774:	462b      	mov	r3, r5
 8008776:	f104 0208 	add.w	r2, r4, #8
 800877a:	f105 0114 	add.w	r1, r5, #20
 800877e:	f853 0b04 	ldr.w	r0, [r3], #4
 8008782:	f842 0b04 	str.w	r0, [r2], #4
 8008786:	428b      	cmp	r3, r1
 8008788:	d1f9      	bne.n	800877e <ip4_reass+0x382>
 800878a:	e688      	b.n	800849e <ip4_reass+0xa2>
 800878c:	f1bb 0f00 	cmp.w	fp, #0
 8008790:	f43f af11 	beq.w	80085b6 <ip4_reass+0x1ba>
 8008794:	f04f 0a00 	mov.w	sl, #0
 8008798:	e705      	b.n	80085a6 <ip4_reass+0x1aa>
 800879a:	bf00      	nop
 800879c:	200083f4 	.word	0x200083f4
 80087a0:	0800b76c 	.word	0x0800b76c
 80087a4:	0800b8c6 	.word	0x0800b8c6
 80087a8:	08009b3a 	.word	0x08009b3a

080087ac <ip4_frag>:
 80087ac:	e92d 4ff0 	stmdb	sp!, {r4, r5, r6, r7, r8, r9, sl, fp, lr}
 80087b0:	8c8b      	ldrh	r3, [r1, #36]	; 0x24
 80087b2:	ed2d 8b02 	vpush	{d8}
 80087b6:	ee08 2a10 	vmov	s16, r2
 80087ba:	f1b3 0214 	subs.w	r2, r3, #20
 80087be:	b08b      	sub	sp, #44	; 0x2c
 80087c0:	bf48      	it	mi
 80087c2:	f1a3 020d 	submi.w	r2, r3, #13
 80087c6:	f3c2 03cf 	ubfx	r3, r2, #3, #16
 80087ca:	9305      	str	r3, [sp, #20]
 80087cc:	6843      	ldr	r3, [r0, #4]
 80087ce:	9302      	str	r3, [sp, #8]
 80087d0:	781b      	ldrb	r3, [r3, #0]
 80087d2:	f003 030f 	and.w	r3, r3, #15
 80087d6:	2b05      	cmp	r3, #5
 80087d8:	4605      	mov	r5, r0
 80087da:	468a      	mov	sl, r1
 80087dc:	ea4f 0783 	mov.w	r7, r3, lsl #2
 80087e0:	d109      	bne.n	80087f6 <ip4_frag+0x4a>
 80087e2:	8943      	ldrh	r3, [r0, #10]
 80087e4:	2b13      	cmp	r3, #19
 80087e6:	d809      	bhi.n	80087fc <ip4_frag+0x50>
 80087e8:	4b60      	ldr	r3, [pc, #384]	; (800896c <ip4_frag+0x1c0>)
 80087ea:	4961      	ldr	r1, [pc, #388]	; (8008970 <ip4_frag+0x1c4>)
 80087ec:	4861      	ldr	r0, [pc, #388]	; (8008974 <ip4_frag+0x1c8>)
 80087ee:	f44f 723f 	mov.w	r2, #764	; 0x2fc
 80087f2:	f000 fa4f 	bl	8008c94 <iprintf>
 80087f6:	f06f 0005 	mvn.w	r0, #5
 80087fa:	e013      	b.n	8008824 <ip4_frag+0x78>
 80087fc:	9b02      	ldr	r3, [sp, #8]
 80087fe:	88d8      	ldrh	r0, [r3, #6]
 8008800:	f7fa f899 	bl	8002936 <lwip_htons>
 8008804:	f3c0 030c 	ubfx	r3, r0, #0, #13
 8008808:	9303      	str	r3, [sp, #12]
 800880a:	f400 5300 	and.w	r3, r0, #8192	; 0x2000
 800880e:	9307      	str	r3, [sp, #28]
 8008810:	9b05      	ldr	r3, [sp, #20]
 8008812:	892c      	ldrh	r4, [r5, #8]
 8008814:	00db      	lsls	r3, r3, #3
 8008816:	3c14      	subs	r4, #20
 8008818:	b29b      	uxth	r3, r3
 800881a:	b2a4      	uxth	r4, r4
 800881c:	9306      	str	r3, [sp, #24]
 800881e:	2600      	movs	r6, #0
 8008820:	b92c      	cbnz	r4, 800882e <ip4_frag+0x82>
 8008822:	4620      	mov	r0, r4
 8008824:	b00b      	add	sp, #44	; 0x2c
 8008826:	ecbd 8b02 	vpop	{d8}
 800882a:	e8bd 8ff0 	ldmia.w	sp!, {r4, r5, r6, r7, r8, r9, sl, fp, pc}
 800882e:	9b06      	ldr	r3, [sp, #24]
 8008830:	42a3      	cmp	r3, r4
 8008832:	bf28      	it	cs
 8008834:	4623      	movcs	r3, r4
 8008836:	f44f 7220 	mov.w	r2, #640	; 0x280
 800883a:	2114      	movs	r1, #20
 800883c:	200e      	movs	r0, #14
 800883e:	9304      	str	r3, [sp, #16]
 8008840:	f7fa fe1c 	bl	800347c <pbuf_alloc>
 8008844:	4680      	mov	r8, r0
 8008846:	2800      	cmp	r0, #0
 8008848:	d036      	beq.n	80088b8 <ip4_frag+0x10c>
 800884a:	8943      	ldrh	r3, [r0, #10]
 800884c:	2b13      	cmp	r3, #19
 800884e:	d806      	bhi.n	800885e <ip4_frag+0xb2>
 8008850:	4b46      	ldr	r3, [pc, #280]	; (800896c <ip4_frag+0x1c0>)
 8008852:	4949      	ldr	r1, [pc, #292]	; (8008978 <ip4_frag+0x1cc>)
 8008854:	4847      	ldr	r0, [pc, #284]	; (8008974 <ip4_frag+0x1c8>)
 8008856:	f44f 7249 	mov.w	r2, #804	; 0x324
 800885a:	f000 fa1b 	bl	8008c94 <iprintf>
 800885e:	9b02      	ldr	r3, [sp, #8]
 8008860:	f8d8 2004 	ldr.w	r2, [r8, #4]
 8008864:	4619      	mov	r1, r3
 8008866:	3114      	adds	r1, #20
 8008868:	f853 0b04 	ldr.w	r0, [r3], #4
 800886c:	f842 0b04 	str.w	r0, [r2], #4
 8008870:	428b      	cmp	r3, r1
 8008872:	d1f9      	bne.n	8008868 <ip4_frag+0xbc>
 8008874:	f8d8 b004 	ldr.w	fp, [r8, #4]
 8008878:	f8dd 9010 	ldr.w	r9, [sp, #16]
 800887c:	f1b9 0f00 	cmp.w	r9, #0
 8008880:	d041      	beq.n	8008906 <ip4_frag+0x15a>
 8008882:	896b      	ldrh	r3, [r5, #10]
 8008884:	1bde      	subs	r6, r3, r7
 8008886:	42bb      	cmp	r3, r7
 8008888:	b2b6      	uxth	r6, r6
 800888a:	d206      	bcs.n	800889a <ip4_frag+0xee>
 800888c:	4b37      	ldr	r3, [pc, #220]	; (800896c <ip4_frag+0x1c0>)
 800888e:	493b      	ldr	r1, [pc, #236]	; (800897c <ip4_frag+0x1d0>)
 8008890:	4838      	ldr	r0, [pc, #224]	; (8008974 <ip4_frag+0x1c8>)
 8008892:	f240 322d 	movw	r2, #813	; 0x32d
 8008896:	f000 f9fd 	bl	8008c94 <iprintf>
 800889a:	454e      	cmp	r6, r9
 800889c:	bf28      	it	cs
 800889e:	464e      	movcs	r6, r9
 80088a0:	b916      	cbnz	r6, 80088a8 <ip4_frag+0xfc>
 80088a2:	682d      	ldr	r5, [r5, #0]
 80088a4:	2700      	movs	r7, #0
 80088a6:	e7e9      	b.n	800887c <ip4_frag+0xd0>
 80088a8:	2005      	movs	r0, #5
 80088aa:	f7fa fae1 	bl	8002e70 <memp_malloc>
 80088ae:	4603      	mov	r3, r0
 80088b0:	b928      	cbnz	r0, 80088be <ip4_frag+0x112>
 80088b2:	4640      	mov	r0, r8
 80088b4:	f7fa fd7e 	bl	80033b4 <pbuf_free>
 80088b8:	f04f 30ff 	mov.w	r0, #4294967295
 80088bc:	e7b2      	b.n	8008824 <ip4_frag+0x78>
 80088be:	9601      	str	r6, [sp, #4]
 80088c0:	686a      	ldr	r2, [r5, #4]
 80088c2:	9008      	str	r0, [sp, #32]
 80088c4:	443a      	add	r2, r7
 80088c6:	9200      	str	r2, [sp, #0]
 80088c8:	4631      	mov	r1, r6
 80088ca:	2241      	movs	r2, #65	; 0x41
 80088cc:	2000      	movs	r0, #0
 80088ce:	f7fa fd1f 	bl	8003310 <pbuf_alloced_custom>
 80088d2:	9b08      	ldr	r3, [sp, #32]
 80088d4:	b918      	cbnz	r0, 80088de <ip4_frag+0x132>
 80088d6:	4618      	mov	r0, r3
 80088d8:	f7ff fd4a 	bl	8008370 <ip_frag_free_pbuf_custom_ref>
 80088dc:	e7e9      	b.n	80088b2 <ip4_frag+0x106>
 80088de:	e9cd 0308 	strd	r0, r3, [sp, #32]
 80088e2:	4628      	mov	r0, r5
 80088e4:	f7fa feaa 	bl	800363c <pbuf_ref>
 80088e8:	9b09      	ldr	r3, [sp, #36]	; 0x24
 80088ea:	4a25      	ldr	r2, [pc, #148]	; (8008980 <ip4_frag+0x1d4>)
 80088ec:	9908      	ldr	r1, [sp, #32]
 80088ee:	615d      	str	r5, [r3, #20]
 80088f0:	eba9 0906 	sub.w	r9, r9, r6
 80088f4:	611a      	str	r2, [r3, #16]
 80088f6:	4640      	mov	r0, r8
 80088f8:	fa1f f989 	uxth.w	r9, r9
 80088fc:	f7fa feb2 	bl	8003664 <pbuf_cat>
 8008900:	f1b9 0f00 	cmp.w	r9, #0
 8008904:	d1cd      	bne.n	80088a2 <ip4_frag+0xf6>
 8008906:	9b03      	ldr	r3, [sp, #12]
 8008908:	f3c3 000c 	ubfx	r0, r3, #0, #13
 800890c:	f8ba 3024 	ldrh.w	r3, [sl, #36]	; 0x24
 8008910:	3b13      	subs	r3, #19
 8008912:	4437      	add	r7, r6
 8008914:	42a3      	cmp	r3, r4
 8008916:	b2bf      	uxth	r7, r7
 8008918:	dd01      	ble.n	800891e <ip4_frag+0x172>
 800891a:	9b07      	ldr	r3, [sp, #28]
 800891c:	b10b      	cbz	r3, 8008922 <ip4_frag+0x176>
 800891e:	f440 5000 	orr.w	r0, r0, #8192	; 0x2000
 8008922:	f7fa f808 	bl	8002936 <lwip_htons>
 8008926:	9b04      	ldr	r3, [sp, #16]
 8008928:	f8ab 0006 	strh.w	r0, [fp, #6]
 800892c:	f103 0014 	add.w	r0, r3, #20
 8008930:	b280      	uxth	r0, r0
 8008932:	f7fa f800 	bl	8002936 <lwip_htons>
 8008936:	2300      	movs	r3, #0
 8008938:	ee18 2a10 	vmov	r2, s16
 800893c:	f8ab 0002 	strh.w	r0, [fp, #2]
 8008940:	f88b 300a 	strb.w	r3, [fp, #10]
 8008944:	f88b 300b 	strb.w	r3, [fp, #11]
 8008948:	4641      	mov	r1, r8
 800894a:	f8da 3014 	ldr.w	r3, [sl, #20]
 800894e:	4650      	mov	r0, sl
 8008950:	4798      	blx	r3
 8008952:	4640      	mov	r0, r8
 8008954:	f7fa fd2e 	bl	80033b4 <pbuf_free>
 8008958:	9b04      	ldr	r3, [sp, #16]
 800895a:	9a05      	ldr	r2, [sp, #20]
 800895c:	1ae3      	subs	r3, r4, r3
 800895e:	b29c      	uxth	r4, r3
 8008960:	9b03      	ldr	r3, [sp, #12]
 8008962:	4413      	add	r3, r2
 8008964:	b29b      	uxth	r3, r3
 8008966:	9303      	str	r3, [sp, #12]
 8008968:	e75a      	b.n	8008820 <ip4_frag+0x74>
 800896a:	bf00      	nop
 800896c:	0800b76c 	.word	0x0800b76c
 8008970:	0800b8e6 	.word	0x0800b8e6
 8008974:	08009b3a 	.word	0x08009b3a
 8008978:	0800b901 	.word	0x0800b901
 800897c:	0800b921 	.word	0x0800b921
 8008980:	0800839d 	.word	0x0800839d

08008984 <ethernet_input>:
 8008984:	8943      	ldrh	r3, [r0, #10]
 8008986:	2b0e      	cmp	r3, #14
 8008988:	b570      	push	{r4, r5, r6, lr}
 800898a:	4604      	mov	r4, r0
 800898c:	460d      	mov	r5, r1
 800898e:	d91a      	bls.n	80089c6 <ethernet_input+0x42>
 8008990:	7bc3      	ldrb	r3, [r0, #15]
 8008992:	b91b      	cbnz	r3, 800899c <ethernet_input+0x18>
 8008994:	f891 3030 	ldrb.w	r3, [r1, #48]	; 0x30
 8008998:	3301      	adds	r3, #1
 800899a:	73c3      	strb	r3, [r0, #15]
 800899c:	6860      	ldr	r0, [r4, #4]
 800899e:	7803      	ldrb	r3, [r0, #0]
 80089a0:	8986      	ldrh	r6, [r0, #12]
 80089a2:	07d9      	lsls	r1, r3, #31
 80089a4:	d50a      	bpl.n	80089bc <ethernet_input+0x38>
 80089a6:	2b01      	cmp	r3, #1
 80089a8:	d111      	bne.n	80089ce <ethernet_input+0x4a>
 80089aa:	7843      	ldrb	r3, [r0, #1]
 80089ac:	b933      	cbnz	r3, 80089bc <ethernet_input+0x38>
 80089ae:	7883      	ldrb	r3, [r0, #2]
 80089b0:	2b5e      	cmp	r3, #94	; 0x5e
 80089b2:	d103      	bne.n	80089bc <ethernet_input+0x38>
 80089b4:	7b63      	ldrb	r3, [r4, #13]
 80089b6:	f043 0310 	orr.w	r3, r3, #16
 80089ba:	7363      	strb	r3, [r4, #13]
 80089bc:	2e08      	cmp	r6, #8
 80089be:	d010      	beq.n	80089e2 <ethernet_input+0x5e>
 80089c0:	f5b6 6fc1 	cmp.w	r6, #1544	; 0x608
 80089c4:	d01d      	beq.n	8008a02 <ethernet_input+0x7e>
 80089c6:	4620      	mov	r0, r4
 80089c8:	f7fa fcf4 	bl	80033b4 <pbuf_free>
 80089cc:	e017      	b.n	80089fe <ethernet_input+0x7a>
 80089ce:	4914      	ldr	r1, [pc, #80]	; (8008a20 <ethernet_input+0x9c>)
 80089d0:	2206      	movs	r2, #6
 80089d2:	f000 f9b4 	bl	8008d3e <memcmp>
 80089d6:	2800      	cmp	r0, #0
 80089d8:	d1f0      	bne.n	80089bc <ethernet_input+0x38>
 80089da:	7b63      	ldrb	r3, [r4, #13]
 80089dc:	f043 0308 	orr.w	r3, r3, #8
 80089e0:	e7eb      	b.n	80089ba <ethernet_input+0x36>
 80089e2:	f895 302d 	ldrb.w	r3, [r5, #45]	; 0x2d
 80089e6:	071a      	lsls	r2, r3, #28
 80089e8:	d5ed      	bpl.n	80089c6 <ethernet_input+0x42>
 80089ea:	210e      	movs	r1, #14
 80089ec:	4620      	mov	r0, r4
 80089ee:	f7fa fcad 	bl	800334c <pbuf_remove_header>
 80089f2:	2800      	cmp	r0, #0
 80089f4:	d1e7      	bne.n	80089c6 <ethernet_input+0x42>
 80089f6:	4629      	mov	r1, r5
 80089f8:	4620      	mov	r0, r4
 80089fa:	f7ff fa8b 	bl	8007f14 <ip4_input>
 80089fe:	2000      	movs	r0, #0
 8008a00:	bd70      	pop	{r4, r5, r6, pc}
 8008a02:	f895 302d 	ldrb.w	r3, [r5, #45]	; 0x2d
 8008a06:	071b      	lsls	r3, r3, #28
 8008a08:	d5dd      	bpl.n	80089c6 <ethernet_input+0x42>
 8008a0a:	210e      	movs	r1, #14
 8008a0c:	4620      	mov	r0, r4
 8008a0e:	f7fa fc9d 	bl	800334c <pbuf_remove_header>
 8008a12:	2800      	cmp	r0, #0
 8008a14:	d1d7      	bne.n	80089c6 <ethernet_input+0x42>
 8008a16:	4629      	mov	r1, r5
 8008a18:	4620      	mov	r0, r4
 8008a1a:	f7fe fedb 	bl	80077d4 <etharp_input>
 8008a1e:	e7ee      	b.n	80089fe <ethernet_input+0x7a>
 8008a20:	0800b996 	.word	0x0800b996

08008a24 <ethernet_output>:
 8008a24:	e92d 41f0 	stmdb	sp!, {r4, r5, r6, r7, r8, lr}
 8008a28:	4604      	mov	r4, r0
 8008a2a:	f8bd 0018 	ldrh.w	r0, [sp, #24]
 8008a2e:	460d      	mov	r5, r1
 8008a30:	4616      	mov	r6, r2
 8008a32:	461f      	mov	r7, r3
 8008a34:	f7f9 ff7f 	bl	8002936 <lwip_htons>
 8008a38:	210e      	movs	r1, #14
 8008a3a:	4680      	mov	r8, r0
 8008a3c:	4628      	mov	r0, r5
 8008a3e:	f7fa fc81 	bl	8003344 <pbuf_add_header>
 8008a42:	b9e0      	cbnz	r0, 8008a7e <ethernet_output+0x5a>
 8008a44:	6869      	ldr	r1, [r5, #4]
 8008a46:	f8a1 800c 	strh.w	r8, [r1, #12]
 8008a4a:	683b      	ldr	r3, [r7, #0]
 8008a4c:	600b      	str	r3, [r1, #0]
 8008a4e:	88bb      	ldrh	r3, [r7, #4]
 8008a50:	808b      	strh	r3, [r1, #4]
 8008a52:	6833      	ldr	r3, [r6, #0]
 8008a54:	f8c1 3006 	str.w	r3, [r1, #6]
 8008a58:	88b3      	ldrh	r3, [r6, #4]
 8008a5a:	814b      	strh	r3, [r1, #10]
 8008a5c:	f894 302c 	ldrb.w	r3, [r4, #44]	; 0x2c
 8008a60:	2b06      	cmp	r3, #6
 8008a62:	d006      	beq.n	8008a72 <ethernet_output+0x4e>
 8008a64:	4b08      	ldr	r3, [pc, #32]	; (8008a88 <ethernet_output+0x64>)
 8008a66:	4909      	ldr	r1, [pc, #36]	; (8008a8c <ethernet_output+0x68>)
 8008a68:	4809      	ldr	r0, [pc, #36]	; (8008a90 <ethernet_output+0x6c>)
 8008a6a:	f44f 7299 	mov.w	r2, #306	; 0x132
 8008a6e:	f000 f911 	bl	8008c94 <iprintf>
 8008a72:	69a3      	ldr	r3, [r4, #24]
 8008a74:	4629      	mov	r1, r5
 8008a76:	4620      	mov	r0, r4
 8008a78:	e8bd 41f0 	ldmia.w	sp!, {r4, r5, r6, r7, r8, lr}
 8008a7c:	4718      	bx	r3
 8008a7e:	f06f 0001 	mvn.w	r0, #1
 8008a82:	e8bd 81f0 	ldmia.w	sp!, {r4, r5, r6, r7, r8, pc}
 8008a86:	bf00      	nop
 8008a88:	0800b930 	.word	0x0800b930
 8008a8c:	0800b965 	.word	0x0800b965
 8008a90:	08009b3a 	.word	0x08009b3a

08008a94 <rand>:
 8008a94:	4b16      	ldr	r3, [pc, #88]	; (8008af0 <rand+0x5c>)
 8008a96:	b510      	push	{r4, lr}
 8008a98:	681c      	ldr	r4, [r3, #0]
 8008a9a:	6b23      	ldr	r3, [r4, #48]	; 0x30
 8008a9c:	b9b3      	cbnz	r3, 8008acc <rand+0x38>
 8008a9e:	2018      	movs	r0, #24
 8008aa0:	f000 fa4c 	bl	8008f3c <malloc>
 8008aa4:	4602      	mov	r2, r0
 8008aa6:	6320      	str	r0, [r4, #48]	; 0x30
 8008aa8:	b920      	cbnz	r0, 8008ab4 <rand+0x20>
 8008aaa:	4b12      	ldr	r3, [pc, #72]	; (8008af4 <rand+0x60>)
 8008aac:	4812      	ldr	r0, [pc, #72]	; (8008af8 <rand+0x64>)
 8008aae:	2152      	movs	r1, #82	; 0x52
 8008ab0:	f000 f9da 	bl	8008e68 <__assert_func>
 8008ab4:	4911      	ldr	r1, [pc, #68]	; (8008afc <rand+0x68>)
 8008ab6:	4b12      	ldr	r3, [pc, #72]	; (8008b00 <rand+0x6c>)
 8008ab8:	e9c0 1300 	strd	r1, r3, [r0]
 8008abc:	4b11      	ldr	r3, [pc, #68]	; (8008b04 <rand+0x70>)
 8008abe:	6083      	str	r3, [r0, #8]
 8008ac0:	230b      	movs	r3, #11
 8008ac2:	8183      	strh	r3, [r0, #12]
 8008ac4:	2100      	movs	r1, #0
 8008ac6:	2001      	movs	r0, #1
 8008ac8:	e9c2 0104 	strd	r0, r1, [r2, #16]
 8008acc:	6b21      	ldr	r1, [r4, #48]	; 0x30
 8008ace:	480e      	ldr	r0, [pc, #56]	; (8008b08 <rand+0x74>)
 8008ad0:	690b      	ldr	r3, [r1, #16]
 8008ad2:	694c      	ldr	r4, [r1, #20]
 8008ad4:	4a0d      	ldr	r2, [pc, #52]	; (8008b0c <rand+0x78>)
 8008ad6:	4358      	muls	r0, r3
 8008ad8:	fb02 0004 	mla	r0, r2, r4, r0
 8008adc:	fba3 3202 	umull	r3, r2, r3, r2
 8008ae0:	3301      	adds	r3, #1
 8008ae2:	eb40 0002 	adc.w	r0, r0, r2
 8008ae6:	e9c1 3004 	strd	r3, r0, [r1, #16]
 8008aea:	f020 4000 	bic.w	r0, r0, #2147483648	; 0x80000000
 8008aee:	bd10      	pop	{r4, pc}
 8008af0:	20000080 	.word	0x20000080
 8008af4:	0800b9a2 	.word	0x0800b9a2
 8008af8:	0800b9b9 	.word	0x0800b9b9
 8008afc:	abcd330e 	.word	0xabcd330e
 8008b00:	e66d1234 	.word	0xe66d1234
 8008b04:	0005deec 	.word	0x0005deec
 8008b08:	5851f42d 	.word	0x5851f42d
 8008b0c:	4c957f2d 	.word	0x4c957f2d

08008b10 <std>:
 8008b10:	2300      	movs	r3, #0
 8008b12:	b510      	push	{r4, lr}
 8008b14:	4604      	mov	r4, r0
 8008b16:	e9c0 3300 	strd	r3, r3, [r0]
 8008b1a:	e9c0 3304 	strd	r3, r3, [r0, #16]
 8008b1e:	6083      	str	r3, [r0, #8]
 8008b20:	8181      	strh	r1, [r0, #12]
 8008b22:	6643      	str	r3, [r0, #100]	; 0x64
 8008b24:	81c2      	strh	r2, [r0, #14]
 8008b26:	6183      	str	r3, [r0, #24]
 8008b28:	4619      	mov	r1, r3
 8008b2a:	2208      	movs	r2, #8
 8008b2c:	305c      	adds	r0, #92	; 0x5c
 8008b2e:	f000 f916 	bl	8008d5e <memset>
 8008b32:	4b0d      	ldr	r3, [pc, #52]	; (8008b68 <std+0x58>)
 8008b34:	6263      	str	r3, [r4, #36]	; 0x24
 8008b36:	4b0d      	ldr	r3, [pc, #52]	; (8008b6c <std+0x5c>)
 8008b38:	62a3      	str	r3, [r4, #40]	; 0x28
 8008b3a:	4b0d      	ldr	r3, [pc, #52]	; (8008b70 <std+0x60>)
 8008b3c:	62e3      	str	r3, [r4, #44]	; 0x2c
 8008b3e:	4b0d      	ldr	r3, [pc, #52]	; (8008b74 <std+0x64>)
 8008b40:	6323      	str	r3, [r4, #48]	; 0x30
 8008b42:	4b0d      	ldr	r3, [pc, #52]	; (8008b78 <std+0x68>)
 8008b44:	6224      	str	r4, [r4, #32]
 8008b46:	429c      	cmp	r4, r3
 8008b48:	d006      	beq.n	8008b58 <std+0x48>
 8008b4a:	f103 0268 	add.w	r2, r3, #104	; 0x68
 8008b4e:	4294      	cmp	r4, r2
 8008b50:	d002      	beq.n	8008b58 <std+0x48>
 8008b52:	33d0      	adds	r3, #208	; 0xd0
 8008b54:	429c      	cmp	r4, r3
 8008b56:	d105      	bne.n	8008b64 <std+0x54>
 8008b58:	f104 0058 	add.w	r0, r4, #88	; 0x58
 8008b5c:	e8bd 4010 	ldmia.w	sp!, {r4, lr}
 8008b60:	f000 b970 	b.w	8008e44 <__retarget_lock_init_recursive>
 8008b64:	bd10      	pop	{r4, pc}
 8008b66:	bf00      	nop
 8008b68:	08008cb9 	.word	0x08008cb9
 8008b6c:	08008cdb 	.word	0x08008cdb
 8008b70:	08008d13 	.word	0x08008d13
 8008b74:	08008d37 	.word	0x08008d37
 8008b78:	200083f8 	.word	0x200083f8

08008b7c <stdio_exit_handler>:
 8008b7c:	4a02      	ldr	r2, [pc, #8]	; (8008b88 <stdio_exit_handler+0xc>)
 8008b7e:	4903      	ldr	r1, [pc, #12]	; (8008b8c <stdio_exit_handler+0x10>)
 8008b80:	4803      	ldr	r0, [pc, #12]	; (8008b90 <stdio_exit_handler+0x14>)
 8008b82:	f000 b869 	b.w	8008c58 <_fwalk_sglue>
 8008b86:	bf00      	nop
 8008b88:	20000028 	.word	0x20000028
 8008b8c:	08009759 	.word	0x08009759
 8008b90:	20000034 	.word	0x20000034

08008b94 <cleanup_stdio>:
 8008b94:	6841      	ldr	r1, [r0, #4]
 8008b96:	4b0c      	ldr	r3, [pc, #48]	; (8008bc8 <cleanup_stdio+0x34>)
 8008b98:	4299      	cmp	r1, r3
 8008b9a:	b510      	push	{r4, lr}
 8008b9c:	4604      	mov	r4, r0
 8008b9e:	d001      	beq.n	8008ba4 <cleanup_stdio+0x10>
 8008ba0:	f000 fdda 	bl	8009758 <_fflush_r>
 8008ba4:	68a1      	ldr	r1, [r4, #8]
 8008ba6:	4b09      	ldr	r3, [pc, #36]	; (8008bcc <cleanup_stdio+0x38>)
 8008ba8:	4299      	cmp	r1, r3
 8008baa:	d002      	beq.n	8008bb2 <cleanup_stdio+0x1e>
 8008bac:	4620      	mov	r0, r4
 8008bae:	f000 fdd3 	bl	8009758 <_fflush_r>
 8008bb2:	68e1      	ldr	r1, [r4, #12]
 8008bb4:	4b06      	ldr	r3, [pc, #24]	; (8008bd0 <cleanup_stdio+0x3c>)
 8008bb6:	4299      	cmp	r1, r3
 8008bb8:	d004      	beq.n	8008bc4 <cleanup_stdio+0x30>
 8008bba:	4620      	mov	r0, r4
 8008bbc:	e8bd 4010 	ldmia.w	sp!, {r4, lr}
 8008bc0:	f000 bdca 	b.w	8009758 <_fflush_r>
 8008bc4:	bd10      	pop	{r4, pc}
 8008bc6:	bf00      	nop
 8008bc8:	200083f8 	.word	0x200083f8
 8008bcc:	20008460 	.word	0x20008460
 8008bd0:	200084c8 	.word	0x200084c8

08008bd4 <global_stdio_init.part.0>:
 8008bd4:	b510      	push	{r4, lr}
 8008bd6:	4b0b      	ldr	r3, [pc, #44]	; (8008c04 <global_stdio_init.part.0+0x30>)
 8008bd8:	4c0b      	ldr	r4, [pc, #44]	; (8008c08 <global_stdio_init.part.0+0x34>)
 8008bda:	4a0c      	ldr	r2, [pc, #48]	; (8008c0c <global_stdio_init.part.0+0x38>)
 8008bdc:	601a      	str	r2, [r3, #0]
 8008bde:	4620      	mov	r0, r4
 8008be0:	2200      	movs	r2, #0
 8008be2:	2104      	movs	r1, #4
 8008be4:	f7ff ff94 	bl	8008b10 <std>
 8008be8:	f104 0068 	add.w	r0, r4, #104	; 0x68
 8008bec:	2201      	movs	r2, #1
 8008bee:	2109      	movs	r1, #9
 8008bf0:	f7ff ff8e 	bl	8008b10 <std>
 8008bf4:	f104 00d0 	add.w	r0, r4, #208	; 0xd0
 8008bf8:	2202      	movs	r2, #2
 8008bfa:	e8bd 4010 	ldmia.w	sp!, {r4, lr}
 8008bfe:	2112      	movs	r1, #18
 8008c00:	f7ff bf86 	b.w	8008b10 <std>
 8008c04:	20008530 	.word	0x20008530
 8008c08:	200083f8 	.word	0x200083f8
 8008c0c:	08008b7d 	.word	0x08008b7d

08008c10 <__sfp_lock_acquire>:
 8008c10:	4801      	ldr	r0, [pc, #4]	; (8008c18 <__sfp_lock_acquire+0x8>)
 8008c12:	f000 b918 	b.w	8008e46 <__retarget_lock_acquire_recursive>
 8008c16:	bf00      	nop
 8008c18:	20008539 	.word	0x20008539

08008c1c <__sfp_lock_release>:
 8008c1c:	4801      	ldr	r0, [pc, #4]	; (8008c24 <__sfp_lock_release+0x8>)
 8008c1e:	f000 b913 	b.w	8008e48 <__retarget_lock_release_recursive>
 8008c22:	bf00      	nop
 8008c24:	20008539 	.word	0x20008539

08008c28 <__sinit>:
 8008c28:	b510      	push	{r4, lr}
 8008c2a:	4604      	mov	r4, r0
 8008c2c:	f7ff fff0 	bl	8008c10 <__sfp_lock_acquire>
 8008c30:	6a23      	ldr	r3, [r4, #32]
 8008c32:	b11b      	cbz	r3, 8008c3c <__sinit+0x14>
 8008c34:	e8bd 4010 	ldmia.w	sp!, {r4, lr}
 8008c38:	f7ff bff0 	b.w	8008c1c <__sfp_lock_release>
 8008c3c:	4b04      	ldr	r3, [pc, #16]	; (8008c50 <__sinit+0x28>)
 8008c3e:	6223      	str	r3, [r4, #32]
 8008c40:	4b04      	ldr	r3, [pc, #16]	; (8008c54 <__sinit+0x2c>)
 8008c42:	681b      	ldr	r3, [r3, #0]
 8008c44:	2b00      	cmp	r3, #0
 8008c46:	d1f5      	bne.n	8008c34 <__sinit+0xc>
 8008c48:	f7ff ffc4 	bl	8008bd4 <global_stdio_init.part.0>
 8008c4c:	e7f2      	b.n	8008c34 <__sinit+0xc>
 8008c4e:	bf00      	nop
 8008c50:	08008b95 	.word	0x08008b95
 8008c54:	20008530 	.word	0x20008530

08008c58 <_fwalk_sglue>:
 8008c58:	e92d 43f8 	stmdb	sp!, {r3, r4, r5, r6, r7, r8, r9, lr}
 8008c5c:	4607      	mov	r7, r0
 8008c5e:	4688      	mov	r8, r1
 8008c60:	4614      	mov	r4, r2
 8008c62:	2600      	movs	r6, #0
 8008c64:	e9d4 9501 	ldrd	r9, r5, [r4, #4]
 8008c68:	f1b9 0901 	subs.w	r9, r9, #1
 8008c6c:	d505      	bpl.n	8008c7a <_fwalk_sglue+0x22>
 8008c6e:	6824      	ldr	r4, [r4, #0]
 8008c70:	2c00      	cmp	r4, #0
 8008c72:	d1f7      	bne.n	8008c64 <_fwalk_sglue+0xc>
 8008c74:	4630      	mov	r0, r6
 8008c76:	e8bd 83f8 	ldmia.w	sp!, {r3, r4, r5, r6, r7, r8, r9, pc}
 8008c7a:	89ab      	ldrh	r3, [r5, #12]
 8008c7c:	2b01      	cmp	r3, #1
 8008c7e:	d907      	bls.n	8008c90 <_fwalk_sglue+0x38>
 8008c80:	f9b5 300e 	ldrsh.w	r3, [r5, #14]
 8008c84:	3301      	adds	r3, #1
 8008c86:	d003      	beq.n	8008c90 <_fwalk_sglue+0x38>
 8008c88:	4629      	mov	r1, r5
 8008c8a:	4638      	mov	r0, r7
 8008c8c:	47c0      	blx	r8
 8008c8e:	4306      	orrs	r6, r0
 8008c90:	3568      	adds	r5, #104	; 0x68
 8008c92:	e7e9      	b.n	8008c68 <_fwalk_sglue+0x10>

08008c94 <iprintf>:
 8008c94:	b40f      	push	{r0, r1, r2, r3}
 8008c96:	b507      	push	{r0, r1, r2, lr}
 8008c98:	4906      	ldr	r1, [pc, #24]	; (8008cb4 <iprintf+0x20>)
 8008c9a:	ab04      	add	r3, sp, #16
 8008c9c:	6808      	ldr	r0, [r1, #0]
 8008c9e:	f853 2b04 	ldr.w	r2, [r3], #4
 8008ca2:	6881      	ldr	r1, [r0, #8]
 8008ca4:	9301      	str	r3, [sp, #4]
 8008ca6:	f000 fa27 	bl	80090f8 <_vfiprintf_r>
 8008caa:	b003      	add	sp, #12
 8008cac:	f85d eb04 	ldr.w	lr, [sp], #4
 8008cb0:	b004      	add	sp, #16
 8008cb2:	4770      	bx	lr
 8008cb4:	20000080 	.word	0x20000080

08008cb8 <__sread>:
 8008cb8:	b510      	push	{r4, lr}
 8008cba:	460c      	mov	r4, r1
 8008cbc:	f9b1 100e 	ldrsh.w	r1, [r1, #14]
 8008cc0:	f000 f878 	bl	8008db4 <_read_r>
 8008cc4:	2800      	cmp	r0, #0
 8008cc6:	bfab      	itete	ge
 8008cc8:	6d63      	ldrge	r3, [r4, #84]	; 0x54
 8008cca:	89a3      	ldrhlt	r3, [r4, #12]
 8008ccc:	181b      	addge	r3, r3, r0
 8008cce:	f423 5380 	biclt.w	r3, r3, #4096	; 0x1000
 8008cd2:	bfac      	ite	ge
 8008cd4:	6563      	strge	r3, [r4, #84]	; 0x54
 8008cd6:	81a3      	strhlt	r3, [r4, #12]
 8008cd8:	bd10      	pop	{r4, pc}

08008cda <__swrite>:
 8008cda:	e92d 41f0 	stmdb	sp!, {r4, r5, r6, r7, r8, lr}
 8008cde:	461f      	mov	r7, r3
 8008ce0:	898b      	ldrh	r3, [r1, #12]
 8008ce2:	05db      	lsls	r3, r3, #23
 8008ce4:	4605      	mov	r5, r0
 8008ce6:	460c      	mov	r4, r1
 8008ce8:	4616      	mov	r6, r2
 8008cea:	d505      	bpl.n	8008cf8 <__swrite+0x1e>
 8008cec:	f9b1 100e 	ldrsh.w	r1, [r1, #14]
 8008cf0:	2302      	movs	r3, #2
 8008cf2:	2200      	movs	r2, #0
 8008cf4:	f000 f84c 	bl	8008d90 <_lseek_r>
 8008cf8:	89a3      	ldrh	r3, [r4, #12]
 8008cfa:	f9b4 100e 	ldrsh.w	r1, [r4, #14]
 8008cfe:	f423 5380 	bic.w	r3, r3, #4096	; 0x1000
 8008d02:	81a3      	strh	r3, [r4, #12]
 8008d04:	4632      	mov	r2, r6
 8008d06:	463b      	mov	r3, r7
 8008d08:	4628      	mov	r0, r5
 8008d0a:	e8bd 41f0 	ldmia.w	sp!, {r4, r5, r6, r7, r8, lr}
 8008d0e:	f000 b863 	b.w	8008dd8 <_write_r>

08008d12 <__sseek>:
 8008d12:	b510      	push	{r4, lr}
 8008d14:	460c      	mov	r4, r1
 8008d16:	f9b1 100e 	ldrsh.w	r1, [r1, #14]
 8008d1a:	f000 f839 	bl	8008d90 <_lseek_r>
 8008d1e:	1c43      	adds	r3, r0, #1
 8008d20:	89a3      	ldrh	r3, [r4, #12]
 8008d22:	bf15      	itete	ne
 8008d24:	6560      	strne	r0, [r4, #84]	; 0x54
 8008d26:	f423 5380 	biceq.w	r3, r3, #4096	; 0x1000
 8008d2a:	f443 5380 	orrne.w	r3, r3, #4096	; 0x1000
 8008d2e:	81a3      	strheq	r3, [r4, #12]
 8008d30:	bf18      	it	ne
 8008d32:	81a3      	strhne	r3, [r4, #12]
 8008d34:	bd10      	pop	{r4, pc}

08008d36 <__sclose>:
 8008d36:	f9b1 100e 	ldrsh.w	r1, [r1, #14]
 8008d3a:	f000 b819 	b.w	8008d70 <_close_r>

08008d3e <memcmp>:
 8008d3e:	b510      	push	{r4, lr}
 8008d40:	3901      	subs	r1, #1
 8008d42:	4402      	add	r2, r0
 8008d44:	4290      	cmp	r0, r2
 8008d46:	d101      	bne.n	8008d4c <memcmp+0xe>
 8008d48:	2000      	movs	r0, #0
 8008d4a:	e005      	b.n	8008d58 <memcmp+0x1a>
 8008d4c:	7803      	ldrb	r3, [r0, #0]
 8008d4e:	f811 4f01 	ldrb.w	r4, [r1, #1]!
 8008d52:	42a3      	cmp	r3, r4
 8008d54:	d001      	beq.n	8008d5a <memcmp+0x1c>
 8008d56:	1b18      	subs	r0, r3, r4
 8008d58:	bd10      	pop	{r4, pc}
 8008d5a:	3001      	adds	r0, #1
 8008d5c:	e7f2      	b.n	8008d44 <memcmp+0x6>

08008d5e <memset>:
 8008d5e:	4402      	add	r2, r0
 8008d60:	4603      	mov	r3, r0
 8008d62:	4293      	cmp	r3, r2
 8008d64:	d100      	bne.n	8008d68 <memset+0xa>
 8008d66:	4770      	bx	lr
 8008d68:	f803 1b01 	strb.w	r1, [r3], #1
 8008d6c:	e7f9      	b.n	8008d62 <memset+0x4>
	...

08008d70 <_close_r>:
 8008d70:	b538      	push	{r3, r4, r5, lr}
 8008d72:	4d06      	ldr	r5, [pc, #24]	; (8008d8c <_close_r+0x1c>)
 8008d74:	2300      	movs	r3, #0
 8008d76:	4604      	mov	r4, r0
 8008d78:	4608      	mov	r0, r1
 8008d7a:	602b      	str	r3, [r5, #0]
 8008d7c:	f7f7 fd9e 	bl	80008bc <_close>
 8008d80:	1c43      	adds	r3, r0, #1
 8008d82:	d102      	bne.n	8008d8a <_close_r+0x1a>
 8008d84:	682b      	ldr	r3, [r5, #0]
 8008d86:	b103      	cbz	r3, 8008d8a <_close_r+0x1a>
 8008d88:	6023      	str	r3, [r4, #0]
 8008d8a:	bd38      	pop	{r3, r4, r5, pc}
 8008d8c:	20008534 	.word	0x20008534

08008d90 <_lseek_r>:
 8008d90:	b538      	push	{r3, r4, r5, lr}
 8008d92:	4d07      	ldr	r5, [pc, #28]	; (8008db0 <_lseek_r+0x20>)
 8008d94:	4604      	mov	r4, r0
 8008d96:	4608      	mov	r0, r1
 8008d98:	4611      	mov	r1, r2
 8008d9a:	2200      	movs	r2, #0
 8008d9c:	602a      	str	r2, [r5, #0]
 8008d9e:	461a      	mov	r2, r3
 8008da0:	f7f7 fd96 	bl	80008d0 <_lseek>
 8008da4:	1c43      	adds	r3, r0, #1
 8008da6:	d102      	bne.n	8008dae <_lseek_r+0x1e>
 8008da8:	682b      	ldr	r3, [r5, #0]
 8008daa:	b103      	cbz	r3, 8008dae <_lseek_r+0x1e>
 8008dac:	6023      	str	r3, [r4, #0]
 8008dae:	bd38      	pop	{r3, r4, r5, pc}
 8008db0:	20008534 	.word	0x20008534

08008db4 <_read_r>:
 8008db4:	b538      	push	{r3, r4, r5, lr}
 8008db6:	4d07      	ldr	r5, [pc, #28]	; (8008dd4 <_read_r+0x20>)
 8008db8:	4604      	mov	r4, r0
 8008dba:	4608      	mov	r0, r1
 8008dbc:	4611      	mov	r1, r2
 8008dbe:	2200      	movs	r2, #0
 8008dc0:	602a      	str	r2, [r5, #0]
 8008dc2:	461a      	mov	r2, r3
 8008dc4:	f7f7 fd5e 	bl	8000884 <_read>
 8008dc8:	1c43      	adds	r3, r0, #1
 8008dca:	d102      	bne.n	8008dd2 <_read_r+0x1e>
 8008dcc:	682b      	ldr	r3, [r5, #0]
 8008dce:	b103      	cbz	r3, 8008dd2 <_read_r+0x1e>
 8008dd0:	6023      	str	r3, [r4, #0]
 8008dd2:	bd38      	pop	{r3, r4, r5, pc}
 8008dd4:	20008534 	.word	0x20008534

08008dd8 <_write_r>:
 8008dd8:	b538      	push	{r3, r4, r5, lr}
 8008dda:	4d07      	ldr	r5, [pc, #28]	; (8008df8 <_write_r+0x20>)
 8008ddc:	4604      	mov	r4, r0
 8008dde:	4608      	mov	r0, r1
 8008de0:	4611      	mov	r1, r2
 8008de2:	2200      	movs	r2, #0
 8008de4:	602a      	str	r2, [r5, #0]
 8008de6:	461a      	mov	r2, r3
 8008de8:	f7f7 fd5a 	bl	80008a0 <_write>
 8008dec:	1c43      	adds	r3, r0, #1
 8008dee:	d102      	bne.n	8008df6 <_write_r+0x1e>
 8008df0:	682b      	ldr	r3, [r5, #0]
 8008df2:	b103      	cbz	r3, 8008df6 <_write_r+0x1e>
 8008df4:	6023      	str	r3, [r4, #0]
 8008df6:	bd38      	pop	{r3, r4, r5, pc}
 8008df8:	20008534 	.word	0x20008534

08008dfc <__libc_init_array>:
 8008dfc:	b570      	push	{r4, r5, r6, lr}
 8008dfe:	4d0d      	ldr	r5, [pc, #52]	; (8008e34 <__libc_init_array+0x38>)
 8008e00:	4c0d      	ldr	r4, [pc, #52]	; (8008e38 <__libc_init_array+0x3c>)
 8008e02:	1b64      	subs	r4, r4, r5
 8008e04:	10a4      	asrs	r4, r4, #2
 8008e06:	2600      	movs	r6, #0
 8008e08:	42a6      	cmp	r6, r4
 8008e0a:	d109      	bne.n	8008e20 <__libc_init_array+0x24>
 8008e0c:	4d0b      	ldr	r5, [pc, #44]	; (8008e3c <__libc_init_array+0x40>)
 8008e0e:	4c0c      	ldr	r4, [pc, #48]	; (8008e40 <__libc_init_array+0x44>)
 8008e10:	f000 fe52 	bl	8009ab8 <_init>
 8008e14:	1b64      	subs	r4, r4, r5
 8008e16:	10a4      	asrs	r4, r4, #2
 8008e18:	2600      	movs	r6, #0
 8008e1a:	42a6      	cmp	r6, r4
 8008e1c:	d105      	bne.n	8008e2a <__libc_init_array+0x2e>
 8008e1e:	bd70      	pop	{r4, r5, r6, pc}
 8008e20:	f855 3b04 	ldr.w	r3, [r5], #4
 8008e24:	4798      	blx	r3
 8008e26:	3601      	adds	r6, #1
 8008e28:	e7ee      	b.n	8008e08 <__libc_init_array+0xc>
 8008e2a:	f855 3b04 	ldr.w	r3, [r5], #4
 8008e2e:	4798      	blx	r3
 8008e30:	3601      	adds	r6, #1
 8008e32:	e7f2      	b.n	8008e1a <__libc_init_array+0x1e>
 8008e34:	0800ba88 	.word	0x0800ba88
 8008e38:	0800ba88 	.word	0x0800ba88
 8008e3c:	0800ba88 	.word	0x0800ba88
 8008e40:	0800ba8c 	.word	0x0800ba8c

08008e44 <__retarget_lock_init_recursive>:
 8008e44:	4770      	bx	lr

08008e46 <__retarget_lock_acquire_recursive>:
 8008e46:	4770      	bx	lr

08008e48 <__retarget_lock_release_recursive>:
 8008e48:	4770      	bx	lr

08008e4a <memcpy>:
 8008e4a:	440a      	add	r2, r1
 8008e4c:	4291      	cmp	r1, r2
 8008e4e:	f100 33ff 	add.w	r3, r0, #4294967295
 8008e52:	d100      	bne.n	8008e56 <memcpy+0xc>
 8008e54:	4770      	bx	lr
 8008e56:	b510      	push	{r4, lr}
 8008e58:	f811 4b01 	ldrb.w	r4, [r1], #1
 8008e5c:	f803 4f01 	strb.w	r4, [r3, #1]!
 8008e60:	4291      	cmp	r1, r2
 8008e62:	d1f9      	bne.n	8008e58 <memcpy+0xe>
 8008e64:	bd10      	pop	{r4, pc}
	...

08008e68 <__assert_func>:
 8008e68:	b51f      	push	{r0, r1, r2, r3, r4, lr}
 8008e6a:	4614      	mov	r4, r2
 8008e6c:	461a      	mov	r2, r3
 8008e6e:	4b09      	ldr	r3, [pc, #36]	; (8008e94 <__assert_func+0x2c>)
 8008e70:	681b      	ldr	r3, [r3, #0]
 8008e72:	4605      	mov	r5, r0
 8008e74:	68d8      	ldr	r0, [r3, #12]
 8008e76:	b14c      	cbz	r4, 8008e8c <__assert_func+0x24>
 8008e78:	4b07      	ldr	r3, [pc, #28]	; (8008e98 <__assert_func+0x30>)
 8008e7a:	9100      	str	r1, [sp, #0]
 8008e7c:	e9cd 3401 	strd	r3, r4, [sp, #4]
 8008e80:	4906      	ldr	r1, [pc, #24]	; (8008e9c <__assert_func+0x34>)
 8008e82:	462b      	mov	r3, r5
 8008e84:	f000 fc90 	bl	80097a8 <fiprintf>
 8008e88:	f000 fd46 	bl	8009918 <abort>
 8008e8c:	4b04      	ldr	r3, [pc, #16]	; (8008ea0 <__assert_func+0x38>)
 8008e8e:	461c      	mov	r4, r3
 8008e90:	e7f3      	b.n	8008e7a <__assert_func+0x12>
 8008e92:	bf00      	nop
 8008e94:	20000080 	.word	0x20000080
 8008e98:	0800ba11 	.word	0x0800ba11
 8008e9c:	0800ba1e 	.word	0x0800ba1e
 8008ea0:	0800a6e7 	.word	0x0800a6e7

08008ea4 <_free_r>:
 8008ea4:	b537      	push	{r0, r1, r2, r4, r5, lr}
 8008ea6:	2900      	cmp	r1, #0
 8008ea8:	d044      	beq.n	8008f34 <_free_r+0x90>
 8008eaa:	f851 3c04 	ldr.w	r3, [r1, #-4]
 8008eae:	9001      	str	r0, [sp, #4]
 8008eb0:	2b00      	cmp	r3, #0
 8008eb2:	f1a1 0404 	sub.w	r4, r1, #4
 8008eb6:	bfb8      	it	lt
 8008eb8:	18e4      	addlt	r4, r4, r3
 8008eba:	f000 f8e7 	bl	800908c <__malloc_lock>
 8008ebe:	4a1e      	ldr	r2, [pc, #120]	; (8008f38 <_free_r+0x94>)
 8008ec0:	9801      	ldr	r0, [sp, #4]
 8008ec2:	6813      	ldr	r3, [r2, #0]
 8008ec4:	b933      	cbnz	r3, 8008ed4 <_free_r+0x30>
 8008ec6:	6063      	str	r3, [r4, #4]
 8008ec8:	6014      	str	r4, [r2, #0]
 8008eca:	b003      	add	sp, #12
 8008ecc:	e8bd 4030 	ldmia.w	sp!, {r4, r5, lr}
 8008ed0:	f000 b8e2 	b.w	8009098 <__malloc_unlock>
 8008ed4:	42a3      	cmp	r3, r4
 8008ed6:	d908      	bls.n	8008eea <_free_r+0x46>
 8008ed8:	6825      	ldr	r5, [r4, #0]
 8008eda:	1961      	adds	r1, r4, r5
 8008edc:	428b      	cmp	r3, r1
 8008ede:	bf01      	itttt	eq
 8008ee0:	6819      	ldreq	r1, [r3, #0]
 8008ee2:	685b      	ldreq	r3, [r3, #4]
 8008ee4:	1949      	addeq	r1, r1, r5
 8008ee6:	6021      	streq	r1, [r4, #0]
 8008ee8:	e7ed      	b.n	8008ec6 <_free_r+0x22>
 8008eea:	461a      	mov	r2, r3
 8008eec:	685b      	ldr	r3, [r3, #4]
 8008eee:	b10b      	cbz	r3, 8008ef4 <_free_r+0x50>
 8008ef0:	42a3      	cmp	r3, r4
 8008ef2:	d9fa      	bls.n	8008eea <_free_r+0x46>
 8008ef4:	6811      	ldr	r1, [r2, #0]
 8008ef6:	1855      	adds	r5, r2, r1
 8008ef8:	42a5      	cmp	r5, r4
 8008efa:	d10b      	bne.n	8008f14 <_free_r+0x70>
 8008efc:	6824      	ldr	r4, [r4, #0]
 8008efe:	4421      	add	r1, r4
 8008f00:	1854      	adds	r4, r2, r1
 8008f02:	42a3      	cmp	r3, r4
 8008f04:	6011      	str	r1, [r2, #0]
 8008f06:	d1e0      	bne.n	8008eca <_free_r+0x26>
 8008f08:	681c      	ldr	r4, [r3, #0]
 8008f0a:	685b      	ldr	r3, [r3, #4]
 8008f0c:	6053      	str	r3, [r2, #4]
 8008f0e:	440c      	add	r4, r1
 8008f10:	6014      	str	r4, [r2, #0]
 8008f12:	e7da      	b.n	8008eca <_free_r+0x26>
 8008f14:	d902      	bls.n	8008f1c <_free_r+0x78>
 8008f16:	230c      	movs	r3, #12
 8008f18:	6003      	str	r3, [r0, #0]
 8008f1a:	e7d6      	b.n	8008eca <_free_r+0x26>
 8008f1c:	6825      	ldr	r5, [r4, #0]
 8008f1e:	1961      	adds	r1, r4, r5
 8008f20:	428b      	cmp	r3, r1
 8008f22:	bf04      	itt	eq
 8008f24:	6819      	ldreq	r1, [r3, #0]
 8008f26:	685b      	ldreq	r3, [r3, #4]
 8008f28:	6063      	str	r3, [r4, #4]
 8008f2a:	bf04      	itt	eq
 8008f2c:	1949      	addeq	r1, r1, r5
 8008f2e:	6021      	streq	r1, [r4, #0]
 8008f30:	6054      	str	r4, [r2, #4]
 8008f32:	e7ca      	b.n	8008eca <_free_r+0x26>
 8008f34:	b003      	add	sp, #12
 8008f36:	bd30      	pop	{r4, r5, pc}
 8008f38:	2000853c 	.word	0x2000853c

08008f3c <malloc>:
 8008f3c:	4b02      	ldr	r3, [pc, #8]	; (8008f48 <malloc+0xc>)
 8008f3e:	4601      	mov	r1, r0
 8008f40:	6818      	ldr	r0, [r3, #0]
 8008f42:	f000 b823 	b.w	8008f8c <_malloc_r>
 8008f46:	bf00      	nop
 8008f48:	20000080 	.word	0x20000080

08008f4c <sbrk_aligned>:
 8008f4c:	b570      	push	{r4, r5, r6, lr}
 8008f4e:	4e0e      	ldr	r6, [pc, #56]	; (8008f88 <sbrk_aligned+0x3c>)
 8008f50:	460c      	mov	r4, r1
 8008f52:	6831      	ldr	r1, [r6, #0]
 8008f54:	4605      	mov	r5, r0
 8008f56:	b911      	cbnz	r1, 8008f5e <sbrk_aligned+0x12>
 8008f58:	f000 fcce 	bl	80098f8 <_sbrk_r>
 8008f5c:	6030      	str	r0, [r6, #0]
 8008f5e:	4621      	mov	r1, r4
 8008f60:	4628      	mov	r0, r5
 8008f62:	f000 fcc9 	bl	80098f8 <_sbrk_r>
 8008f66:	1c43      	adds	r3, r0, #1
 8008f68:	d00a      	beq.n	8008f80 <sbrk_aligned+0x34>
 8008f6a:	1cc4      	adds	r4, r0, #3
 8008f6c:	f024 0403 	bic.w	r4, r4, #3
 8008f70:	42a0      	cmp	r0, r4
 8008f72:	d007      	beq.n	8008f84 <sbrk_aligned+0x38>
 8008f74:	1a21      	subs	r1, r4, r0
 8008f76:	4628      	mov	r0, r5
 8008f78:	f000 fcbe 	bl	80098f8 <_sbrk_r>
 8008f7c:	3001      	adds	r0, #1
 8008f7e:	d101      	bne.n	8008f84 <sbrk_aligned+0x38>
 8008f80:	f04f 34ff 	mov.w	r4, #4294967295
 8008f84:	4620      	mov	r0, r4
 8008f86:	bd70      	pop	{r4, r5, r6, pc}
 8008f88:	20008540 	.word	0x20008540

08008f8c <_malloc_r>:
 8008f8c:	e92d 43f8 	stmdb	sp!, {r3, r4, r5, r6, r7, r8, r9, lr}
 8008f90:	1ccd      	adds	r5, r1, #3
 8008f92:	f025 0503 	bic.w	r5, r5, #3
 8008f96:	3508      	adds	r5, #8
 8008f98:	2d0c      	cmp	r5, #12
 8008f9a:	bf38      	it	cc
 8008f9c:	250c      	movcc	r5, #12
 8008f9e:	2d00      	cmp	r5, #0
 8008fa0:	4607      	mov	r7, r0
 8008fa2:	db01      	blt.n	8008fa8 <_malloc_r+0x1c>
 8008fa4:	42a9      	cmp	r1, r5
 8008fa6:	d905      	bls.n	8008fb4 <_malloc_r+0x28>
 8008fa8:	230c      	movs	r3, #12
 8008faa:	603b      	str	r3, [r7, #0]
 8008fac:	2600      	movs	r6, #0
 8008fae:	4630      	mov	r0, r6
 8008fb0:	e8bd 83f8 	ldmia.w	sp!, {r3, r4, r5, r6, r7, r8, r9, pc}
 8008fb4:	f8df 80d0 	ldr.w	r8, [pc, #208]	; 8009088 <_malloc_r+0xfc>
 8008fb8:	f000 f868 	bl	800908c <__malloc_lock>
 8008fbc:	f8d8 3000 	ldr.w	r3, [r8]
 8008fc0:	461c      	mov	r4, r3
 8008fc2:	bb5c      	cbnz	r4, 800901c <_malloc_r+0x90>
 8008fc4:	4629      	mov	r1, r5
 8008fc6:	4638      	mov	r0, r7
 8008fc8:	f7ff ffc0 	bl	8008f4c <sbrk_aligned>
 8008fcc:	1c43      	adds	r3, r0, #1
 8008fce:	4604      	mov	r4, r0
 8008fd0:	d155      	bne.n	800907e <_malloc_r+0xf2>
 8008fd2:	f8d8 4000 	ldr.w	r4, [r8]
 8008fd6:	4626      	mov	r6, r4
 8008fd8:	2e00      	cmp	r6, #0
 8008fda:	d145      	bne.n	8009068 <_malloc_r+0xdc>
 8008fdc:	2c00      	cmp	r4, #0
 8008fde:	d048      	beq.n	8009072 <_malloc_r+0xe6>
 8008fe0:	6823      	ldr	r3, [r4, #0]
 8008fe2:	4631      	mov	r1, r6
 8008fe4:	4638      	mov	r0, r7
 8008fe6:	eb04 0903 	add.w	r9, r4, r3
 8008fea:	f000 fc85 	bl	80098f8 <_sbrk_r>
 8008fee:	4581      	cmp	r9, r0
 8008ff0:	d13f      	bne.n	8009072 <_malloc_r+0xe6>
 8008ff2:	6821      	ldr	r1, [r4, #0]
 8008ff4:	1a6d      	subs	r5, r5, r1
 8008ff6:	4629      	mov	r1, r5
 8008ff8:	4638      	mov	r0, r7
 8008ffa:	f7ff ffa7 	bl	8008f4c <sbrk_aligned>
 8008ffe:	3001      	adds	r0, #1
 8009000:	d037      	beq.n	8009072 <_malloc_r+0xe6>
 8009002:	6823      	ldr	r3, [r4, #0]
 8009004:	442b      	add	r3, r5
 8009006:	6023      	str	r3, [r4, #0]
 8009008:	f8d8 3000 	ldr.w	r3, [r8]
 800900c:	2b00      	cmp	r3, #0
 800900e:	d038      	beq.n	8009082 <_malloc_r+0xf6>
 8009010:	685a      	ldr	r2, [r3, #4]
 8009012:	42a2      	cmp	r2, r4
 8009014:	d12b      	bne.n	800906e <_malloc_r+0xe2>
 8009016:	2200      	movs	r2, #0
 8009018:	605a      	str	r2, [r3, #4]
 800901a:	e00f      	b.n	800903c <_malloc_r+0xb0>
 800901c:	6822      	ldr	r2, [r4, #0]
 800901e:	1b52      	subs	r2, r2, r5
 8009020:	d41f      	bmi.n	8009062 <_malloc_r+0xd6>
 8009022:	2a0b      	cmp	r2, #11
 8009024:	d917      	bls.n	8009056 <_malloc_r+0xca>
 8009026:	1961      	adds	r1, r4, r5
 8009028:	42a3      	cmp	r3, r4
 800902a:	6025      	str	r5, [r4, #0]
 800902c:	bf18      	it	ne
 800902e:	6059      	strne	r1, [r3, #4]
 8009030:	6863      	ldr	r3, [r4, #4]
 8009032:	bf08      	it	eq
 8009034:	f8c8 1000 	streq.w	r1, [r8]
 8009038:	5162      	str	r2, [r4, r5]
 800903a:	604b      	str	r3, [r1, #4]
 800903c:	4638      	mov	r0, r7
 800903e:	f104 060b 	add.w	r6, r4, #11
 8009042:	f000 f829 	bl	8009098 <__malloc_unlock>
 8009046:	f026 0607 	bic.w	r6, r6, #7
 800904a:	1d23      	adds	r3, r4, #4
 800904c:	1af2      	subs	r2, r6, r3
 800904e:	d0ae      	beq.n	8008fae <_malloc_r+0x22>
 8009050:	1b9b      	subs	r3, r3, r6
 8009052:	50a3      	str	r3, [r4, r2]
 8009054:	e7ab      	b.n	8008fae <_malloc_r+0x22>
 8009056:	42a3      	cmp	r3, r4
 8009058:	6862      	ldr	r2, [r4, #4]
 800905a:	d1dd      	bne.n	8009018 <_malloc_r+0x8c>
 800905c:	f8c8 2000 	str.w	r2, [r8]
 8009060:	e7ec      	b.n	800903c <_malloc_r+0xb0>
 8009062:	4623      	mov	r3, r4
 8009064:	6864      	ldr	r4, [r4, #4]
 8009066:	e7ac      	b.n	8008fc2 <_malloc_r+0x36>
 8009068:	4634      	mov	r4, r6
 800906a:	6876      	ldr	r6, [r6, #4]
 800906c:	e7b4      	b.n	8008fd8 <_malloc_r+0x4c>
 800906e:	4613      	mov	r3, r2
 8009070:	e7cc      	b.n	800900c <_malloc_r+0x80>
 8009072:	230c      	movs	r3, #12
 8009074:	603b      	str	r3, [r7, #0]
 8009076:	4638      	mov	r0, r7
 8009078:	f000 f80e 	bl	8009098 <__malloc_unlock>
 800907c:	e797      	b.n	8008fae <_malloc_r+0x22>
 800907e:	6025      	str	r5, [r4, #0]
 8009080:	e7dc      	b.n	800903c <_malloc_r+0xb0>
 8009082:	605b      	str	r3, [r3, #4]
 8009084:	deff      	udf	#255	; 0xff
 8009086:	bf00      	nop
 8009088:	2000853c 	.word	0x2000853c

0800908c <__malloc_lock>:
 800908c:	4801      	ldr	r0, [pc, #4]	; (8009094 <__malloc_lock+0x8>)
 800908e:	f7ff beda 	b.w	8008e46 <__retarget_lock_acquire_recursive>
 8009092:	bf00      	nop
 8009094:	20008538 	.word	0x20008538

08009098 <__malloc_unlock>:
 8009098:	4801      	ldr	r0, [pc, #4]	; (80090a0 <__malloc_unlock+0x8>)
 800909a:	f7ff bed5 	b.w	8008e48 <__retarget_lock_release_recursive>
 800909e:	bf00      	nop
 80090a0:	20008538 	.word	0x20008538

080090a4 <__sfputc_r>:
 80090a4:	6893      	ldr	r3, [r2, #8]
 80090a6:	3b01      	subs	r3, #1
 80090a8:	2b00      	cmp	r3, #0
 80090aa:	b410      	push	{r4}
 80090ac:	6093      	str	r3, [r2, #8]
 80090ae:	da08      	bge.n	80090c2 <__sfputc_r+0x1e>
 80090b0:	6994      	ldr	r4, [r2, #24]
 80090b2:	42a3      	cmp	r3, r4
 80090b4:	db01      	blt.n	80090ba <__sfputc_r+0x16>
 80090b6:	290a      	cmp	r1, #10
 80090b8:	d103      	bne.n	80090c2 <__sfputc_r+0x1e>
 80090ba:	f85d 4b04 	ldr.w	r4, [sp], #4
 80090be:	f000 bb85 	b.w	80097cc <__swbuf_r>
 80090c2:	6813      	ldr	r3, [r2, #0]
 80090c4:	1c58      	adds	r0, r3, #1
 80090c6:	6010      	str	r0, [r2, #0]
 80090c8:	7019      	strb	r1, [r3, #0]
 80090ca:	4608      	mov	r0, r1
 80090cc:	f85d 4b04 	ldr.w	r4, [sp], #4
 80090d0:	4770      	bx	lr

080090d2 <__sfputs_r>:
 80090d2:	b5f8      	push	{r3, r4, r5, r6, r7, lr}
 80090d4:	4606      	mov	r6, r0
 80090d6:	460f      	mov	r7, r1
 80090d8:	4614      	mov	r4, r2
 80090da:	18d5      	adds	r5, r2, r3
 80090dc:	42ac      	cmp	r4, r5
 80090de:	d101      	bne.n	80090e4 <__sfputs_r+0x12>
 80090e0:	2000      	movs	r0, #0
 80090e2:	e007      	b.n	80090f4 <__sfputs_r+0x22>
 80090e4:	f814 1b01 	ldrb.w	r1, [r4], #1
 80090e8:	463a      	mov	r2, r7
 80090ea:	4630      	mov	r0, r6
 80090ec:	f7ff ffda 	bl	80090a4 <__sfputc_r>
 80090f0:	1c43      	adds	r3, r0, #1
 80090f2:	d1f3      	bne.n	80090dc <__sfputs_r+0xa>
 80090f4:	bdf8      	pop	{r3, r4, r5, r6, r7, pc}
	...

080090f8 <_vfiprintf_r>:
 80090f8:	e92d 4ff0 	stmdb	sp!, {r4, r5, r6, r7, r8, r9, sl, fp, lr}
 80090fc:	460d      	mov	r5, r1
 80090fe:	b09d      	sub	sp, #116	; 0x74
 8009100:	4614      	mov	r4, r2
 8009102:	4698      	mov	r8, r3
 8009104:	4606      	mov	r6, r0
 8009106:	b118      	cbz	r0, 8009110 <_vfiprintf_r+0x18>
 8009108:	6a03      	ldr	r3, [r0, #32]
 800910a:	b90b      	cbnz	r3, 8009110 <_vfiprintf_r+0x18>
 800910c:	f7ff fd8c 	bl	8008c28 <__sinit>
 8009110:	6e6b      	ldr	r3, [r5, #100]	; 0x64
 8009112:	07d9      	lsls	r1, r3, #31
 8009114:	d405      	bmi.n	8009122 <_vfiprintf_r+0x2a>
 8009116:	89ab      	ldrh	r3, [r5, #12]
 8009118:	059a      	lsls	r2, r3, #22
 800911a:	d402      	bmi.n	8009122 <_vfiprintf_r+0x2a>
 800911c:	6da8      	ldr	r0, [r5, #88]	; 0x58
 800911e:	f7ff fe92 	bl	8008e46 <__retarget_lock_acquire_recursive>
 8009122:	89ab      	ldrh	r3, [r5, #12]
 8009124:	071b      	lsls	r3, r3, #28
 8009126:	d501      	bpl.n	800912c <_vfiprintf_r+0x34>
 8009128:	692b      	ldr	r3, [r5, #16]
 800912a:	b99b      	cbnz	r3, 8009154 <_vfiprintf_r+0x5c>
 800912c:	4629      	mov	r1, r5
 800912e:	4630      	mov	r0, r6
 8009130:	f000 fb8a 	bl	8009848 <__swsetup_r>
 8009134:	b170      	cbz	r0, 8009154 <_vfiprintf_r+0x5c>
 8009136:	6e6b      	ldr	r3, [r5, #100]	; 0x64
 8009138:	07dc      	lsls	r4, r3, #31
 800913a:	d504      	bpl.n	8009146 <_vfiprintf_r+0x4e>
 800913c:	f04f 30ff 	mov.w	r0, #4294967295
 8009140:	b01d      	add	sp, #116	; 0x74
 8009142:	e8bd 8ff0 	ldmia.w	sp!, {r4, r5, r6, r7, r8, r9, sl, fp, pc}
 8009146:	89ab      	ldrh	r3, [r5, #12]
 8009148:	0598      	lsls	r0, r3, #22
 800914a:	d4f7      	bmi.n	800913c <_vfiprintf_r+0x44>
 800914c:	6da8      	ldr	r0, [r5, #88]	; 0x58
 800914e:	f7ff fe7b 	bl	8008e48 <__retarget_lock_release_recursive>
 8009152:	e7f3      	b.n	800913c <_vfiprintf_r+0x44>
 8009154:	2300      	movs	r3, #0
 8009156:	9309      	str	r3, [sp, #36]	; 0x24
 8009158:	2320      	movs	r3, #32
 800915a:	f88d 3029 	strb.w	r3, [sp, #41]	; 0x29
 800915e:	f8cd 800c 	str.w	r8, [sp, #12]
 8009162:	2330      	movs	r3, #48	; 0x30
 8009164:	f8df 81b0 	ldr.w	r8, [pc, #432]	; 8009318 <_vfiprintf_r+0x220>
 8009168:	f88d 302a 	strb.w	r3, [sp, #42]	; 0x2a
 800916c:	f04f 0901 	mov.w	r9, #1
 8009170:	4623      	mov	r3, r4
 8009172:	469a      	mov	sl, r3
 8009174:	f813 2b01 	ldrb.w	r2, [r3], #1
 8009178:	b10a      	cbz	r2, 800917e <_vfiprintf_r+0x86>
 800917a:	2a25      	cmp	r2, #37	; 0x25
 800917c:	d1f9      	bne.n	8009172 <_vfiprintf_r+0x7a>
 800917e:	ebba 0b04 	subs.w	fp, sl, r4
 8009182:	d00b      	beq.n	800919c <_vfiprintf_r+0xa4>
 8009184:	465b      	mov	r3, fp
 8009186:	4622      	mov	r2, r4
 8009188:	4629      	mov	r1, r5
 800918a:	4630      	mov	r0, r6
 800918c:	f7ff ffa1 	bl	80090d2 <__sfputs_r>
 8009190:	3001      	adds	r0, #1
 8009192:	f000 80a9 	beq.w	80092e8 <_vfiprintf_r+0x1f0>
 8009196:	9a09      	ldr	r2, [sp, #36]	; 0x24
 8009198:	445a      	add	r2, fp
 800919a:	9209      	str	r2, [sp, #36]	; 0x24
 800919c:	f89a 3000 	ldrb.w	r3, [sl]
 80091a0:	2b00      	cmp	r3, #0
 80091a2:	f000 80a1 	beq.w	80092e8 <_vfiprintf_r+0x1f0>
 80091a6:	2300      	movs	r3, #0
 80091a8:	f04f 32ff 	mov.w	r2, #4294967295
 80091ac:	e9cd 2305 	strd	r2, r3, [sp, #20]
 80091b0:	f10a 0a01 	add.w	sl, sl, #1
 80091b4:	9304      	str	r3, [sp, #16]
 80091b6:	9307      	str	r3, [sp, #28]
 80091b8:	f88d 3053 	strb.w	r3, [sp, #83]	; 0x53
 80091bc:	931a      	str	r3, [sp, #104]	; 0x68
 80091be:	4654      	mov	r4, sl
 80091c0:	2205      	movs	r2, #5
 80091c2:	f814 1b01 	ldrb.w	r1, [r4], #1
 80091c6:	4854      	ldr	r0, [pc, #336]	; (8009318 <_vfiprintf_r+0x220>)
 80091c8:	f7f7 f80a 	bl	80001e0 <memchr>
 80091cc:	9a04      	ldr	r2, [sp, #16]
 80091ce:	b9d8      	cbnz	r0, 8009208 <_vfiprintf_r+0x110>
 80091d0:	06d1      	lsls	r1, r2, #27
 80091d2:	bf44      	itt	mi
 80091d4:	2320      	movmi	r3, #32
 80091d6:	f88d 3053 	strbmi.w	r3, [sp, #83]	; 0x53
 80091da:	0713      	lsls	r3, r2, #28
 80091dc:	bf44      	itt	mi
 80091de:	232b      	movmi	r3, #43	; 0x2b
 80091e0:	f88d 3053 	strbmi.w	r3, [sp, #83]	; 0x53
 80091e4:	f89a 3000 	ldrb.w	r3, [sl]
 80091e8:	2b2a      	cmp	r3, #42	; 0x2a
 80091ea:	d015      	beq.n	8009218 <_vfiprintf_r+0x120>
 80091ec:	9a07      	ldr	r2, [sp, #28]
 80091ee:	4654      	mov	r4, sl
 80091f0:	2000      	movs	r0, #0
 80091f2:	f04f 0c0a 	mov.w	ip, #10
 80091f6:	4621      	mov	r1, r4
 80091f8:	f811 3b01 	ldrb.w	r3, [r1], #1
 80091fc:	3b30      	subs	r3, #48	; 0x30
 80091fe:	2b09      	cmp	r3, #9
 8009200:	d94d      	bls.n	800929e <_vfiprintf_r+0x1a6>
 8009202:	b1b0      	cbz	r0, 8009232 <_vfiprintf_r+0x13a>
 8009204:	9207      	str	r2, [sp, #28]
 8009206:	e014      	b.n	8009232 <_vfiprintf_r+0x13a>
 8009208:	eba0 0308 	sub.w	r3, r0, r8
 800920c:	fa09 f303 	lsl.w	r3, r9, r3
 8009210:	4313      	orrs	r3, r2
 8009212:	9304      	str	r3, [sp, #16]
 8009214:	46a2      	mov	sl, r4
 8009216:	e7d2      	b.n	80091be <_vfiprintf_r+0xc6>
 8009218:	9b03      	ldr	r3, [sp, #12]
 800921a:	1d19      	adds	r1, r3, #4
 800921c:	681b      	ldr	r3, [r3, #0]
 800921e:	9103      	str	r1, [sp, #12]
 8009220:	2b00      	cmp	r3, #0
 8009222:	bfbb      	ittet	lt
 8009224:	425b      	neglt	r3, r3
 8009226:	f042 0202 	orrlt.w	r2, r2, #2
 800922a:	9307      	strge	r3, [sp, #28]
 800922c:	9307      	strlt	r3, [sp, #28]
 800922e:	bfb8      	it	lt
 8009230:	9204      	strlt	r2, [sp, #16]
 8009232:	7823      	ldrb	r3, [r4, #0]
 8009234:	2b2e      	cmp	r3, #46	; 0x2e
 8009236:	d10c      	bne.n	8009252 <_vfiprintf_r+0x15a>
 8009238:	7863      	ldrb	r3, [r4, #1]
 800923a:	2b2a      	cmp	r3, #42	; 0x2a
 800923c:	d134      	bne.n	80092a8 <_vfiprintf_r+0x1b0>
 800923e:	9b03      	ldr	r3, [sp, #12]
 8009240:	1d1a      	adds	r2, r3, #4
 8009242:	681b      	ldr	r3, [r3, #0]
 8009244:	9203      	str	r2, [sp, #12]
 8009246:	2b00      	cmp	r3, #0
 8009248:	bfb8      	it	lt
 800924a:	f04f 33ff 	movlt.w	r3, #4294967295
 800924e:	3402      	adds	r4, #2
 8009250:	9305      	str	r3, [sp, #20]
 8009252:	f8df a0d4 	ldr.w	sl, [pc, #212]	; 8009328 <_vfiprintf_r+0x230>
 8009256:	7821      	ldrb	r1, [r4, #0]
 8009258:	2203      	movs	r2, #3
 800925a:	4650      	mov	r0, sl
 800925c:	f7f6 ffc0 	bl	80001e0 <memchr>
 8009260:	b138      	cbz	r0, 8009272 <_vfiprintf_r+0x17a>
 8009262:	9b04      	ldr	r3, [sp, #16]
 8009264:	eba0 000a 	sub.w	r0, r0, sl
 8009268:	2240      	movs	r2, #64	; 0x40
 800926a:	4082      	lsls	r2, r0
 800926c:	4313      	orrs	r3, r2
 800926e:	3401      	adds	r4, #1
 8009270:	9304      	str	r3, [sp, #16]
 8009272:	f814 1b01 	ldrb.w	r1, [r4], #1
 8009276:	4829      	ldr	r0, [pc, #164]	; (800931c <_vfiprintf_r+0x224>)
 8009278:	f88d 1028 	strb.w	r1, [sp, #40]	; 0x28
 800927c:	2206      	movs	r2, #6
 800927e:	f7f6 ffaf 	bl	80001e0 <memchr>
 8009282:	2800      	cmp	r0, #0
 8009284:	d03f      	beq.n	8009306 <_vfiprintf_r+0x20e>
 8009286:	4b26      	ldr	r3, [pc, #152]	; (8009320 <_vfiprintf_r+0x228>)
 8009288:	bb1b      	cbnz	r3, 80092d2 <_vfiprintf_r+0x1da>
 800928a:	9b03      	ldr	r3, [sp, #12]
 800928c:	3307      	adds	r3, #7
 800928e:	f023 0307 	bic.w	r3, r3, #7
 8009292:	3308      	adds	r3, #8
 8009294:	9303      	str	r3, [sp, #12]
 8009296:	9b09      	ldr	r3, [sp, #36]	; 0x24
 8009298:	443b      	add	r3, r7
 800929a:	9309      	str	r3, [sp, #36]	; 0x24
 800929c:	e768      	b.n	8009170 <_vfiprintf_r+0x78>
 800929e:	fb0c 3202 	mla	r2, ip, r2, r3
 80092a2:	460c      	mov	r4, r1
 80092a4:	2001      	movs	r0, #1
 80092a6:	e7a6      	b.n	80091f6 <_vfiprintf_r+0xfe>
 80092a8:	2300      	movs	r3, #0
 80092aa:	3401      	adds	r4, #1
 80092ac:	9305      	str	r3, [sp, #20]
 80092ae:	4619      	mov	r1, r3
 80092b0:	f04f 0c0a 	mov.w	ip, #10
 80092b4:	4620      	mov	r0, r4
 80092b6:	f810 2b01 	ldrb.w	r2, [r0], #1
 80092ba:	3a30      	subs	r2, #48	; 0x30
 80092bc:	2a09      	cmp	r2, #9
 80092be:	d903      	bls.n	80092c8 <_vfiprintf_r+0x1d0>
 80092c0:	2b00      	cmp	r3, #0
 80092c2:	d0c6      	beq.n	8009252 <_vfiprintf_r+0x15a>
 80092c4:	9105      	str	r1, [sp, #20]
 80092c6:	e7c4      	b.n	8009252 <_vfiprintf_r+0x15a>
 80092c8:	fb0c 2101 	mla	r1, ip, r1, r2
 80092cc:	4604      	mov	r4, r0
 80092ce:	2301      	movs	r3, #1
 80092d0:	e7f0      	b.n	80092b4 <_vfiprintf_r+0x1bc>
 80092d2:	ab03      	add	r3, sp, #12
 80092d4:	9300      	str	r3, [sp, #0]
 80092d6:	462a      	mov	r2, r5
 80092d8:	4b12      	ldr	r3, [pc, #72]	; (8009324 <_vfiprintf_r+0x22c>)
 80092da:	a904      	add	r1, sp, #16
 80092dc:	4630      	mov	r0, r6
 80092de:	f3af 8000 	nop.w
 80092e2:	4607      	mov	r7, r0
 80092e4:	1c78      	adds	r0, r7, #1
 80092e6:	d1d6      	bne.n	8009296 <_vfiprintf_r+0x19e>
 80092e8:	6e6b      	ldr	r3, [r5, #100]	; 0x64
 80092ea:	07d9      	lsls	r1, r3, #31
 80092ec:	d405      	bmi.n	80092fa <_vfiprintf_r+0x202>
 80092ee:	89ab      	ldrh	r3, [r5, #12]
 80092f0:	059a      	lsls	r2, r3, #22
 80092f2:	d402      	bmi.n	80092fa <_vfiprintf_r+0x202>
 80092f4:	6da8      	ldr	r0, [r5, #88]	; 0x58
 80092f6:	f7ff fda7 	bl	8008e48 <__retarget_lock_release_recursive>
 80092fa:	89ab      	ldrh	r3, [r5, #12]
 80092fc:	065b      	lsls	r3, r3, #25
 80092fe:	f53f af1d 	bmi.w	800913c <_vfiprintf_r+0x44>
 8009302:	9809      	ldr	r0, [sp, #36]	; 0x24
 8009304:	e71c      	b.n	8009140 <_vfiprintf_r+0x48>
 8009306:	ab03      	add	r3, sp, #12
 8009308:	9300      	str	r3, [sp, #0]
 800930a:	462a      	mov	r2, r5
 800930c:	4b05      	ldr	r3, [pc, #20]	; (8009324 <_vfiprintf_r+0x22c>)
 800930e:	a904      	add	r1, sp, #16
 8009310:	4630      	mov	r0, r6
 8009312:	f000 f879 	bl	8009408 <_printf_i>
 8009316:	e7e4      	b.n	80092e2 <_vfiprintf_r+0x1ea>
 8009318:	0800ba4d 	.word	0x0800ba4d
 800931c:	0800ba57 	.word	0x0800ba57
 8009320:	00000000 	.word	0x00000000
 8009324:	080090d3 	.word	0x080090d3
 8009328:	0800ba53 	.word	0x0800ba53

0800932c <_printf_common>:
 800932c:	e92d 47f0 	stmdb	sp!, {r4, r5, r6, r7, r8, r9, sl, lr}
 8009330:	4616      	mov	r6, r2
 8009332:	4699      	mov	r9, r3
 8009334:	688a      	ldr	r2, [r1, #8]
 8009336:	690b      	ldr	r3, [r1, #16]
 8009338:	f8dd 8020 	ldr.w	r8, [sp, #32]
 800933c:	4293      	cmp	r3, r2
 800933e:	bfb8      	it	lt
 8009340:	4613      	movlt	r3, r2
 8009342:	6033      	str	r3, [r6, #0]
 8009344:	f891 2043 	ldrb.w	r2, [r1, #67]	; 0x43
 8009348:	4607      	mov	r7, r0
 800934a:	460c      	mov	r4, r1
 800934c:	b10a      	cbz	r2, 8009352 <_printf_common+0x26>
 800934e:	3301      	adds	r3, #1
 8009350:	6033      	str	r3, [r6, #0]
 8009352:	6823      	ldr	r3, [r4, #0]
 8009354:	0699      	lsls	r1, r3, #26
 8009356:	bf42      	ittt	mi
 8009358:	6833      	ldrmi	r3, [r6, #0]
 800935a:	3302      	addmi	r3, #2
 800935c:	6033      	strmi	r3, [r6, #0]
 800935e:	6825      	ldr	r5, [r4, #0]
 8009360:	f015 0506 	ands.w	r5, r5, #6
 8009364:	d106      	bne.n	8009374 <_printf_common+0x48>
 8009366:	f104 0a19 	add.w	sl, r4, #25
 800936a:	68e3      	ldr	r3, [r4, #12]
 800936c:	6832      	ldr	r2, [r6, #0]
 800936e:	1a9b      	subs	r3, r3, r2
 8009370:	42ab      	cmp	r3, r5
 8009372:	dc26      	bgt.n	80093c2 <_printf_common+0x96>
 8009374:	f894 2043 	ldrb.w	r2, [r4, #67]	; 0x43
 8009378:	1e13      	subs	r3, r2, #0
 800937a:	6822      	ldr	r2, [r4, #0]
 800937c:	bf18      	it	ne
 800937e:	2301      	movne	r3, #1
 8009380:	0692      	lsls	r2, r2, #26
 8009382:	d42b      	bmi.n	80093dc <_printf_common+0xb0>
 8009384:	f104 0243 	add.w	r2, r4, #67	; 0x43
 8009388:	4649      	mov	r1, r9
 800938a:	4638      	mov	r0, r7
 800938c:	47c0      	blx	r8
 800938e:	3001      	adds	r0, #1
 8009390:	d01e      	beq.n	80093d0 <_printf_common+0xa4>
 8009392:	6823      	ldr	r3, [r4, #0]
 8009394:	6922      	ldr	r2, [r4, #16]
 8009396:	f003 0306 	and.w	r3, r3, #6
 800939a:	2b04      	cmp	r3, #4
 800939c:	bf02      	ittt	eq
 800939e:	68e5      	ldreq	r5, [r4, #12]
 80093a0:	6833      	ldreq	r3, [r6, #0]
 80093a2:	1aed      	subeq	r5, r5, r3
 80093a4:	68a3      	ldr	r3, [r4, #8]
 80093a6:	bf0c      	ite	eq
 80093a8:	ea25 75e5 	biceq.w	r5, r5, r5, asr #31
 80093ac:	2500      	movne	r5, #0
 80093ae:	4293      	cmp	r3, r2
 80093b0:	bfc4      	itt	gt
 80093b2:	1a9b      	subgt	r3, r3, r2
 80093b4:	18ed      	addgt	r5, r5, r3
 80093b6:	2600      	movs	r6, #0
 80093b8:	341a      	adds	r4, #26
 80093ba:	42b5      	cmp	r5, r6
 80093bc:	d11a      	bne.n	80093f4 <_printf_common+0xc8>
 80093be:	2000      	movs	r0, #0
 80093c0:	e008      	b.n	80093d4 <_printf_common+0xa8>
 80093c2:	2301      	movs	r3, #1
 80093c4:	4652      	mov	r2, sl
 80093c6:	4649      	mov	r1, r9
 80093c8:	4638      	mov	r0, r7
 80093ca:	47c0      	blx	r8
 80093cc:	3001      	adds	r0, #1
 80093ce:	d103      	bne.n	80093d8 <_printf_common+0xac>
 80093d0:	f04f 30ff 	mov.w	r0, #4294967295
 80093d4:	e8bd 87f0 	ldmia.w	sp!, {r4, r5, r6, r7, r8, r9, sl, pc}
 80093d8:	3501      	adds	r5, #1
 80093da:	e7c6      	b.n	800936a <_printf_common+0x3e>
 80093dc:	18e1      	adds	r1, r4, r3
 80093de:	1c5a      	adds	r2, r3, #1
 80093e0:	2030      	movs	r0, #48	; 0x30
 80093e2:	f881 0043 	strb.w	r0, [r1, #67]	; 0x43
 80093e6:	4422      	add	r2, r4
 80093e8:	f894 1045 	ldrb.w	r1, [r4, #69]	; 0x45
 80093ec:	f882 1043 	strb.w	r1, [r2, #67]	; 0x43
 80093f0:	3302      	adds	r3, #2
 80093f2:	e7c7      	b.n	8009384 <_printf_common+0x58>
 80093f4:	2301      	movs	r3, #1
 80093f6:	4622      	mov	r2, r4
 80093f8:	4649      	mov	r1, r9
 80093fa:	4638      	mov	r0, r7
 80093fc:	47c0      	blx	r8
 80093fe:	3001      	adds	r0, #1
 8009400:	d0e6      	beq.n	80093d0 <_printf_common+0xa4>
 8009402:	3601      	adds	r6, #1
 8009404:	e7d9      	b.n	80093ba <_printf_common+0x8e>
	...

08009408 <_printf_i>:
 8009408:	e92d 47ff 	stmdb	sp!, {r0, r1, r2, r3, r4, r5, r6, r7, r8, r9, sl, lr}
 800940c:	7e0f      	ldrb	r7, [r1, #24]
 800940e:	9d0c      	ldr	r5, [sp, #48]	; 0x30
 8009410:	2f78      	cmp	r7, #120	; 0x78
 8009412:	4691      	mov	r9, r2
 8009414:	4680      	mov	r8, r0
 8009416:	460c      	mov	r4, r1
 8009418:	469a      	mov	sl, r3
 800941a:	f101 0243 	add.w	r2, r1, #67	; 0x43
 800941e:	d807      	bhi.n	8009430 <_printf_i+0x28>
 8009420:	2f62      	cmp	r7, #98	; 0x62
 8009422:	d80a      	bhi.n	800943a <_printf_i+0x32>
 8009424:	2f00      	cmp	r7, #0
 8009426:	f000 80d4 	beq.w	80095d2 <_printf_i+0x1ca>
 800942a:	2f58      	cmp	r7, #88	; 0x58
 800942c:	f000 80c0 	beq.w	80095b0 <_printf_i+0x1a8>
 8009430:	f104 0542 	add.w	r5, r4, #66	; 0x42
 8009434:	f884 7042 	strb.w	r7, [r4, #66]	; 0x42
 8009438:	e03a      	b.n	80094b0 <_printf_i+0xa8>
 800943a:	f1a7 0363 	sub.w	r3, r7, #99	; 0x63
 800943e:	2b15      	cmp	r3, #21
 8009440:	d8f6      	bhi.n	8009430 <_printf_i+0x28>
 8009442:	a101      	add	r1, pc, #4	; (adr r1, 8009448 <_printf_i+0x40>)
 8009444:	f851 f023 	ldr.w	pc, [r1, r3, lsl #2]
 8009448:	080094a1 	.word	0x080094a1
 800944c:	080094b5 	.word	0x080094b5
 8009450:	08009431 	.word	0x08009431
 8009454:	08009431 	.word	0x08009431
 8009458:	08009431 	.word	0x08009431
 800945c:	08009431 	.word	0x08009431
 8009460:	080094b5 	.word	0x080094b5
 8009464:	08009431 	.word	0x08009431
 8009468:	08009431 	.word	0x08009431
 800946c:	08009431 	.word	0x08009431
 8009470:	08009431 	.word	0x08009431
 8009474:	080095b9 	.word	0x080095b9
 8009478:	080094e1 	.word	0x080094e1
 800947c:	08009573 	.word	0x08009573
 8009480:	08009431 	.word	0x08009431
 8009484:	08009431 	.word	0x08009431
 8009488:	080095db 	.word	0x080095db
 800948c:	08009431 	.word	0x08009431
 8009490:	080094e1 	.word	0x080094e1
 8009494:	08009431 	.word	0x08009431
 8009498:	08009431 	.word	0x08009431
 800949c:	0800957b 	.word	0x0800957b
 80094a0:	682b      	ldr	r3, [r5, #0]
 80094a2:	1d1a      	adds	r2, r3, #4
 80094a4:	681b      	ldr	r3, [r3, #0]
 80094a6:	602a      	str	r2, [r5, #0]
 80094a8:	f104 0542 	add.w	r5, r4, #66	; 0x42
 80094ac:	f884 3042 	strb.w	r3, [r4, #66]	; 0x42
 80094b0:	2301      	movs	r3, #1
 80094b2:	e09f      	b.n	80095f4 <_printf_i+0x1ec>
 80094b4:	6820      	ldr	r0, [r4, #0]
 80094b6:	682b      	ldr	r3, [r5, #0]
 80094b8:	0607      	lsls	r7, r0, #24
 80094ba:	f103 0104 	add.w	r1, r3, #4
 80094be:	6029      	str	r1, [r5, #0]
 80094c0:	d501      	bpl.n	80094c6 <_printf_i+0xbe>
 80094c2:	681e      	ldr	r6, [r3, #0]
 80094c4:	e003      	b.n	80094ce <_printf_i+0xc6>
 80094c6:	0646      	lsls	r6, r0, #25
 80094c8:	d5fb      	bpl.n	80094c2 <_printf_i+0xba>
 80094ca:	f9b3 6000 	ldrsh.w	r6, [r3]
 80094ce:	2e00      	cmp	r6, #0
 80094d0:	da03      	bge.n	80094da <_printf_i+0xd2>
 80094d2:	232d      	movs	r3, #45	; 0x2d
 80094d4:	4276      	negs	r6, r6
 80094d6:	f884 3043 	strb.w	r3, [r4, #67]	; 0x43
 80094da:	485a      	ldr	r0, [pc, #360]	; (8009644 <_printf_i+0x23c>)
 80094dc:	230a      	movs	r3, #10
 80094de:	e012      	b.n	8009506 <_printf_i+0xfe>
 80094e0:	682b      	ldr	r3, [r5, #0]
 80094e2:	6820      	ldr	r0, [r4, #0]
 80094e4:	1d19      	adds	r1, r3, #4
 80094e6:	6029      	str	r1, [r5, #0]
 80094e8:	0605      	lsls	r5, r0, #24
 80094ea:	d501      	bpl.n	80094f0 <_printf_i+0xe8>
 80094ec:	681e      	ldr	r6, [r3, #0]
 80094ee:	e002      	b.n	80094f6 <_printf_i+0xee>
 80094f0:	0641      	lsls	r1, r0, #25
 80094f2:	d5fb      	bpl.n	80094ec <_printf_i+0xe4>
 80094f4:	881e      	ldrh	r6, [r3, #0]
 80094f6:	4853      	ldr	r0, [pc, #332]	; (8009644 <_printf_i+0x23c>)
 80094f8:	2f6f      	cmp	r7, #111	; 0x6f
 80094fa:	bf0c      	ite	eq
 80094fc:	2308      	moveq	r3, #8
 80094fe:	230a      	movne	r3, #10
 8009500:	2100      	movs	r1, #0
 8009502:	f884 1043 	strb.w	r1, [r4, #67]	; 0x43
 8009506:	6865      	ldr	r5, [r4, #4]
 8009508:	60a5      	str	r5, [r4, #8]
 800950a:	2d00      	cmp	r5, #0
 800950c:	bfa2      	ittt	ge
 800950e:	6821      	ldrge	r1, [r4, #0]
 8009510:	f021 0104 	bicge.w	r1, r1, #4
 8009514:	6021      	strge	r1, [r4, #0]
 8009516:	b90e      	cbnz	r6, 800951c <_printf_i+0x114>
 8009518:	2d00      	cmp	r5, #0
 800951a:	d04b      	beq.n	80095b4 <_printf_i+0x1ac>
 800951c:	4615      	mov	r5, r2
 800951e:	fbb6 f1f3 	udiv	r1, r6, r3
 8009522:	fb03 6711 	mls	r7, r3, r1, r6
 8009526:	5dc7      	ldrb	r7, [r0, r7]
 8009528:	f805 7d01 	strb.w	r7, [r5, #-1]!
 800952c:	4637      	mov	r7, r6
 800952e:	42bb      	cmp	r3, r7
 8009530:	460e      	mov	r6, r1
 8009532:	d9f4      	bls.n	800951e <_printf_i+0x116>
 8009534:	2b08      	cmp	r3, #8
 8009536:	d10b      	bne.n	8009550 <_printf_i+0x148>
 8009538:	6823      	ldr	r3, [r4, #0]
 800953a:	07de      	lsls	r6, r3, #31
 800953c:	d508      	bpl.n	8009550 <_printf_i+0x148>
 800953e:	6923      	ldr	r3, [r4, #16]
 8009540:	6861      	ldr	r1, [r4, #4]
 8009542:	4299      	cmp	r1, r3
 8009544:	bfde      	ittt	le
 8009546:	2330      	movle	r3, #48	; 0x30
 8009548:	f805 3c01 	strble.w	r3, [r5, #-1]
 800954c:	f105 35ff 	addle.w	r5, r5, #4294967295
 8009550:	1b52      	subs	r2, r2, r5
 8009552:	6122      	str	r2, [r4, #16]
 8009554:	f8cd a000 	str.w	sl, [sp]
 8009558:	464b      	mov	r3, r9
 800955a:	aa03      	add	r2, sp, #12
 800955c:	4621      	mov	r1, r4
 800955e:	4640      	mov	r0, r8
 8009560:	f7ff fee4 	bl	800932c <_printf_common>
 8009564:	3001      	adds	r0, #1
 8009566:	d14a      	bne.n	80095fe <_printf_i+0x1f6>
 8009568:	f04f 30ff 	mov.w	r0, #4294967295
 800956c:	b004      	add	sp, #16
 800956e:	e8bd 87f0 	ldmia.w	sp!, {r4, r5, r6, r7, r8, r9, sl, pc}
 8009572:	6823      	ldr	r3, [r4, #0]
 8009574:	f043 0320 	orr.w	r3, r3, #32
 8009578:	6023      	str	r3, [r4, #0]
 800957a:	4833      	ldr	r0, [pc, #204]	; (8009648 <_printf_i+0x240>)
 800957c:	2778      	movs	r7, #120	; 0x78
 800957e:	f884 7045 	strb.w	r7, [r4, #69]	; 0x45
 8009582:	6823      	ldr	r3, [r4, #0]
 8009584:	6829      	ldr	r1, [r5, #0]
 8009586:	061f      	lsls	r7, r3, #24
 8009588:	f851 6b04 	ldr.w	r6, [r1], #4
 800958c:	d402      	bmi.n	8009594 <_printf_i+0x18c>
 800958e:	065f      	lsls	r7, r3, #25
 8009590:	bf48      	it	mi
 8009592:	b2b6      	uxthmi	r6, r6
 8009594:	07df      	lsls	r7, r3, #31
 8009596:	bf48      	it	mi
 8009598:	f043 0320 	orrmi.w	r3, r3, #32
 800959c:	6029      	str	r1, [r5, #0]
 800959e:	bf48      	it	mi
 80095a0:	6023      	strmi	r3, [r4, #0]
 80095a2:	b91e      	cbnz	r6, 80095ac <_printf_i+0x1a4>
 80095a4:	6823      	ldr	r3, [r4, #0]
 80095a6:	f023 0320 	bic.w	r3, r3, #32
 80095aa:	6023      	str	r3, [r4, #0]
 80095ac:	2310      	movs	r3, #16
 80095ae:	e7a7      	b.n	8009500 <_printf_i+0xf8>
 80095b0:	4824      	ldr	r0, [pc, #144]	; (8009644 <_printf_i+0x23c>)
 80095b2:	e7e4      	b.n	800957e <_printf_i+0x176>
 80095b4:	4615      	mov	r5, r2
 80095b6:	e7bd      	b.n	8009534 <_printf_i+0x12c>
 80095b8:	682b      	ldr	r3, [r5, #0]
 80095ba:	6826      	ldr	r6, [r4, #0]
 80095bc:	6961      	ldr	r1, [r4, #20]
 80095be:	1d18      	adds	r0, r3, #4
 80095c0:	6028      	str	r0, [r5, #0]
 80095c2:	0635      	lsls	r5, r6, #24
 80095c4:	681b      	ldr	r3, [r3, #0]
 80095c6:	d501      	bpl.n	80095cc <_printf_i+0x1c4>
 80095c8:	6019      	str	r1, [r3, #0]
 80095ca:	e002      	b.n	80095d2 <_printf_i+0x1ca>
 80095cc:	0670      	lsls	r0, r6, #25
 80095ce:	d5fb      	bpl.n	80095c8 <_printf_i+0x1c0>
 80095d0:	8019      	strh	r1, [r3, #0]
 80095d2:	2300      	movs	r3, #0
 80095d4:	6123      	str	r3, [r4, #16]
 80095d6:	4615      	mov	r5, r2
 80095d8:	e7bc      	b.n	8009554 <_printf_i+0x14c>
 80095da:	682b      	ldr	r3, [r5, #0]
 80095dc:	1d1a      	adds	r2, r3, #4
 80095de:	602a      	str	r2, [r5, #0]
 80095e0:	681d      	ldr	r5, [r3, #0]
 80095e2:	6862      	ldr	r2, [r4, #4]
 80095e4:	2100      	movs	r1, #0
 80095e6:	4628      	mov	r0, r5
 80095e8:	f7f6 fdfa 	bl	80001e0 <memchr>
 80095ec:	b108      	cbz	r0, 80095f2 <_printf_i+0x1ea>
 80095ee:	1b40      	subs	r0, r0, r5
 80095f0:	6060      	str	r0, [r4, #4]
 80095f2:	6863      	ldr	r3, [r4, #4]
 80095f4:	6123      	str	r3, [r4, #16]
 80095f6:	2300      	movs	r3, #0
 80095f8:	f884 3043 	strb.w	r3, [r4, #67]	; 0x43
 80095fc:	e7aa      	b.n	8009554 <_printf_i+0x14c>
 80095fe:	6923      	ldr	r3, [r4, #16]
 8009600:	462a      	mov	r2, r5
 8009602:	4649      	mov	r1, r9
 8009604:	4640      	mov	r0, r8
 8009606:	47d0      	blx	sl
 8009608:	3001      	adds	r0, #1
 800960a:	d0ad      	beq.n	8009568 <_printf_i+0x160>
 800960c:	6823      	ldr	r3, [r4, #0]
 800960e:	079b      	lsls	r3, r3, #30
 8009610:	d413      	bmi.n	800963a <_printf_i+0x232>
 8009612:	68e0      	ldr	r0, [r4, #12]
 8009614:	9b03      	ldr	r3, [sp, #12]
 8009616:	4298      	cmp	r0, r3
 8009618:	bfb8      	it	lt
 800961a:	4618      	movlt	r0, r3
 800961c:	e7a6      	b.n	800956c <_printf_i+0x164>
 800961e:	2301      	movs	r3, #1
 8009620:	4632      	mov	r2, r6
 8009622:	4649      	mov	r1, r9
 8009624:	4640      	mov	r0, r8
 8009626:	47d0      	blx	sl
 8009628:	3001      	adds	r0, #1
 800962a:	d09d      	beq.n	8009568 <_printf_i+0x160>
 800962c:	3501      	adds	r5, #1
 800962e:	68e3      	ldr	r3, [r4, #12]
 8009630:	9903      	ldr	r1, [sp, #12]
 8009632:	1a5b      	subs	r3, r3, r1
 8009634:	42ab      	cmp	r3, r5
 8009636:	dcf2      	bgt.n	800961e <_printf_i+0x216>
 8009638:	e7eb      	b.n	8009612 <_printf_i+0x20a>
 800963a:	2500      	movs	r5, #0
 800963c:	f104 0619 	add.w	r6, r4, #25
 8009640:	e7f5      	b.n	800962e <_printf_i+0x226>
 8009642:	bf00      	nop
 8009644:	0800ba5e 	.word	0x0800ba5e
 8009648:	0800ba6f 	.word	0x0800ba6f

0800964c <__sflush_r>:
 800964c:	898a      	ldrh	r2, [r1, #12]
 800964e:	e92d 41f0 	stmdb	sp!, {r4, r5, r6, r7, r8, lr}
 8009652:	4605      	mov	r5, r0
 8009654:	0710      	lsls	r0, r2, #28
 8009656:	460c      	mov	r4, r1
 8009658:	d458      	bmi.n	800970c <__sflush_r+0xc0>
 800965a:	684b      	ldr	r3, [r1, #4]
 800965c:	2b00      	cmp	r3, #0
 800965e:	dc05      	bgt.n	800966c <__sflush_r+0x20>
 8009660:	6c0b      	ldr	r3, [r1, #64]	; 0x40
 8009662:	2b00      	cmp	r3, #0
 8009664:	dc02      	bgt.n	800966c <__sflush_r+0x20>
 8009666:	2000      	movs	r0, #0
 8009668:	e8bd 81f0 	ldmia.w	sp!, {r4, r5, r6, r7, r8, pc}
 800966c:	6ae6      	ldr	r6, [r4, #44]	; 0x2c
 800966e:	2e00      	cmp	r6, #0
 8009670:	d0f9      	beq.n	8009666 <__sflush_r+0x1a>
 8009672:	2300      	movs	r3, #0
 8009674:	f412 5280 	ands.w	r2, r2, #4096	; 0x1000
 8009678:	682f      	ldr	r7, [r5, #0]
 800967a:	6a21      	ldr	r1, [r4, #32]
 800967c:	602b      	str	r3, [r5, #0]
 800967e:	d032      	beq.n	80096e6 <__sflush_r+0x9a>
 8009680:	6d60      	ldr	r0, [r4, #84]	; 0x54
 8009682:	89a3      	ldrh	r3, [r4, #12]
 8009684:	075a      	lsls	r2, r3, #29
 8009686:	d505      	bpl.n	8009694 <__sflush_r+0x48>
 8009688:	6863      	ldr	r3, [r4, #4]
 800968a:	1ac0      	subs	r0, r0, r3
 800968c:	6b63      	ldr	r3, [r4, #52]	; 0x34
 800968e:	b10b      	cbz	r3, 8009694 <__sflush_r+0x48>
 8009690:	6c23      	ldr	r3, [r4, #64]	; 0x40
 8009692:	1ac0      	subs	r0, r0, r3
 8009694:	2300      	movs	r3, #0
 8009696:	4602      	mov	r2, r0
 8009698:	6ae6      	ldr	r6, [r4, #44]	; 0x2c
 800969a:	6a21      	ldr	r1, [r4, #32]
 800969c:	4628      	mov	r0, r5
 800969e:	47b0      	blx	r6
 80096a0:	1c43      	adds	r3, r0, #1
 80096a2:	89a3      	ldrh	r3, [r4, #12]
 80096a4:	d106      	bne.n	80096b4 <__sflush_r+0x68>
 80096a6:	6829      	ldr	r1, [r5, #0]
 80096a8:	291d      	cmp	r1, #29
 80096aa:	d82b      	bhi.n	8009704 <__sflush_r+0xb8>
 80096ac:	4a29      	ldr	r2, [pc, #164]	; (8009754 <__sflush_r+0x108>)
 80096ae:	410a      	asrs	r2, r1
 80096b0:	07d6      	lsls	r6, r2, #31
 80096b2:	d427      	bmi.n	8009704 <__sflush_r+0xb8>
 80096b4:	2200      	movs	r2, #0
 80096b6:	6062      	str	r2, [r4, #4]
 80096b8:	04d9      	lsls	r1, r3, #19
 80096ba:	6922      	ldr	r2, [r4, #16]
 80096bc:	6022      	str	r2, [r4, #0]
 80096be:	d504      	bpl.n	80096ca <__sflush_r+0x7e>
 80096c0:	1c42      	adds	r2, r0, #1
 80096c2:	d101      	bne.n	80096c8 <__sflush_r+0x7c>
 80096c4:	682b      	ldr	r3, [r5, #0]
 80096c6:	b903      	cbnz	r3, 80096ca <__sflush_r+0x7e>
 80096c8:	6560      	str	r0, [r4, #84]	; 0x54
 80096ca:	6b61      	ldr	r1, [r4, #52]	; 0x34
 80096cc:	602f      	str	r7, [r5, #0]
 80096ce:	2900      	cmp	r1, #0
 80096d0:	d0c9      	beq.n	8009666 <__sflush_r+0x1a>
 80096d2:	f104 0344 	add.w	r3, r4, #68	; 0x44
 80096d6:	4299      	cmp	r1, r3
 80096d8:	d002      	beq.n	80096e0 <__sflush_r+0x94>
 80096da:	4628      	mov	r0, r5
 80096dc:	f7ff fbe2 	bl	8008ea4 <_free_r>
 80096e0:	2000      	movs	r0, #0
 80096e2:	6360      	str	r0, [r4, #52]	; 0x34
 80096e4:	e7c0      	b.n	8009668 <__sflush_r+0x1c>
 80096e6:	2301      	movs	r3, #1
 80096e8:	4628      	mov	r0, r5
 80096ea:	47b0      	blx	r6
 80096ec:	1c41      	adds	r1, r0, #1
 80096ee:	d1c8      	bne.n	8009682 <__sflush_r+0x36>
 80096f0:	682b      	ldr	r3, [r5, #0]
 80096f2:	2b00      	cmp	r3, #0
 80096f4:	d0c5      	beq.n	8009682 <__sflush_r+0x36>
 80096f6:	2b1d      	cmp	r3, #29
 80096f8:	d001      	beq.n	80096fe <__sflush_r+0xb2>
 80096fa:	2b16      	cmp	r3, #22
 80096fc:	d101      	bne.n	8009702 <__sflush_r+0xb6>
 80096fe:	602f      	str	r7, [r5, #0]
 8009700:	e7b1      	b.n	8009666 <__sflush_r+0x1a>
 8009702:	89a3      	ldrh	r3, [r4, #12]
 8009704:	f043 0340 	orr.w	r3, r3, #64	; 0x40
 8009708:	81a3      	strh	r3, [r4, #12]
 800970a:	e7ad      	b.n	8009668 <__sflush_r+0x1c>
 800970c:	690f      	ldr	r7, [r1, #16]
 800970e:	2f00      	cmp	r7, #0
 8009710:	d0a9      	beq.n	8009666 <__sflush_r+0x1a>
 8009712:	0793      	lsls	r3, r2, #30
 8009714:	680e      	ldr	r6, [r1, #0]
 8009716:	bf08      	it	eq
 8009718:	694b      	ldreq	r3, [r1, #20]
 800971a:	600f      	str	r7, [r1, #0]
 800971c:	bf18      	it	ne
 800971e:	2300      	movne	r3, #0
 8009720:	eba6 0807 	sub.w	r8, r6, r7
 8009724:	608b      	str	r3, [r1, #8]
 8009726:	f1b8 0f00 	cmp.w	r8, #0
 800972a:	dd9c      	ble.n	8009666 <__sflush_r+0x1a>
 800972c:	6a21      	ldr	r1, [r4, #32]
 800972e:	6aa6      	ldr	r6, [r4, #40]	; 0x28
 8009730:	4643      	mov	r3, r8
 8009732:	463a      	mov	r2, r7
 8009734:	4628      	mov	r0, r5
 8009736:	47b0      	blx	r6
 8009738:	2800      	cmp	r0, #0
 800973a:	dc06      	bgt.n	800974a <__sflush_r+0xfe>
 800973c:	89a3      	ldrh	r3, [r4, #12]
 800973e:	f043 0340 	orr.w	r3, r3, #64	; 0x40
 8009742:	81a3      	strh	r3, [r4, #12]
 8009744:	f04f 30ff 	mov.w	r0, #4294967295
 8009748:	e78e      	b.n	8009668 <__sflush_r+0x1c>
 800974a:	4407      	add	r7, r0
 800974c:	eba8 0800 	sub.w	r8, r8, r0
 8009750:	e7e9      	b.n	8009726 <__sflush_r+0xda>
 8009752:	bf00      	nop
 8009754:	dfbffffe 	.word	0xdfbffffe

08009758 <_fflush_r>:
 8009758:	b538      	push	{r3, r4, r5, lr}
 800975a:	690b      	ldr	r3, [r1, #16]
 800975c:	4605      	mov	r5, r0
 800975e:	460c      	mov	r4, r1
 8009760:	b913      	cbnz	r3, 8009768 <_fflush_r+0x10>
 8009762:	2500      	movs	r5, #0
 8009764:	4628      	mov	r0, r5
 8009766:	bd38      	pop	{r3, r4, r5, pc}
 8009768:	b118      	cbz	r0, 8009772 <_fflush_r+0x1a>
 800976a:	6a03      	ldr	r3, [r0, #32]
 800976c:	b90b      	cbnz	r3, 8009772 <_fflush_r+0x1a>
 800976e:	f7ff fa5b 	bl	8008c28 <__sinit>
 8009772:	f9b4 300c 	ldrsh.w	r3, [r4, #12]
 8009776:	2b00      	cmp	r3, #0
 8009778:	d0f3      	beq.n	8009762 <_fflush_r+0xa>
 800977a:	6e62      	ldr	r2, [r4, #100]	; 0x64
 800977c:	07d0      	lsls	r0, r2, #31
 800977e:	d404      	bmi.n	800978a <_fflush_r+0x32>
 8009780:	0599      	lsls	r1, r3, #22
 8009782:	d402      	bmi.n	800978a <_fflush_r+0x32>
 8009784:	6da0      	ldr	r0, [r4, #88]	; 0x58
 8009786:	f7ff fb5e 	bl	8008e46 <__retarget_lock_acquire_recursive>
 800978a:	4628      	mov	r0, r5
 800978c:	4621      	mov	r1, r4
 800978e:	f7ff ff5d 	bl	800964c <__sflush_r>
 8009792:	6e63      	ldr	r3, [r4, #100]	; 0x64
 8009794:	07da      	lsls	r2, r3, #31
 8009796:	4605      	mov	r5, r0
 8009798:	d4e4      	bmi.n	8009764 <_fflush_r+0xc>
 800979a:	89a3      	ldrh	r3, [r4, #12]
 800979c:	059b      	lsls	r3, r3, #22
 800979e:	d4e1      	bmi.n	8009764 <_fflush_r+0xc>
 80097a0:	6da0      	ldr	r0, [r4, #88]	; 0x58
 80097a2:	f7ff fb51 	bl	8008e48 <__retarget_lock_release_recursive>
 80097a6:	e7dd      	b.n	8009764 <_fflush_r+0xc>

080097a8 <fiprintf>:
 80097a8:	b40e      	push	{r1, r2, r3}
 80097aa:	b503      	push	{r0, r1, lr}
 80097ac:	4601      	mov	r1, r0
 80097ae:	ab03      	add	r3, sp, #12
 80097b0:	4805      	ldr	r0, [pc, #20]	; (80097c8 <fiprintf+0x20>)
 80097b2:	f853 2b04 	ldr.w	r2, [r3], #4
 80097b6:	6800      	ldr	r0, [r0, #0]
 80097b8:	9301      	str	r3, [sp, #4]
 80097ba:	f7ff fc9d 	bl	80090f8 <_vfiprintf_r>
 80097be:	b002      	add	sp, #8
 80097c0:	f85d eb04 	ldr.w	lr, [sp], #4
 80097c4:	b003      	add	sp, #12
 80097c6:	4770      	bx	lr
 80097c8:	20000080 	.word	0x20000080

080097cc <__swbuf_r>:
 80097cc:	b5f8      	push	{r3, r4, r5, r6, r7, lr}
 80097ce:	460e      	mov	r6, r1
 80097d0:	4614      	mov	r4, r2
 80097d2:	4605      	mov	r5, r0
 80097d4:	b118      	cbz	r0, 80097de <__swbuf_r+0x12>
 80097d6:	6a03      	ldr	r3, [r0, #32]
 80097d8:	b90b      	cbnz	r3, 80097de <__swbuf_r+0x12>
 80097da:	f7ff fa25 	bl	8008c28 <__sinit>
 80097de:	69a3      	ldr	r3, [r4, #24]
 80097e0:	60a3      	str	r3, [r4, #8]
 80097e2:	89a3      	ldrh	r3, [r4, #12]
 80097e4:	071a      	lsls	r2, r3, #28
 80097e6:	d525      	bpl.n	8009834 <__swbuf_r+0x68>
 80097e8:	6923      	ldr	r3, [r4, #16]
 80097ea:	b31b      	cbz	r3, 8009834 <__swbuf_r+0x68>
 80097ec:	6823      	ldr	r3, [r4, #0]
 80097ee:	6922      	ldr	r2, [r4, #16]
 80097f0:	1a98      	subs	r0, r3, r2
 80097f2:	6963      	ldr	r3, [r4, #20]
 80097f4:	b2f6      	uxtb	r6, r6
 80097f6:	4283      	cmp	r3, r0
 80097f8:	4637      	mov	r7, r6
 80097fa:	dc04      	bgt.n	8009806 <__swbuf_r+0x3a>
 80097fc:	4621      	mov	r1, r4
 80097fe:	4628      	mov	r0, r5
 8009800:	f7ff ffaa 	bl	8009758 <_fflush_r>
 8009804:	b9e0      	cbnz	r0, 8009840 <__swbuf_r+0x74>
 8009806:	68a3      	ldr	r3, [r4, #8]
 8009808:	3b01      	subs	r3, #1
 800980a:	60a3      	str	r3, [r4, #8]
 800980c:	6823      	ldr	r3, [r4, #0]
 800980e:	1c5a      	adds	r2, r3, #1
 8009810:	6022      	str	r2, [r4, #0]
 8009812:	701e      	strb	r6, [r3, #0]
 8009814:	6962      	ldr	r2, [r4, #20]
 8009816:	1c43      	adds	r3, r0, #1
 8009818:	429a      	cmp	r2, r3
 800981a:	d004      	beq.n	8009826 <__swbuf_r+0x5a>
 800981c:	89a3      	ldrh	r3, [r4, #12]
 800981e:	07db      	lsls	r3, r3, #31
 8009820:	d506      	bpl.n	8009830 <__swbuf_r+0x64>
 8009822:	2e0a      	cmp	r6, #10
 8009824:	d104      	bne.n	8009830 <__swbuf_r+0x64>
 8009826:	4621      	mov	r1, r4
 8009828:	4628      	mov	r0, r5
 800982a:	f7ff ff95 	bl	8009758 <_fflush_r>
 800982e:	b938      	cbnz	r0, 8009840 <__swbuf_r+0x74>
 8009830:	4638      	mov	r0, r7
 8009832:	bdf8      	pop	{r3, r4, r5, r6, r7, pc}
 8009834:	4621      	mov	r1, r4
 8009836:	4628      	mov	r0, r5
 8009838:	f000 f806 	bl	8009848 <__swsetup_r>
 800983c:	2800      	cmp	r0, #0
 800983e:	d0d5      	beq.n	80097ec <__swbuf_r+0x20>
 8009840:	f04f 37ff 	mov.w	r7, #4294967295
 8009844:	e7f4      	b.n	8009830 <__swbuf_r+0x64>
	...

08009848 <__swsetup_r>:
 8009848:	b538      	push	{r3, r4, r5, lr}
 800984a:	4b2a      	ldr	r3, [pc, #168]	; (80098f4 <__swsetup_r+0xac>)
 800984c:	4605      	mov	r5, r0
 800984e:	6818      	ldr	r0, [r3, #0]
 8009850:	460c      	mov	r4, r1
 8009852:	b118      	cbz	r0, 800985c <__swsetup_r+0x14>
 8009854:	6a03      	ldr	r3, [r0, #32]
 8009856:	b90b      	cbnz	r3, 800985c <__swsetup_r+0x14>
 8009858:	f7ff f9e6 	bl	8008c28 <__sinit>
 800985c:	89a3      	ldrh	r3, [r4, #12]
 800985e:	f9b4 200c 	ldrsh.w	r2, [r4, #12]
 8009862:	0718      	lsls	r0, r3, #28
 8009864:	d422      	bmi.n	80098ac <__swsetup_r+0x64>
 8009866:	06d9      	lsls	r1, r3, #27
 8009868:	d407      	bmi.n	800987a <__swsetup_r+0x32>
 800986a:	2309      	movs	r3, #9
 800986c:	602b      	str	r3, [r5, #0]
 800986e:	f042 0340 	orr.w	r3, r2, #64	; 0x40
 8009872:	81a3      	strh	r3, [r4, #12]
 8009874:	f04f 30ff 	mov.w	r0, #4294967295
 8009878:	e034      	b.n	80098e4 <__swsetup_r+0x9c>
 800987a:	0758      	lsls	r0, r3, #29
 800987c:	d512      	bpl.n	80098a4 <__swsetup_r+0x5c>
 800987e:	6b61      	ldr	r1, [r4, #52]	; 0x34
 8009880:	b141      	cbz	r1, 8009894 <__swsetup_r+0x4c>
 8009882:	f104 0344 	add.w	r3, r4, #68	; 0x44
 8009886:	4299      	cmp	r1, r3
 8009888:	d002      	beq.n	8009890 <__swsetup_r+0x48>
 800988a:	4628      	mov	r0, r5
 800988c:	f7ff fb0a 	bl	8008ea4 <_free_r>
 8009890:	2300      	movs	r3, #0
 8009892:	6363      	str	r3, [r4, #52]	; 0x34
 8009894:	89a3      	ldrh	r3, [r4, #12]
 8009896:	f023 0324 	bic.w	r3, r3, #36	; 0x24
 800989a:	81a3      	strh	r3, [r4, #12]
 800989c:	2300      	movs	r3, #0
 800989e:	6063      	str	r3, [r4, #4]
 80098a0:	6923      	ldr	r3, [r4, #16]
 80098a2:	6023      	str	r3, [r4, #0]
 80098a4:	89a3      	ldrh	r3, [r4, #12]
 80098a6:	f043 0308 	orr.w	r3, r3, #8
 80098aa:	81a3      	strh	r3, [r4, #12]
 80098ac:	6923      	ldr	r3, [r4, #16]
 80098ae:	b94b      	cbnz	r3, 80098c4 <__swsetup_r+0x7c>
 80098b0:	89a3      	ldrh	r3, [r4, #12]
 80098b2:	f403 7320 	and.w	r3, r3, #640	; 0x280
 80098b6:	f5b3 7f00 	cmp.w	r3, #512	; 0x200
 80098ba:	d003      	beq.n	80098c4 <__swsetup_r+0x7c>
 80098bc:	4621      	mov	r1, r4
 80098be:	4628      	mov	r0, r5
 80098c0:	f000 f857 	bl	8009972 <__smakebuf_r>
 80098c4:	89a0      	ldrh	r0, [r4, #12]
 80098c6:	f9b4 200c 	ldrsh.w	r2, [r4, #12]
 80098ca:	f010 0301 	ands.w	r3, r0, #1
 80098ce:	d00a      	beq.n	80098e6 <__swsetup_r+0x9e>
 80098d0:	2300      	movs	r3, #0
 80098d2:	60a3      	str	r3, [r4, #8]
 80098d4:	6963      	ldr	r3, [r4, #20]
 80098d6:	425b      	negs	r3, r3
 80098d8:	61a3      	str	r3, [r4, #24]
 80098da:	6923      	ldr	r3, [r4, #16]
 80098dc:	b943      	cbnz	r3, 80098f0 <__swsetup_r+0xa8>
 80098de:	f010 0080 	ands.w	r0, r0, #128	; 0x80
 80098e2:	d1c4      	bne.n	800986e <__swsetup_r+0x26>
 80098e4:	bd38      	pop	{r3, r4, r5, pc}
 80098e6:	0781      	lsls	r1, r0, #30
 80098e8:	bf58      	it	pl
 80098ea:	6963      	ldrpl	r3, [r4, #20]
 80098ec:	60a3      	str	r3, [r4, #8]
 80098ee:	e7f4      	b.n	80098da <__swsetup_r+0x92>
 80098f0:	2000      	movs	r0, #0
 80098f2:	e7f7      	b.n	80098e4 <__swsetup_r+0x9c>
 80098f4:	20000080 	.word	0x20000080

080098f8 <_sbrk_r>:
 80098f8:	b538      	push	{r3, r4, r5, lr}
 80098fa:	4d06      	ldr	r5, [pc, #24]	; (8009914 <_sbrk_r+0x1c>)
 80098fc:	2300      	movs	r3, #0
 80098fe:	4604      	mov	r4, r0
 8009900:	4608      	mov	r0, r1
 8009902:	602b      	str	r3, [r5, #0]
 8009904:	f7f6 ffe6 	bl	80008d4 <_sbrk>
 8009908:	1c43      	adds	r3, r0, #1
 800990a:	d102      	bne.n	8009912 <_sbrk_r+0x1a>
 800990c:	682b      	ldr	r3, [r5, #0]
 800990e:	b103      	cbz	r3, 8009912 <_sbrk_r+0x1a>
 8009910:	6023      	str	r3, [r4, #0]
 8009912:	bd38      	pop	{r3, r4, r5, pc}
 8009914:	20008534 	.word	0x20008534

08009918 <abort>:
 8009918:	b508      	push	{r3, lr}
 800991a:	2006      	movs	r0, #6
 800991c:	f000 f88e 	bl	8009a3c <raise>
 8009920:	2001      	movs	r0, #1
 8009922:	f7f6 ffa9 	bl	8000878 <_exit>

08009926 <__swhatbuf_r>:
 8009926:	b570      	push	{r4, r5, r6, lr}
 8009928:	460c      	mov	r4, r1
 800992a:	f9b1 100e 	ldrsh.w	r1, [r1, #14]
 800992e:	2900      	cmp	r1, #0
 8009930:	b096      	sub	sp, #88	; 0x58
 8009932:	4615      	mov	r5, r2
 8009934:	461e      	mov	r6, r3
 8009936:	da0d      	bge.n	8009954 <__swhatbuf_r+0x2e>
 8009938:	89a3      	ldrh	r3, [r4, #12]
 800993a:	f013 0f80 	tst.w	r3, #128	; 0x80
 800993e:	f04f 0100 	mov.w	r1, #0
 8009942:	bf0c      	ite	eq
 8009944:	f44f 6380 	moveq.w	r3, #1024	; 0x400
 8009948:	2340      	movne	r3, #64	; 0x40
 800994a:	2000      	movs	r0, #0
 800994c:	6031      	str	r1, [r6, #0]
 800994e:	602b      	str	r3, [r5, #0]
 8009950:	b016      	add	sp, #88	; 0x58
 8009952:	bd70      	pop	{r4, r5, r6, pc}
 8009954:	466a      	mov	r2, sp
 8009956:	f000 f879 	bl	8009a4c <_fstat_r>
 800995a:	2800      	cmp	r0, #0
 800995c:	dbec      	blt.n	8009938 <__swhatbuf_r+0x12>
 800995e:	9901      	ldr	r1, [sp, #4]
 8009960:	f401 4170 	and.w	r1, r1, #61440	; 0xf000
 8009964:	f5a1 5300 	sub.w	r3, r1, #8192	; 0x2000
 8009968:	4259      	negs	r1, r3
 800996a:	4159      	adcs	r1, r3
 800996c:	f44f 6380 	mov.w	r3, #1024	; 0x400
 8009970:	e7eb      	b.n	800994a <__swhatbuf_r+0x24>

08009972 <__smakebuf_r>:
 8009972:	898b      	ldrh	r3, [r1, #12]
 8009974:	b573      	push	{r0, r1, r4, r5, r6, lr}
 8009976:	079d      	lsls	r5, r3, #30
 8009978:	4606      	mov	r6, r0
 800997a:	460c      	mov	r4, r1
 800997c:	d507      	bpl.n	800998e <__smakebuf_r+0x1c>
 800997e:	f104 0347 	add.w	r3, r4, #71	; 0x47
 8009982:	6023      	str	r3, [r4, #0]
 8009984:	6123      	str	r3, [r4, #16]
 8009986:	2301      	movs	r3, #1
 8009988:	6163      	str	r3, [r4, #20]
 800998a:	b002      	add	sp, #8
 800998c:	bd70      	pop	{r4, r5, r6, pc}
 800998e:	ab01      	add	r3, sp, #4
 8009990:	466a      	mov	r2, sp
 8009992:	f7ff ffc8 	bl	8009926 <__swhatbuf_r>
 8009996:	9900      	ldr	r1, [sp, #0]
 8009998:	4605      	mov	r5, r0
 800999a:	4630      	mov	r0, r6
 800999c:	f7ff faf6 	bl	8008f8c <_malloc_r>
 80099a0:	b948      	cbnz	r0, 80099b6 <__smakebuf_r+0x44>
 80099a2:	f9b4 300c 	ldrsh.w	r3, [r4, #12]
 80099a6:	059a      	lsls	r2, r3, #22
 80099a8:	d4ef      	bmi.n	800998a <__smakebuf_r+0x18>
 80099aa:	f023 0303 	bic.w	r3, r3, #3
 80099ae:	f043 0302 	orr.w	r3, r3, #2
 80099b2:	81a3      	strh	r3, [r4, #12]
 80099b4:	e7e3      	b.n	800997e <__smakebuf_r+0xc>
 80099b6:	89a3      	ldrh	r3, [r4, #12]
 80099b8:	6020      	str	r0, [r4, #0]
 80099ba:	f043 0380 	orr.w	r3, r3, #128	; 0x80
 80099be:	81a3      	strh	r3, [r4, #12]
 80099c0:	9b00      	ldr	r3, [sp, #0]
 80099c2:	6163      	str	r3, [r4, #20]
 80099c4:	9b01      	ldr	r3, [sp, #4]
 80099c6:	6120      	str	r0, [r4, #16]
 80099c8:	b15b      	cbz	r3, 80099e2 <__smakebuf_r+0x70>
 80099ca:	f9b4 100e 	ldrsh.w	r1, [r4, #14]
 80099ce:	4630      	mov	r0, r6
 80099d0:	f000 f84e 	bl	8009a70 <_isatty_r>
 80099d4:	b128      	cbz	r0, 80099e2 <__smakebuf_r+0x70>
 80099d6:	89a3      	ldrh	r3, [r4, #12]
 80099d8:	f023 0303 	bic.w	r3, r3, #3
 80099dc:	f043 0301 	orr.w	r3, r3, #1
 80099e0:	81a3      	strh	r3, [r4, #12]
 80099e2:	89a3      	ldrh	r3, [r4, #12]
 80099e4:	431d      	orrs	r5, r3
 80099e6:	81a5      	strh	r5, [r4, #12]
 80099e8:	e7cf      	b.n	800998a <__smakebuf_r+0x18>

080099ea <_raise_r>:
 80099ea:	291f      	cmp	r1, #31
 80099ec:	b538      	push	{r3, r4, r5, lr}
 80099ee:	4604      	mov	r4, r0
 80099f0:	460d      	mov	r5, r1
 80099f2:	d904      	bls.n	80099fe <_raise_r+0x14>
 80099f4:	2316      	movs	r3, #22
 80099f6:	6003      	str	r3, [r0, #0]
 80099f8:	f04f 30ff 	mov.w	r0, #4294967295
 80099fc:	bd38      	pop	{r3, r4, r5, pc}
 80099fe:	6bc2      	ldr	r2, [r0, #60]	; 0x3c
 8009a00:	b112      	cbz	r2, 8009a08 <_raise_r+0x1e>
 8009a02:	f852 3021 	ldr.w	r3, [r2, r1, lsl #2]
 8009a06:	b94b      	cbnz	r3, 8009a1c <_raise_r+0x32>
 8009a08:	4620      	mov	r0, r4
 8009a0a:	f000 f853 	bl	8009ab4 <_getpid_r>
 8009a0e:	462a      	mov	r2, r5
 8009a10:	4601      	mov	r1, r0
 8009a12:	4620      	mov	r0, r4
 8009a14:	e8bd 4038 	ldmia.w	sp!, {r3, r4, r5, lr}
 8009a18:	f000 b83a 	b.w	8009a90 <_kill_r>
 8009a1c:	2b01      	cmp	r3, #1
 8009a1e:	d00a      	beq.n	8009a36 <_raise_r+0x4c>
 8009a20:	1c59      	adds	r1, r3, #1
 8009a22:	d103      	bne.n	8009a2c <_raise_r+0x42>
 8009a24:	2316      	movs	r3, #22
 8009a26:	6003      	str	r3, [r0, #0]
 8009a28:	2001      	movs	r0, #1
 8009a2a:	e7e7      	b.n	80099fc <_raise_r+0x12>
 8009a2c:	2400      	movs	r4, #0
 8009a2e:	f842 4025 	str.w	r4, [r2, r5, lsl #2]
 8009a32:	4628      	mov	r0, r5
 8009a34:	4798      	blx	r3
 8009a36:	2000      	movs	r0, #0
 8009a38:	e7e0      	b.n	80099fc <_raise_r+0x12>
	...

08009a3c <raise>:
 8009a3c:	4b02      	ldr	r3, [pc, #8]	; (8009a48 <raise+0xc>)
 8009a3e:	4601      	mov	r1, r0
 8009a40:	6818      	ldr	r0, [r3, #0]
 8009a42:	f7ff bfd2 	b.w	80099ea <_raise_r>
 8009a46:	bf00      	nop
 8009a48:	20000080 	.word	0x20000080

08009a4c <_fstat_r>:
 8009a4c:	b538      	push	{r3, r4, r5, lr}
 8009a4e:	4d07      	ldr	r5, [pc, #28]	; (8009a6c <_fstat_r+0x20>)
 8009a50:	2300      	movs	r3, #0
 8009a52:	4604      	mov	r4, r0
 8009a54:	4608      	mov	r0, r1
 8009a56:	4611      	mov	r1, r2
 8009a58:	602b      	str	r3, [r5, #0]
 8009a5a:	f7f6 ff32 	bl	80008c2 <_fstat>
 8009a5e:	1c43      	adds	r3, r0, #1
 8009a60:	d102      	bne.n	8009a68 <_fstat_r+0x1c>
 8009a62:	682b      	ldr	r3, [r5, #0]
 8009a64:	b103      	cbz	r3, 8009a68 <_fstat_r+0x1c>
 8009a66:	6023      	str	r3, [r4, #0]
 8009a68:	bd38      	pop	{r3, r4, r5, pc}
 8009a6a:	bf00      	nop
 8009a6c:	20008534 	.word	0x20008534

08009a70 <_isatty_r>:
 8009a70:	b538      	push	{r3, r4, r5, lr}
 8009a72:	4d06      	ldr	r5, [pc, #24]	; (8009a8c <_isatty_r+0x1c>)
 8009a74:	2300      	movs	r3, #0
 8009a76:	4604      	mov	r4, r0
 8009a78:	4608      	mov	r0, r1
 8009a7a:	602b      	str	r3, [r5, #0]
 8009a7c:	f7f6 ff26 	bl	80008cc <_isatty>
 8009a80:	1c43      	adds	r3, r0, #1
 8009a82:	d102      	bne.n	8009a8a <_isatty_r+0x1a>
 8009a84:	682b      	ldr	r3, [r5, #0]
 8009a86:	b103      	cbz	r3, 8009a8a <_isatty_r+0x1a>
 8009a88:	6023      	str	r3, [r4, #0]
 8009a8a:	bd38      	pop	{r3, r4, r5, pc}
 8009a8c:	20008534 	.word	0x20008534

08009a90 <_kill_r>:
 8009a90:	b538      	push	{r3, r4, r5, lr}
 8009a92:	4d07      	ldr	r5, [pc, #28]	; (8009ab0 <_kill_r+0x20>)
 8009a94:	2300      	movs	r3, #0
 8009a96:	4604      	mov	r4, r0
 8009a98:	4608      	mov	r0, r1
 8009a9a:	4611      	mov	r1, r2
 8009a9c:	602b      	str	r3, [r5, #0]
 8009a9e:	f7f6 fee3 	bl	8000868 <_kill>
 8009aa2:	1c43      	adds	r3, r0, #1
 8009aa4:	d102      	bne.n	8009aac <_kill_r+0x1c>
 8009aa6:	682b      	ldr	r3, [r5, #0]
 8009aa8:	b103      	cbz	r3, 8009aac <_kill_r+0x1c>
 8009aaa:	6023      	str	r3, [r4, #0]
 8009aac:	bd38      	pop	{r3, r4, r5, pc}
 8009aae:	bf00      	nop
 8009ab0:	20008534 	.word	0x20008534

08009ab4 <_getpid_r>:
 8009ab4:	f7f6 bed6 	b.w	8000864 <_getpid>

08009ab8 <_init>:
 8009ab8:	b5f8      	push	{r3, r4, r5, r6, r7, lr}
 8009aba:	bf00      	nop
 8009abc:	bcf8      	pop	{r3, r4, r5, r6, r7}
 8009abe:	bc08      	pop	{r3}
 8009ac0:	469e      	mov	lr, r3
 8009ac2:	4770      	bx	lr

08009ac4 <_fini>:
 8009ac4:	b5f8      	push	{r3, r4, r5, r6, r7, lr}
 8009ac6:	bf00      	nop
 8009ac8:	bcf8      	pop	{r3, r4, r5, r6, r7}
 8009aca:	bc08      	pop	{r3}
 8009acc:	469e      	mov	lr, r3
 8009ace:	4770      	bx	lr
